 aebellBroadcast

 Timestamp is 5ab35f23 (Thu Mar 22 15:45:39 2018)

 Preferred load address is 0000000180000000

 Start         Length     Name                   Class
 0001:00000000 000002b8H .text$di                CODE
 0001:000002c0 00034ba7H .text$mn                CODE
 0001:00034e70 00000630H .text$x                 CODE
 0001:000354a0 000007f0H .text$yd                CODE
 0002:00000000 000004a0H .idata$5                DATA
 0002:000004a0 00000008H .CRT$XCA                DATA
 0002:000004a8 00000018H .CRT$XCC                DATA
 0002:000004c0 00000010H .CRT$XCL                DATA
 0002:000004d0 00000098H .CRT$XCU                DATA
 0002:00000568 00000008H .CRT$XCZ                DATA
 0002:00000570 00000008H .CRT$XIA                DATA
 0002:00000578 00000020H .CRT$XIC                DATA
 0002:00000598 00000008H .CRT$XIZ                DATA
 0002:000005a0 00000008H .CRT$XPA                DATA
 0002:000005a8 00000010H .CRT$XPX                DATA
 0002:000005b8 00000008H .CRT$XPXA               DATA
 0002:000005c0 00000008H .CRT$XPZ                DATA
 0002:000005c8 00000008H .CRT$XTA                DATA
 0002:000005d0 00000008H .CRT$XTZ                DATA
 0002:000005e0 00009ee0H .rdata                  DATA
 0002:0000a4c0 000000a0H .rdata$debug            DATA
 0002:0000a560 00000734H .rdata$r                DATA
 0002:0000ac98 00000008H .rtc$IAA                DATA
 0002:0000aca0 00000008H .rtc$IZZ                DATA
 0002:0000aca8 00000008H .rtc$TAA                DATA
 0002:0000acb0 00000008H .rtc$TZZ                DATA
 0002:0000acb8 00003670H .xdata                  DATA
 0002:0000e328 000001dcH .xdata$x                DATA
 0002:0000e504 00000020H .didat$2                DATA
 0002:0000e524 00000020H .didat$3                DATA
 0002:0000e548 000000a8H .didat$4                DATA
 0002:0000e5f0 00000486H .didat$6                DATA
 0002:0000ea78 000000a8H .didat$7                DATA
 0002:0000eb20 00000062H .edata                  DATA
 0002:0000eb84 0000003cH .idata$2                DATA
 0002:0000ebc0 00000014H .idata$3                DATA
 0002:0000ebd8 000004a0H .idata$4                DATA
 0002:0000f078 00000da4H .idata$6                DATA
 0003:00000000 00001c18H .data                   DATA
 0003:00001c20 00000258H .data$r                 DATA
 0003:00001e78 000000a8H .didat$5                DATA
 0003:00001f20 00002b80H .bss                    DATA
 0004:00000000 000031a4H .pdata                  DATA
 0005:00000000 00000058H .rsrc$01                DATA
 0005:00000060 00000180H .rsrc$02                DATA

  Address         Publics by Value              Rva+Base               Lib:Object

 0000:00000000       __guard_fids_count         0000000000000000     <absolute>
 0000:00000000       ___safe_se_handler_table   0000000000000000     <absolute>
 0000:00000000       ___safe_se_handler_count   0000000000000000     <absolute>
 0000:00000000       __guard_flags              0000000000000000     <absolute>
 0000:00000000       __guard_fids_table         0000000000000000     <absolute>
 0000:00000000       __ImageBase                0000000180000000     <linker-defined>
 0001:000002c0       ?NODE_SET_METHOD@node@@YAXV?$Local@VObject@v8@@@v8@@PEBDP6AXAEBV?$FunctionCallbackInfo@VValue@v8@@@3@@Z@Z 00000001800012c0 f i AebellBroadcast.obj
 0001:000003a0       ??0DeviceInfo@@QEAA@XZ     00000001800013a0 f i AebellBroadcast.obj
 0001:00000480       ??0BroadcastOperInfo@@QEAA@XZ 0000000180001480 f i AebellBroadcast.obj
 0001:00000510       ??1DeviceInfo@@QEAA@XZ     0000000180001510 f i AebellBroadcast.obj
 0001:000005b0       ??0TimerTaskInfo@@QEAA@XZ  00000001800015b0 f i AebellBroadcast.obj
 0001:00000690       ??0TimerTaskInfo@@QEAA@AEBU0@@Z 0000000180001690 f i AebellBroadcast.obj
 0001:00000740       ??4TimerTaskInfo@@QEAAAEAU0@AEBU0@@Z 0000000180001740 f i AebellBroadcast.obj
 0001:00000a50       ??0AddUpdPlanOperInfo@@QEAA@XZ 0000000180001a50 f i AebellBroadcast.obj
 0001:00000ad0       ??1TimerTaskInfo@@QEAA@XZ  0000000180001ad0 f i AebellBroadcast.obj
 0001:00000c00       ??1AddUpdPlanOperInfo@@QEAA@XZ 0000000180001c00 f i AebellBroadcast.obj
 0001:00000cb0       ??4ResFileInfo@@QEAAAEAU0@AEBU0@@Z 0000000180001cb0 f i AebellBroadcast.obj
 0001:00000d90       ?startModule@@YAXAEBV?$FunctionCallbackInfo@VValue@v8@@@v8@@@Z 0000000180001d90 f   AebellBroadcast.obj
 0001:00000db0       ?stopModule@@YAXAEBV?$FunctionCallbackInfo@VValue@v8@@@v8@@@Z 0000000180001db0 f   AebellBroadcast.obj
 0001:00000e00       ?login@@YAXAEBV?$FunctionCallbackInfo@VValue@v8@@@v8@@@Z 0000000180001e00 f   AebellBroadcast.obj
 0001:000011f0       ?logout@@YAXAEBV?$FunctionCallbackInfo@VValue@v8@@@v8@@@Z 00000001800021f0 f   AebellBroadcast.obj
 0001:00001270       ?queryAllFile@@YAXAEBV?$FunctionCallbackInfo@VValue@v8@@@v8@@@Z 0000000180002270 f   AebellBroadcast.obj
 0001:000012d0       ?registerDevStatusCB@@YAXAEBV?$FunctionCallbackInfo@VValue@v8@@@v8@@@Z 00000001800022d0 f   AebellBroadcast.obj
 0001:00001310       ?startBroadcast@@YAXAEBV?$FunctionCallbackInfo@VValue@v8@@@v8@@@Z 0000000180002310 f   AebellBroadcast.obj
 0001:00001ac0       ?startCall@@YAXAEBV?$FunctionCallbackInfo@VValue@v8@@@v8@@@Z 0000000180002ac0 f   AebellBroadcast.obj
 0001:00001fe0       ?stopBroadcast@@YAXAEBV?$FunctionCallbackInfo@VValue@v8@@@v8@@@Z 0000000180002fe0 f   AebellBroadcast.obj
 0001:00002150       ?stopCall@@YAXAEBV?$FunctionCallbackInfo@VValue@v8@@@v8@@@Z 0000000180003150 f   AebellBroadcast.obj
 0001:000022c0       ?adjustVolume@@YAXAEBV?$FunctionCallbackInfo@VValue@v8@@@v8@@@Z 00000001800032c0 f   AebellBroadcast.obj
 0001:000024a0       ?addDevice@@YAXAEBV?$FunctionCallbackInfo@VValue@v8@@@v8@@@Z 00000001800034a0 f   AebellBroadcast.obj
 0001:00002a30       ?updateDevice@@YAXAEBV?$FunctionCallbackInfo@VValue@v8@@@v8@@@Z 0000000180003a30 f   AebellBroadcast.obj
 0001:00002f10       ?delDevice@@YAXAEBV?$FunctionCallbackInfo@VValue@v8@@@v8@@@Z 0000000180003f10 f   AebellBroadcast.obj
 0001:00003080       ?uploadFile@@YAXAEBV?$FunctionCallbackInfo@VValue@v8@@@v8@@@Z 0000000180004080 f   AebellBroadcast.obj
 0001:000033d0       ?addPlan@@YAXAEBV?$FunctionCallbackInfo@VValue@v8@@@v8@@@Z 00000001800043d0 f   AebellBroadcast.obj
 0001:00004320       ?updatePlan@@YAXAEBV?$FunctionCallbackInfo@VValue@v8@@@v8@@@Z 0000000180005320 f   AebellBroadcast.obj
 0001:00005270       ?delPlan@@YAXAEBV?$FunctionCallbackInfo@VValue@v8@@@v8@@@Z 0000000180006270 f   AebellBroadcast.obj
 0001:00005400       ?addSessionDev@@YAXAEBV?$FunctionCallbackInfo@VValue@v8@@@v8@@@Z 0000000180006400 f   AebellBroadcast.obj
 0001:00005670       ?delSessionDev@@YAXAEBV?$FunctionCallbackInfo@VValue@v8@@@v8@@@Z 0000000180006670 f   AebellBroadcast.obj
 0001:000058e0       ?getTaskResponse@@YAXAEBV?$FunctionCallbackInfo@VValue@v8@@@v8@@@Z 00000001800068e0 f   AebellBroadcast.obj
 0001:00005e50       ?getAutoDeviceStatus@@YAXAEBV?$FunctionCallbackInfo@VValue@v8@@@v8@@@Z 0000000180006e50 f   AebellBroadcast.obj
 0001:00006180       ?getAllDeviceStatus@@YAXAEBV?$FunctionCallbackInfo@VValue@v8@@@v8@@@Z 0000000180007180 f   AebellBroadcast.obj
 0001:000064b0       ?BroadcastCB@@YAXGK@Z      00000001800074b0 f   AebellBroadcast.obj
 0001:000064e0       ?CallCB@@YAXGK@Z           00000001800074e0 f   AebellBroadcast.obj
 0001:00006510       ?QueryAllFileCB@@YAXAEBV?$vector@U_tagNetFile@@V?$allocator@U_tagNetFile@@@std@@@std@@K@Z 0000000180007510 f   AebellBroadcast.obj
 0001:00006900       ?TimerQueryAllFileCB@@YAXAEBV?$vector@U_tagNetFile@@V?$allocator@U_tagNetFile@@@std@@@std@@K@Z 0000000180007900 f   AebellBroadcast.obj
 0001:00006930       ?QueryDevStatCB_Broadcast@@YAXU_tagDeviceStatus@@K@Z 0000000180007930 f   AebellBroadcast.obj
 0001:000069c0       ?QueryDevStatCB_Call@@YAXU_tagDeviceStatus@@K@Z 00000001800079c0 f   AebellBroadcast.obj
 0001:00006a50       ?StopOperationCB@@YAXHK@Z  0000000180007a50 f   AebellBroadcast.obj
 0001:00006a60       ?RemoveDeviceCB@@YAXHK@Z   0000000180007a60 f   AebellBroadcast.obj
 0001:00006a90       ?SetDeviceVolumeCB@@YAXHK@Z 0000000180007a90 f   AebellBroadcast.obj
 0001:00006ab0       ?UploadFileCB@@YAXHK@Z     0000000180007ab0 f   AebellBroadcast.obj
 0001:00006ae0       ?OnOperateResourceCB@@YAXHK@Z 0000000180007ae0 f   AebellBroadcast.obj
 0001:00006af0       ?OnFinishUploadFileCB@@YAXHK@Z 0000000180007af0 f   AebellBroadcast.obj
 0001:00006b70       ?AddDeviceCB@@YAXHK@Z      0000000180007b70 f   AebellBroadcast.obj
 0001:00006c50       ??1ReqTaskInfo@@QEAA@XZ    0000000180007c50 f i AebellBroadcast.obj
 0001:00006e50       ?AddDeviceAttachCB@@YAXHK@Z 0000000180007e50 f   AebellBroadcast.obj
 0001:00006e90       ?TimerGetAllNetDevicesCB@@YAXAEBV?$vector@U_tagNetDevice@@V?$allocator@U_tagNetDevice@@@std@@@std@@K@Z 0000000180007e90 f   AebellBroadcast.obj
 0001:00006ec0       ?TimerGetDeviceAttachInfoCB@@YAXAEBV?$vector@U_tagNetDeviceAttach@@V?$allocator@U_tagNetDeviceAttach@@@std@@@std@@K@Z 0000000180007ec0 f   AebellBroadcast.obj
 0001:00006ef0       ?TimerQueryAllDeviceStatusCB@@YAXAEBV?$vector@U_tagDeviceStatus@@V?$allocator@U_tagDeviceStatus@@@std@@@std@@K@Z 0000000180007ef0 f   AebellBroadcast.obj
 0001:000072c0       ?AutoGetDeviceStatusCB@@YAXAEBV?$vector@U_tagDeviceStatus@@V?$allocator@U_tagDeviceStatus@@@std@@@std@@K@Z 00000001800082c0 f   AebellBroadcast.obj
 0001:00007780       ?OnGetAllPolicyCB@@YAXAEBV?$vector@U_tagTaskPolicy@@V?$allocator@U_tagTaskPolicy@@@std@@@std@@K@Z 0000000180008780 f   AebellBroadcast.obj
 0001:000077b0       ?OnPolicyStatusCB@@YAXU_tagPolicyStatus@@K@Z 00000001800087b0 f   AebellBroadcast.obj
 0001:00007810       ?OnAddUpdatePlanCB@@YAXHK@Z 0000000180008810 f   AebellBroadcast.obj
 0001:00007840       ?OnAddPlanTaskCB@@YAXHK@Z  0000000180008840 f   AebellBroadcast.obj
 0001:00007870       ?OnTaskOperCB@@YAXHK@Z     0000000180008870 f   AebellBroadcast.obj
 0001:00007880       ?OnDelPlanCB@@YAXHK@Z      0000000180008880 f   AebellBroadcast.obj
 0001:000078b0       ?OnSessionDeviceCB@@YAXHK@Z 00000001800088b0 f   AebellBroadcast.obj
 0001:000078e0       ?getUtf8String@@YA?AV?$basic_string@DU?$char_traits@D@std@@V?$allocator@D@2@@std@@PEBD@Z 00000001800088e0 f   AebellBroadcast.obj
 0001:00007a60       ?GenerateGUID@@YA?AV?$basic_string@DU?$char_traits@D@std@@V?$allocator@D@2@@std@@XZ 0000000180008a60 f   AebellBroadcast.obj
 0001:00007bc0       ?RegisterModule@@YAXV?$Local@VObject@v8@@@v8@@@Z 0000000180008bc0 f   AebellBroadcast.obj
 0001:00007e10       ?push_back@?$vector@V?$basic_string@DU?$char_traits@D@std@@V?$allocator@D@2@@std@@V?$allocator@V?$basic_string@DU?$char_traits@D@std@@V?$allocator@D@2@@std@@@2@@std@@QEAAXAEBV?$basic_string@DU?$char_traits@D@std@@V?$allocator@D@2@@2@@Z 0000000180008e10 f i AebellBroadcast.obj
 0001:00007ea0       ?clear@?$vector@V?$basic_string@DU?$char_traits@D@std@@V?$allocator@D@2@@std@@V?$allocator@V?$basic_string@DU?$char_traits@D@std@@V?$allocator@D@2@@std@@@2@@std@@QEAAXXZ 0000000180008ea0 f i AebellBroadcast.obj
 0001:00007f20       ?push_back@?$vector@UFileInfo@@V?$allocator@UFileInfo@@@std@@@std@@QEAAXAEBUFileInfo@@@Z 0000000180008f20 f i AebellBroadcast.obj
 0001:00008010       ?clear@?$vector@UFileInfo@@V?$allocator@UFileInfo@@@std@@@std@@QEAAXXZ 0000000180009010 f i AebellBroadcast.obj
 0001:000080a0       ?_Assign_rv@?$basic_string@DU?$char_traits@D@std@@V?$allocator@D@2@@std@@QEAAX$$QEAV12@@Z 00000001800090a0 f i AebellBroadcast.obj
 0001:00008110       ?assign@?$basic_string@DU?$char_traits@D@std@@V?$allocator@D@2@@std@@QEAAAEAV12@AEBV12@_K1@Z 0000000180009110 f i AebellBroadcast.obj
 0001:00008240       ?_Reserve@?$vector@V?$basic_string@DU?$char_traits@D@std@@V?$allocator@D@2@@std@@V?$allocator@V?$basic_string@DU?$char_traits@D@std@@V?$allocator@D@2@@std@@@2@@std@@IEAAX_K@Z 0000000180009240 f i AebellBroadcast.obj
 0001:000082d0       ?_Tidy@?$vector@V?$basic_string@DU?$char_traits@D@std@@V?$allocator@D@2@@std@@V?$allocator@V?$basic_string@DU?$char_traits@D@std@@V?$allocator@D@2@@std@@@2@@std@@IEAAXXZ 00000001800092d0 f i AebellBroadcast.obj
 0001:00008350       ?_Reserve@?$vector@HV?$allocator@H@std@@@std@@IEAAX_K@Z 0000000180009350 f i AebellBroadcast.obj
 0001:000083e0       ?_Reserve@?$vector@UTimerTaskInfo@@V?$allocator@UTimerTaskInfo@@@std@@@std@@IEAAX_K@Z 00000001800093e0 f i AebellBroadcast.obj
 0001:000084b0       ?_Destroy@?$vector@UFileInfo@@V?$allocator@UFileInfo@@@std@@@std@@IEAAXPEAUFileInfo@@0@Z 00000001800094b0 f i AebellBroadcast.obj
 0001:00008510       ?_Reserve@?$vector@UFileInfo@@V?$allocator@UFileInfo@@@std@@@std@@IEAAX_K@Z 0000000180009510 f i AebellBroadcast.obj
 0001:000085e0       ?_Tidy@?$vector@UFileInfo@@V?$allocator@UFileInfo@@@std@@@std@@IEAAXXZ 00000001800095e0 f i AebellBroadcast.obj
 0001:00008670       ?_Reserve@?$vector@UDeviceStatusInfo@@V?$allocator@UDeviceStatusInfo@@@std@@@std@@IEAAX_K@Z 0000000180009670 f i AebellBroadcast.obj
 0001:00008740       ?_Getal@?$_Vector_alloc@$0A@U?$_Vec_base_types@UDeviceStatusInfo@@V?$allocator@UDeviceStatusInfo@@@std@@@std@@@std@@QEBA?AU?$_Wrap_alloc@V?$allocator@UDeviceStatusInfo@@@std@@@2@XZ 0000000180009740 f i AebellBroadcast.obj
 0001:00008750       ?assign@?$basic_string@DU?$char_traits@D@std@@V?$allocator@D@2@@std@@QEAAAEAV12@PEBD_K@Z 0000000180009750 f i AebellBroadcast.obj
 0001:00008890       ?erase@?$basic_string@DU?$char_traits@D@std@@V?$allocator@D@2@@std@@QEAAAEAV12@_K0@Z 0000000180009890 f i AebellBroadcast.obj
 0001:00008960       ??0?$_Wrap_alloc@V?$allocator@D@std@@@std@@QEAA@XZ 0000000180009960 f i AebellBroadcast.obj
 0001:00008960       ??0?$_Wrap_alloc@V?$allocator@UDeviceStatusInfo@@@std@@@std@@QEAA@XZ 0000000180009960 f i AebellBroadcast.obj
 0001:00008960       ?setbuf@?$basic_streambuf@DU?$char_traits@D@std@@@std@@MEAAPEAV12@PEAD_J@Z 0000000180009960 f i UploadFileTask.obj
 0001:00008970       ?_Reallocate@?$vector@V?$basic_string@DU?$char_traits@D@std@@V?$allocator@D@2@@std@@V?$allocator@V?$basic_string@DU?$char_traits@D@std@@V?$allocator@D@2@@std@@@2@@std@@IEAAX_K@Z 0000000180009970 f i AebellBroadcast.obj
 0001:00008a60       ?_Reallocate@?$vector@HV?$allocator@H@std@@@std@@IEAAX_K@Z 0000000180009a60 f i AebellBroadcast.obj
 0001:00008b10       ?_Reallocate@?$vector@UTimerTaskInfo@@V?$allocator@UTimerTaskInfo@@@std@@@std@@IEAAX_K@Z 0000000180009b10 f i AebellBroadcast.obj
 0001:00008c30       ?_Reallocate@?$vector@UFileInfo@@V?$allocator@UFileInfo@@@std@@@std@@IEAAX_K@Z 0000000180009c30 f i AebellBroadcast.obj
 0001:00008d50       ?_Reallocate@?$vector@UDeviceStatusInfo@@V?$allocator@UDeviceStatusInfo@@@std@@@std@@IEAAX_K@Z 0000000180009d50 f i AebellBroadcast.obj
 0001:00008e60       ?_Copy@?$basic_string@DU?$char_traits@D@std@@V?$allocator@D@2@@std@@QEAAX_K0@Z 0000000180009e60 f i AebellBroadcast.obj
 0001:00008f50       ??$_snprintf_s@$0EA@@@YAHAEAY0EA@D_KPEBDZZ 0000000180009f50 f i AebellBroadcast.obj
 0001:00008f80       ?imbue@?$basic_streambuf@DU?$char_traits@D@std@@@std@@MEAAXAEBVlocale@2@@Z 0000000180009f80 f i UploadFileTask.obj
 0001:00008f80       ?_Lock@?$basic_streambuf@DU?$char_traits@D@std@@@std@@UEAAXXZ 0000000180009f80 f i UploadFileTask.obj
 0001:00008f80       ??$destroy@PEAD@?$_Wrap_alloc@V?$allocator@D@std@@@std@@QEAAXPEAPEAD@Z 0000000180009f80 f i AebellBroadcast.obj
 0001:00008f80       ?_Doraise@exception@stdext@@MEBAXXZ 0000000180009f80 f i UploadFileTask.obj
 0001:00008f80       ?_Unlock@?$basic_streambuf@DU?$char_traits@D@std@@@std@@UEAAXXZ 0000000180009f80 f i UploadFileTask.obj
 0001:00008f90       ??$_Umove@PEAV?$basic_string@DU?$char_traits@D@std@@V?$allocator@D@2@@std@@@?$vector@V?$basic_string@DU?$char_traits@D@std@@V?$allocator@D@2@@std@@V?$allocator@V?$basic_string@DU?$char_traits@D@std@@V?$allocator@D@2@@std@@@2@@std@@IEAAPEAV?$basic_string@DU?$char_traits@D@std@@V?$allocator@D@2@@1@PEAV21@00@Z 0000000180009f90 f i AebellBroadcast.obj
 0001:00009040       ??$_Ucopy@PEAUFileInfo@@@?$vector@UFileInfo@@V?$allocator@UFileInfo@@@std@@@std@@IEAAPEAUFileInfo@@PEAU2@00@Z 000000018000a040 f i AebellBusiThread.obj
 0001:00009040       ??$_Umove@PEAUFileInfo@@@?$vector@UFileInfo@@V?$allocator@UFileInfo@@@std@@@std@@IEAAPEAUFileInfo@@PEAU2@00@Z 000000018000a040 f i AebellBroadcast.obj
 0001:000090e0       ??$_Umove@PEAUDeviceStatusInfo@@@?$vector@UDeviceStatusInfo@@V?$allocator@UDeviceStatusInfo@@@std@@@std@@IEAAPEAUDeviceStatusInfo@@PEAU2@00@Z 000000018000a0e0 f i AebellBroadcast.obj
 0001:00009180       ?PushTask@CTaskQueue@@QEAAXV?$shared_ptr@VCBroadcastTask@@@std@@K@Z 000000018000a180 f   TaskQueue.obj
 0001:00009240       ?PopTask@CTaskQueue@@QEAA?AV?$shared_ptr@VCBroadcastTask@@@std@@K@Z 000000018000a240 f   TaskQueue.obj
 0001:00009310       ?clear@?$list@V?$shared_ptr@VCUploadFileTask@@@std@@V?$allocator@V?$shared_ptr@VCUploadFileTask@@@std@@@2@@std@@QEAAXXZ 000000018000a310 f i AebellUploadThread.obj
 0001:00009310       ?clear@?$list@V?$shared_ptr@VCBroadcastTask@@@std@@V?$allocator@V?$shared_ptr@VCBroadcastTask@@@std@@@2@@std@@QEAAXXZ 000000018000a310 f i TaskQueue.obj
 0001:000093a0       ??4?$shared_ptr@VCUploadFileTask@@@std@@QEAAAEAV01@AEBV01@@Z 000000018000a3a0 f i AebellUploadThread.obj
 0001:000093a0       ??4?$shared_ptr@VCBroadcastTask@@@std@@QEAAAEAV01@AEBV01@@Z 000000018000a3a0 f i TaskQueue.obj
 0001:00009420       ?_Reset0@?$_Ptr_base@VCBroadcastTask@@@std@@QEAAXPEAVCBroadcastTask@@PEAV_Ref_count_base@2@@Z 000000018000a420 f i TaskQueue.obj
 0001:00009420       ?_Reset0@?$_Ptr_base@VCUploadFileTask@@@std@@QEAAXPEAVCUploadFileTask@@PEAV_Ref_count_base@2@@Z 000000018000a420 f i AebellBusiThread.obj
 0001:000094a0       ??$_Buynode@AEBV?$shared_ptr@VCUploadFileTask@@@std@@@?$_List_buy@V?$shared_ptr@VCUploadFileTask@@@std@@V?$allocator@V?$shared_ptr@VCUploadFileTask@@@std@@@2@@std@@QEAAPEAU?$_List_node@V?$shared_ptr@VCUploadFileTask@@@std@@PEAX@1@PEAU21@0AEBV?$shared_ptr@VCUploadFileTask@@@1@@Z 000000018000a4a0 f i AebellUploadThread.obj
 0001:000094a0       ??$_Buynode@AEBV?$shared_ptr@VCBroadcastTask@@@std@@@?$_List_buy@V?$shared_ptr@VCBroadcastTask@@@std@@V?$allocator@V?$shared_ptr@VCBroadcastTask@@@std@@@2@@std@@QEAAPEAU?$_List_node@V?$shared_ptr@VCBroadcastTask@@@std@@PEAX@1@PEAU21@0AEBV?$shared_ptr@VCBroadcastTask@@@1@@Z 000000018000a4a0 f i TaskQueue.obj
 0001:00009530       ??4DeviceInfo@@QEAAAEAU0@AEBU0@@Z 000000018000a530 f i BroadcastTask.obj
 0001:000095c0       ??4BroadcastOperInfo@@QEAAAEAU0@AEBU0@@Z 000000018000a5c0 f i BroadcastTask.obj
 0001:000098e0       ??4CallOperInfo@@QEAAAEAU0@AEBU0@@Z 000000018000a8e0 f i BroadcastTask.obj
 0001:00009a40       ??4AddUpdPlanOperInfo@@QEAAAEAU0@AEBU0@@Z 000000018000aa40 f i BroadcastTask.obj
 0001:00009d00       ??0ReqTaskInfo@@QEAA@XZ    000000018000ad00 f i BroadcastTask.obj
 0001:00009eb0       ??4ReqTaskInfo@@QEAAAEAU0@AEBU0@@Z 000000018000aeb0 f i BroadcastTask.obj
 0001:0000a070       ??4ResTaskInfo@@QEAAAEAU0@AEBU0@@Z 000000018000b070 f i BroadcastTask.obj
 0001:0000a0f0       ??0CBroadcastTask@@QEAA@XZ 000000018000b0f0 f   BroadcastTask.obj
 0001:0000a180       ?what@exception@stdext@@UEBAPEBDXZ 000000018000b180 f i UploadFileTask.obj
 0001:0000a1a0       ??_G_System_error@std@@UEAAPEAXI@Z 000000018000b1a0 f i UploadFileTask.obj
 0001:0000a1a0       ??_Gfailure@ios_base@std@@UEAAPEAXI@Z 000000018000b1a0 f i UploadFileTask.obj
 0001:0000a1a0       ??_Gexception@stdext@@UEAAPEAXI@Z 000000018000b1a0 f i UploadFileTask.obj
 0001:0000a1a0       ??_Eruntime_error@std@@UEAAPEAXI@Z 000000018000b1a0 f i * CIL library *:* CIL module *
 0001:0000a1a0       ??_E_System_error@std@@UEAAPEAXI@Z 000000018000b1a0 f i * CIL library *:* CIL module *
 0001:0000a1a0       ??_Efailure@ios_base@std@@UEAAPEAXI@Z 000000018000b1a0 f i * CIL library *:* CIL module *
 0001:0000a1a0       ??_Eexception@stdext@@UEAAPEAXI@Z 000000018000b1a0 f i * CIL library *:* CIL module *
 0001:0000a1a0       ??_Gruntime_error@std@@UEAAPEAXI@Z 000000018000b1a0 f i UploadFileTask.obj
 0001:0000a1d0       ?_Doraise@runtime_error@std@@MEBAXXZ 000000018000b1d0 f i UploadFileTask.obj
 0001:0000a1d0       ?_Doraise@failure@ios_base@std@@MEBAXXZ 000000018000b1d0 f i UploadFileTask.obj
 0001:0000a1f0       ??0_Locinfo@std@@QEAA@PEBD@Z 000000018000b1f0 f i UploadFileTask.obj
 0001:0000a2b0       ??1_Locinfo@std@@QEAA@XZ   000000018000b2b0 f i UploadFileTask.obj
 0001:0000a350       ??_G?$codecvt@DDH@std@@MEAAPEAXI@Z 000000018000b350 f i UploadFileTask.obj
 0001:0000a350       ??_E_Facet_base@std@@UEAAPEAXI@Z 000000018000b350 f i * CIL library *:* CIL module *
 0001:0000a350       ??_E?$codecvt@DDH@std@@MEAAPEAXI@Z 000000018000b350 f i * CIL library *:* CIL module *
 0001:0000a350       ??_G_Facet_base@std@@UEAAPEAXI@Z 000000018000b350 f i UploadFileTask.obj
 0001:0000a380       ?_Incref@facet@locale@std@@UEAAXXZ 000000018000b380 f i UploadFileTask.obj
 0001:0000a390       ?_Decref@facet@locale@std@@UEAAPEAV_Facet_base@3@XZ 000000018000b390 f i UploadFileTask.obj
 0001:0000a3a0       DllMain                    000000018000b3a0 f i LIBCMT:dllmain.obj
 0001:0000a3a0       ?do_max_length@codecvt_base@std@@MEBAHXZ 000000018000b3a0 f i UploadFileTask.obj
 0001:0000a3a0       ?do_encoding@codecvt_base@std@@MEBAHXZ 000000018000b3a0 f i UploadFileTask.obj
 0001:0000a3b0       ?_Getcat@?$ctype@D@std@@SA_KPEAPEBVfacet@locale@2@PEBV42@@Z 000000018000b3b0 f i UploadFileTask.obj
 0001:0000a490       ?do_tolower@?$ctype@D@std@@MEBADD@Z 000000018000b490 f i UploadFileTask.obj
 0001:0000a4a0       ?do_tolower@?$ctype@D@std@@MEBAPEBDPEADPEBD@Z 000000018000b4a0 f i UploadFileTask.obj
 0001:0000a510       ?do_toupper@?$ctype@D@std@@MEBADD@Z 000000018000b510 f i UploadFileTask.obj
 0001:0000a520       ?do_toupper@?$ctype@D@std@@MEBAPEBDPEADPEBD@Z 000000018000b520 f i UploadFileTask.obj
 0001:0000a590       ?do_widen@?$ctype@D@std@@MEBADD@Z 000000018000b590 f i UploadFileTask.obj
 0001:0000a590       ?do_narrow@?$ctype@D@std@@MEBADDD@Z 000000018000b590 f i UploadFileTask.obj
 0001:0000a5a0       ?do_widen@?$ctype@D@std@@MEBAPEBDPEBD0PEAD@Z 000000018000b5a0 f i UploadFileTask.obj
 0001:0000a5c0       ?do_narrow@?$ctype@D@std@@MEBAPEBDPEBD0DPEAD@Z 000000018000b5c0 f i UploadFileTask.obj
 0001:0000a5e0       ??_E?$ctype@D@std@@MEAAPEAXI@Z 000000018000b5e0 f i * CIL library *:* CIL module *
 0001:0000a5e0       ??_G?$ctype@D@std@@MEAAPEAXI@Z 000000018000b5e0 f i UploadFileTask.obj
 0001:0000a650       ??0_System_error@std@@IEAA@Verror_code@1@AEBV?$basic_string@DU?$char_traits@D@std@@V?$allocator@D@2@@1@@Z 000000018000b650 f i UploadFileTask.obj
 0001:0000a7c0       ?clear@ios_base@std@@QEAAXH_N@Z 000000018000b7c0 f i UploadFileTask.obj
 0001:0000a9f0       ?_Init@ios_base@std@@IEAAXXZ 000000018000b9f0 f i UploadFileTask.obj
 0001:0000aa80       ??_Eios_base@std@@UEAAPEAXI@Z 000000018000ba80 f i * CIL library *:* CIL module *
 0001:0000aa80       ??_E?$basic_ios@DU?$char_traits@D@std@@@std@@UEAAPEAXI@Z 000000018000ba80 f i * CIL library *:* CIL module *
 0001:0000aa80       ??_Gios_base@std@@UEAAPEAXI@Z 000000018000ba80 f i UploadFileTask.obj
 0001:0000aa80       ??_G?$basic_ios@DU?$char_traits@D@std@@@std@@UEAAPEAXI@Z 000000018000ba80 f i UploadFileTask.obj
 0001:0000aac0       ?DealUploadFileTask@CUploadFileTask@@AEAAXXZ 000000018000bac0 f   UploadFileTask.obj
 0001:0000af30       ?GetUploadSession@CUploadFileTask@@AEAAXXZ 000000018000bf30 f   UploadFileTask.obj
 0001:0000b210       ?onUploadTaskEnd@CUploadFileTask@@QEAAX_N@Z 000000018000c210 f   UploadFileTask.obj
 0001:0000b3d0       ?read@?$basic_istream@DU?$char_traits@D@std@@@std@@QEAAAEAV12@PEAD_J@Z 000000018000c3d0 f i UploadFileTask.obj
 0001:0000b4c0       ?seekg@?$basic_istream@DU?$char_traits@D@std@@@std@@QEAAAEAV12@_JH@Z 000000018000c4c0 f i UploadFileTask.obj
 0001:0000b5d0       ?pbackfail@?$basic_streambuf@DU?$char_traits@D@std@@@std@@MEAAHH@Z 000000018000c5d0 f i UploadFileTask.obj
 0001:0000b5d0       ?underflow@?$basic_streambuf@DU?$char_traits@D@std@@@std@@MEAAHXZ 000000018000c5d0 f i UploadFileTask.obj
 0001:0000b5d0       ?overflow@?$basic_streambuf@DU?$char_traits@D@std@@@std@@MEAAHH@Z 000000018000c5d0 f i UploadFileTask.obj
 0001:0000b5e0       ?showmanyc@?$basic_streambuf@DU?$char_traits@D@std@@@std@@MEAA_JXZ 000000018000c5e0 f i UploadFileTask.obj
 0001:0000b5e0       ?sync@?$basic_streambuf@DU?$char_traits@D@std@@@std@@MEAAHXZ 000000018000c5e0 f i UploadFileTask.obj
 0001:0000b5e0       __init_dummy               000000018000c5e0 f i LIBCMT:wsetloca.obj
 0001:0000b5e0       ?_Get_deleter@_Ref_count_base@std@@UEBAPEAXAEBVtype_info@@@Z 000000018000c5e0 f i AebellBusiThread.obj
 0001:0000b5e0       __init_collate             000000018000c5e0 f i LIBCMT:initcoll.obj
 0001:0000b5f0       ?uflow@?$basic_streambuf@DU?$char_traits@D@std@@@std@@MEAAHXZ 000000018000c5f0 f i UploadFileTask.obj
 0001:0000b630       ?xsgetn@?$basic_streambuf@DU?$char_traits@D@std@@@std@@MEAA_JPEAD_J@Z 000000018000c630 f i UploadFileTask.obj
 0001:0000b6f0       ?xsputn@?$basic_streambuf@DU?$char_traits@D@std@@@std@@MEAA_JPEBD_J@Z 000000018000c6f0 f i UploadFileTask.obj
 0001:0000b7b0       ?seekpos@?$basic_streambuf@DU?$char_traits@D@std@@@std@@MEAA?AV?$fpos@H@2@V32@H@Z 000000018000c7b0 f i UploadFileTask.obj
 0001:0000b7b0       ?seekoff@?$basic_streambuf@DU?$char_traits@D@std@@@std@@MEAA?AV?$fpos@H@2@_JHH@Z 000000018000c7b0 f i UploadFileTask.obj
 0001:0000b7d0       ??0?$basic_ifstream@DU?$char_traits@D@std@@@std@@QEAA@PEB_WHH@Z 000000018000c7d0 f i UploadFileTask.obj
 0001:0000b8b0       ??1?$basic_ifstream@DU?$char_traits@D@std@@@std@@UEAA@XZ 000000018000c8b0 f i UploadFileTask.obj
 0001:0000b930       ??1?$basic_filebuf@DU?$char_traits@D@std@@@std@@UEAA@XZ 000000018000c930 f i UploadFileTask.obj
 0001:0000b9e0       ?_Lock@?$basic_filebuf@DU?$char_traits@D@std@@@std@@UEAAXXZ 000000018000c9e0 f i UploadFileTask.obj
 0001:0000ba00       ?_Unlock@?$basic_filebuf@DU?$char_traits@D@std@@@std@@UEAAXXZ 000000018000ca00 f i UploadFileTask.obj
 0001:0000ba20       ?overflow@?$basic_filebuf@DU?$char_traits@D@std@@@std@@MEAAHH@Z 000000018000ca20 f i UploadFileTask.obj
 0001:0000bd40       ?pbackfail@?$basic_filebuf@DU?$char_traits@D@std@@@std@@MEAAHH@Z 000000018000cd40 f i UploadFileTask.obj
 0001:0000be20       ?underflow@?$basic_filebuf@DU?$char_traits@D@std@@@std@@MEAAHXZ 000000018000ce20 f i UploadFileTask.obj
 0001:0000be90       ?uflow@?$basic_filebuf@DU?$char_traits@D@std@@@std@@MEAAHXZ 000000018000ce90 f i UploadFileTask.obj
 0001:0000c1c0       ?seekoff@?$basic_filebuf@DU?$char_traits@D@std@@@std@@MEAA?AV?$fpos@H@2@_JHH@Z 000000018000d1c0 f i UploadFileTask.obj
 0001:0000c2b0       ?seekpos@?$basic_filebuf@DU?$char_traits@D@std@@@std@@MEAA?AV?$fpos@H@2@V32@H@Z 000000018000d2b0 f i UploadFileTask.obj
 0001:0000c390       ?setbuf@?$basic_filebuf@DU?$char_traits@D@std@@@std@@MEAAPEAV?$basic_streambuf@DU?$char_traits@D@std@@@2@PEAD_J@Z 000000018000d390 f i UploadFileTask.obj
 0001:0000c3f0       ?sync@?$basic_filebuf@DU?$char_traits@D@std@@@std@@MEAAHXZ 000000018000d3f0 f i UploadFileTask.obj
 0001:0000c440       ?imbue@?$basic_filebuf@DU?$char_traits@D@std@@@std@@MEAAXAEBVlocale@2@@Z 000000018000d440 f i UploadFileTask.obj
 0001:0000c470       ??_G?$basic_istream@DU?$char_traits@D@std@@@std@@UEAAPEAXI@Z 000000018000d470 f i UploadFileTask.obj
 0001:0000c470       ??_E?$basic_istream@DU?$char_traits@D@std@@@std@@UEAAPEAXI@Z 000000018000d470 f i * CIL library *:* CIL module *
 0001:0000c4e0       ??_E?$basic_streambuf@DU?$char_traits@D@std@@@std@@UEAAPEAXI@Z 000000018000d4e0 f i * CIL library *:* CIL module *
 0001:0000c4e0       ??_G?$basic_streambuf@DU?$char_traits@D@std@@@std@@UEAAPEAXI@Z 000000018000d4e0 f i UploadFileTask.obj
 0001:0000c560       ??_G?$basic_ifstream@DU?$char_traits@D@std@@@std@@UEAAPEAXI@Z 000000018000d560 f i UploadFileTask.obj
 0001:0000c560       ??_E?$basic_ifstream@DU?$char_traits@D@std@@@std@@UEAAPEAXI@Z 000000018000d560 f i * CIL library *:* CIL module *
 0001:0000c5c0       ??_E?$basic_filebuf@DU?$char_traits@D@std@@@std@@UEAAPEAXI@Z 000000018000d5c0 f i * CIL library *:* CIL module *
 0001:0000c5c0       ??_G?$basic_filebuf@DU?$char_traits@D@std@@@std@@UEAAPEAXI@Z 000000018000d5c0 f i UploadFileTask.obj
 0001:0000c5f0       ?append@?$basic_string@DU?$char_traits@D@std@@V?$allocator@D@2@@std@@QEAAAEAV12@AEBV12@_K1@Z 000000018000d5f0 f i UploadFileTask.obj
 0001:0000c720       ?append@?$basic_string@DU?$char_traits@D@std@@V?$allocator@D@2@@std@@QEAAAEAV12@PEBD_K@Z 000000018000d720 f i UploadFileTask.obj
 0001:0000c870       ?append@?$basic_string@DU?$char_traits@D@std@@V?$allocator@D@2@@std@@QEAAAEAV12@_KD@Z 000000018000d870 f i UploadFileTask.obj
 0001:0000c980       ?init@?$basic_ios@DU?$char_traits@D@std@@@std@@IEAAXPEAV?$basic_streambuf@DU?$char_traits@D@std@@@2@_N@Z 000000018000d980 f i UploadFileTask.obj
 0001:0000ca20       ?_Gnavail@?$basic_streambuf@DU?$char_traits@D@std@@@std@@IEBA_JXZ 000000018000da20 f i UploadFileTask.obj
 0001:0000ca40       ?_Pnavail@?$basic_streambuf@DU?$char_traits@D@std@@@std@@IEBA_JXZ 000000018000da40 f i UploadFileTask.obj
 0001:0000ca60       ??0?$basic_filebuf@DU?$char_traits@D@std@@@std@@QEAA@PEAU_iobuf@@@Z 000000018000da60 f i UploadFileTask.obj
 0001:0000cb00       ?open@?$basic_filebuf@DU?$char_traits@D@std@@@std@@QEAAPEAV12@PEB_WHH@Z 000000018000db00 f i UploadFileTask.obj
 0001:0000cbb0       ?close@?$basic_filebuf@DU?$char_traits@D@std@@@std@@QEAAPEAV12@XZ 000000018000dbb0 f i UploadFileTask.obj
 0001:0000cc80       ?_Init@?$basic_filebuf@DU?$char_traits@D@std@@@std@@IEAAXPEAU_iobuf@@W4_Initfl@12@@Z 000000018000dc80 f i UploadFileTask.obj
 0001:0000cd30       ?_Endwrite@?$basic_filebuf@DU?$char_traits@D@std@@@std@@IEAA_NXZ 000000018000dd30 f i UploadFileTask.obj
 0001:0000cf70       ?_Initcvt@?$basic_filebuf@DU?$char_traits@D@std@@@std@@IEAAXPEBV?$codecvt@DDH@2@@Z 000000018000df70 f i UploadFileTask.obj
 0001:0000d010       ?_Reset_back@?$basic_filebuf@DU?$char_traits@D@std@@@std@@AEAAXXZ 000000018000e010 f i UploadFileTask.obj
 0001:0000d040       ?do_always_noconv@?$codecvt@DDH@std@@MEBA_NXZ 000000018000e040 f i UploadFileTask.obj
 0001:0000d050       ?do_in@?$codecvt@DDH@std@@MEBAHAEAHPEBD1AEAPEBDPEAD3AEAPEAD@Z 000000018000e050 f i UploadFileTask.obj
 0001:0000d050       ?do_out@?$codecvt@DDH@std@@MEBAHAEAHPEBD1AEAPEBDPEAD3AEAPEAD@Z 000000018000e050 f i UploadFileTask.obj
 0001:0000d070       ?do_unshift@?$codecvt@DDH@std@@MEBAHAEAHPEAD1AEAPEAD@Z 000000018000e070 f i UploadFileTask.obj
 0001:0000d080       ?do_length@?$codecvt@DDH@std@@MEBAHAEAHPEBD1_K@Z 000000018000e080 f i UploadFileTask.obj
 0001:0000d0a0       ??0?$basic_streambuf@DU?$char_traits@D@std@@@std@@IEAA@XZ 000000018000e0a0 f i UploadFileTask.obj
 0001:0000d150       ?flush@?$basic_ostream@DU?$char_traits@D@std@@@std@@QEAAAEAV12@XZ 000000018000e150 f i UploadFileTask.obj
 0001:0000d240       ?open@?$basic_filebuf@DU?$char_traits@D@std@@@std@@QEAAPEAV12@PEBDHH@Z 000000018000e240 f i UploadFileTask.obj
 0001:0000d2f0       ??$use_facet@V?$ctype@D@std@@@std@@YAAEBV?$ctype@D@0@AEBVlocale@0@@Z 000000018000e2f0 f i UploadFileTask.obj
 0001:0000d400       ??$use_facet@V?$codecvt@DDH@std@@@std@@YAAEBV?$codecvt@DDH@0@AEBVlocale@0@@Z 000000018000e400 f i UploadFileTask.obj
 0001:0000d510       ?_Getcat@?$codecvt@DDH@std@@SA_KPEAPEBVfacet@locale@2@PEBV42@@Z 000000018000e510 f i UploadFileTask.obj
 0001:0000d5cc       ??_E?$basic_ifstream@DU?$char_traits@D@std@@@std@@$4PPPPPPPM@A@EAAPEAXI@Z 000000018000e5cc f i UploadFileTask.obj
 0001:0000d5d8       ??_E?$basic_istream@DU?$char_traits@D@std@@@std@@$4PPPPPPPM@A@EAAPEAXI@Z 000000018000e5d8 f i UploadFileTask.obj
 0001:0000d5f0       ??_ECBaseThread@@UEAAPEAXI@Z 000000018000e5f0 f i * CIL library *:* CIL module *
 0001:0000d5f0       ??_GCBaseThread@@UEAAPEAXI@Z 000000018000e5f0 f i BaseThread.obj
 0001:0000d660       ?ThreadProc@CBaseThread@@SAIPEAX@Z 000000018000e660 f   BaseThread.obj
 0001:0000d670       ??0ReqTaskInfo@@QEAA@AEBU0@@Z 000000018000e670 f i AebellBusiThread.obj
 0001:0000d840       ??_G_Ref_count_base@std@@UEAAPEAXI@Z 000000018000e840 f i AebellBusiThread.obj
 0001:0000d840       ??_E?$_Ref_count@VCUploadFileTask@@@std@@UEAAPEAXI@Z 000000018000e840 f i * CIL library *:* CIL module *
 0001:0000d840       ??_E?$_Ref_count@VCBroadcastTask@@@std@@UEAAPEAXI@Z 000000018000e840 f i * CIL library *:* CIL module *
 0001:0000d840       ??_G?$_Ref_count@VCUploadFileTask@@@std@@UEAAPEAXI@Z 000000018000e840 f i AebellBusiThread.obj
 0001:0000d840       ??_G?$_Ref_count@VCBroadcastTask@@@std@@UEAAPEAXI@Z 000000018000e840 f i AebellBusiThread.obj
 0001:0000d840       ??_E_Ref_count_base@std@@UEAAPEAXI@Z 000000018000e840 f i * CIL library *:* CIL module *
 0001:0000d870       ?GetInstance@CAEBELLBusiThread@@SAAEAV1@XZ 000000018000e870 f   AebellBusiThread.obj
 0001:0000d8e0       ??0CAEBELLBusiThread@@AEAA@XZ 000000018000e8e0 f   AebellBusiThread.obj
 0001:0000dd30       ??_ECAEBELLBusiThread@@EEAAPEAXI@Z 000000018000ed30 f i * CIL library *:* CIL module *
 0001:0000dd30       ??_GCAEBELLBusiThread@@EEAAPEAXI@Z 000000018000ed30 f i AebellBusiThread.obj
 0001:0000dd60       ??1CAEBELLBusiThread@@EEAA@XZ 000000018000ed60 f   AebellBusiThread.obj
 0001:0000e080       ?run@CAEBELLBusiThread@@UEAAKXZ 000000018000f080 f   AebellBusiThread.obj
 0001:0000e2b0       ?DealTaskQueue@CAEBELLBusiThread@@AEAAXXZ 000000018000f2b0 f   AebellBusiThread.obj
 0001:0000e590       ?SetTaskTimeoutRes@CAEBELLBusiThread@@AEAAXXZ 000000018000f590 f   AebellBusiThread.obj
 0001:0000e730       ?DealBroadcastTask@CAEBELLBusiThread@@AEAAXAEAUBroadcastOperInfo@@@Z 000000018000f730 f   AebellBusiThread.obj
 0001:0000eda0       ?DealCallTask@CAEBELLBusiThread@@AEAAXAEAUCallOperInfo@@@Z 000000018000fda0 f   AebellBusiThread.obj
 0001:0000f1b0       ?DealAdjustVolumeTask@CAEBELLBusiThread@@AEAAXAEAUAdjustVolumeOperInfo@@@Z 00000001800101b0 f   AebellBusiThread.obj
 0001:0000f340       ?DealAddDeviceTask@CAEBELLBusiThread@@AEAAXAEAUAddDeviceOperInfo@@@Z 0000000180010340 f   AebellBusiThread.obj
 0001:0000f570       ?onAddDevAttachTask@CAEBELLBusiThread@@QEAAXAEAUAddDeviceOperInfo@@@Z 0000000180010570 f   AebellBusiThread.obj
 0001:0000f650       ?DealDelDeviceTask@CAEBELLBusiThread@@AEAAXAEAUDelOperInfo@@@Z 0000000180010650 f   AebellBusiThread.obj
 0001:0000fa50       ?DealStopBroadcastTask@CAEBELLBusiThread@@AEAAXAEAUStopOperInfo@@@Z 0000000180010a50 f   AebellBusiThread.obj
 0001:0000faf0       ?DealStopCallTask@CAEBELLBusiThread@@AEAAXAEAUStopOperInfo@@@Z 0000000180010af0 f   AebellBusiThread.obj
 0001:0000fb90       ?onAddPlanTask@CAEBELLBusiThread@@QEAAXAEAUAddUpdPlanOperInfo@@@Z 0000000180010b90 f   AebellBusiThread.obj
 0001:00010660       ?DealAddPlanTask@CAEBELLBusiThread@@AEAAXAEAUAddUpdPlanOperInfo@@@Z 0000000180011660 f   AebellBusiThread.obj
 0001:00010810       ?DealDelPlanTask@CAEBELLBusiThread@@AEAAXAEAUDelPlanOperInfo@@@Z 0000000180011810 f   AebellBusiThread.obj
 0001:000108d0       ?DealAddSessionDevTask@CAEBELLBusiThread@@AEAAXAEAUSessionDevOperInfo@@@Z 00000001800118d0 f   AebellBusiThread.obj
 0001:00010a10       ?DealDelSessionDevTask@CAEBELLBusiThread@@AEAAXAEAUSessionDevOperInfo@@@Z 0000000180011a10 f   AebellBusiThread.obj
 0001:00010b50       ?onCurTaskFinish@CAEBELLBusiThread@@QEAAX_N@Z 0000000180011b50 f   AebellBusiThread.obj
 0001:00010d10       ?onGetFileFinish@CAEBELLBusiThread@@QEAAXUResFileInfo@@_N@Z 0000000180011d10 f   AebellBusiThread.obj
 0001:00010ef0       ?onDeviceRemoveFinish@CAEBELLBusiThread@@QEAAXH_N@Z 0000000180011ef0 f   AebellBusiThread.obj
 0001:000110b0       ?onDeviceAddFinish@CAEBELLBusiThread@@QEAAXH_N@Z 00000001800120b0 f   AebellBusiThread.obj
 0001:00011480       ?onAddPlanFinish@CAEBELLBusiThread@@QEAAX_N@Z 0000000180012480 f   AebellBusiThread.obj
 0001:000115c0       ?onAddPlanTaskFinish@CAEBELLBusiThread@@QEAAX_N@Z 00000001800125c0 f   AebellBusiThread.obj
 0001:000116a0       ?getTaskResInfo@CAEBELLBusiThread@@QEAA?AUResTaskInfo@@_K@Z 00000001800126a0 f   AebellBusiThread.obj
 0001:000117b0       ?removeTaskPtrByID@CAEBELLBusiThread@@QEAAX_K@Z 00000001800127b0 f   AebellBusiThread.obj
 0001:00011850       ?GetAllNetDevices@CAEBELLBusiThread@@QEAAXAEBV?$vector@U_tagNetDevice@@V?$allocator@U_tagNetDevice@@@std@@@std@@@Z 0000000180012850 f   AebellBusiThread.obj
 0001:00011b90       ?GetDeviceAttachInfo@CAEBELLBusiThread@@QEAAXAEBV?$vector@U_tagNetDeviceAttach@@V?$allocator@U_tagNetDeviceAttach@@@std@@@std@@@Z 0000000180012b90 f   AebellBusiThread.obj
 0001:000121c0       ?GetPhoneNumByIP@CAEBELLBusiThread@@QEAA_NAEAV?$basic_string@DU?$char_traits@D@std@@V?$allocator@D@2@@std@@AEAG@Z 00000001800131c0 f   AebellBusiThread.obj
 0001:00012450       ?GetIPByPhoneNum@CAEBELLBusiThread@@QEAA_NAEAGAEAV?$basic_string@DU?$char_traits@D@std@@V?$allocator@D@2@@std@@@Z 0000000180013450 f   AebellBusiThread.obj
 0001:00012700       ?startModule@CAEBELLBusiThread@@QEAAXXZ 0000000180013700 f   AebellBusiThread.obj
 0001:00012820       ?queryAllFileTask@CAEBELLBusiThread@@QEAAX_K@Z 0000000180013820 f   AebellBusiThread.obj
 0001:00012b90       ?startBroadcastTask@CAEBELLBusiThread@@QEAAX_KAEAUBroadcastOperInfo@@@Z 0000000180013b90 f   AebellBusiThread.obj
 0001:00012cc0       ?startCallTask@CAEBELLBusiThread@@QEAAX_KAEAUCallOperInfo@@@Z 0000000180013cc0 f   AebellBusiThread.obj
 0001:00012df0       ?stopBroadcastTask@CAEBELLBusiThread@@QEAAX_KAEAUStopOperInfo@@@Z 0000000180013df0 f   AebellBusiThread.obj
 0001:00012f40       ?stopCallTask@CAEBELLBusiThread@@QEAAX_KAEAUStopOperInfo@@@Z 0000000180013f40 f   AebellBusiThread.obj
 0001:00013090       ?adjustVolumeTask@CAEBELLBusiThread@@QEAAX_KAEAUAdjustVolumeOperInfo@@@Z 0000000180014090 f   AebellBusiThread.obj
 0001:000131e0       ?addDeviceTask@CAEBELLBusiThread@@QEAAX_KAEAUAddDeviceOperInfo@@@Z 00000001800141e0 f   AebellBusiThread.obj
 0001:000133d0       ?updateDeviceTask@CAEBELLBusiThread@@QEAAX_KAEAUAddDeviceOperInfo@@@Z 00000001800143d0 f   AebellBusiThread.obj
 0001:000135c0       ?delDeviceTask@CAEBELLBusiThread@@QEAAX_KAEAUDelOperInfo@@@Z 00000001800145c0 f   AebellBusiThread.obj
 0001:00013710       ?uploadFileTask@CAEBELLBusiThread@@QEAAX_KAEAUUploadFileOperInfo@@@Z 0000000180014710 f   AebellBusiThread.obj
 0001:00013a10       ?addPlanTask@CAEBELLBusiThread@@QEAAX_KAEAUAddUpdPlanOperInfo@@@Z 0000000180014a10 f   AebellBusiThread.obj
 0001:00013bc0       ?updatePlanTask@CAEBELLBusiThread@@QEAAX_KAEAUAddUpdPlanOperInfo@@@Z 0000000180014bc0 f   AebellBusiThread.obj
 0001:00013d70       ?delPlanTask@CAEBELLBusiThread@@QEAAX_KAEAUDelPlanOperInfo@@@Z 0000000180014d70 f   AebellBusiThread.obj
 0001:00013ec0       ?addSessionDevTask@CAEBELLBusiThread@@QEAAX_KAEAUSessionDevOperInfo@@@Z 0000000180014ec0 f   AebellBusiThread.obj
 0001:00014030       ?delSessionDevTask@CAEBELLBusiThread@@QEAAX_KAEAUSessionDevOperInfo@@@Z 0000000180015030 f   AebellBusiThread.obj
 0001:000141a0       ?GetAllFileCB@CAEBELLBusiThread@@QEAAXAEBV?$vector@U_tagNetFile@@V?$allocator@U_tagNetFile@@@std@@@std@@@Z 00000001800151a0 f   AebellBusiThread.obj
 0001:00014610       ?GetFileFullNameByID@CAEBELLBusiThread@@AEAA_NHAEAV?$basic_string@DU?$char_traits@D@std@@V?$allocator@D@2@@std@@@Z 0000000180015610 f   AebellBusiThread.obj
 0001:000146d0       ?GetUsefulPhoneNum@CAEBELLBusiThread@@AEAAGXZ 00000001800156d0 f   AebellBusiThread.obj
 0001:00014750       ?GetAllPolicyCB@CAEBELLBusiThread@@QEAAXAEBV?$vector@U_tagTaskPolicy@@V?$allocator@U_tagTaskPolicy@@@std@@@std@@@Z 0000000180015750 f   AebellBusiThread.obj
 0001:00014990       ?AutoPolicyStatusCB@CAEBELLBusiThread@@QEAAXU_tagPolicyStatus@@@Z 0000000180015990 f   AebellBusiThread.obj
 0001:00014af0       ?DeviceStatusCB@CAEBELLBusiThread@@QEAAXAEBV?$vector@U_tagDeviceStatus@@V?$allocator@U_tagDeviceStatus@@@std@@@std@@_N@Z 0000000180015af0 f   AebellBusiThread.obj
 0001:00014bf0       ?GetSessionIDByPhoneNum@CAEBELLBusiThread@@AEAAGG@Z 0000000180015bf0 f   AebellBusiThread.obj
 0001:00014ca0       ?GetGuidByPhoneNum@CAEBELLBusiThread@@AEAA?AV?$basic_string@DU?$char_traits@D@std@@V?$allocator@D@2@@std@@G@Z 0000000180015ca0 f   AebellBusiThread.obj
 0001:00014dd0       ?GetPlanIDByName@CAEBELLBusiThread@@QEAA?AV?$basic_string@DU?$char_traits@D@std@@V?$allocator@D@2@@std@@AEBV23@@Z 0000000180015dd0 f   AebellBusiThread.obj
 0001:00014eb0       ?onAddNewDevice@CAEBELLBusiThread@@QEAAXAEAV?$basic_string@DU?$char_traits@D@std@@V?$allocator@D@2@@std@@0@Z 0000000180015eb0 f   AebellBusiThread.obj
 0001:00014f40       ?compare@?$basic_string@DU?$char_traits@D@std@@V?$allocator@D@2@@std@@QEBAHAEBV12@@Z 0000000180015f40 f i AebellBusiThread.obj
 0001:00014fc0       ??4?$vector@UFileInfo@@V?$allocator@UFileInfo@@@std@@@std@@QEAAAEAV01@AEBV01@@Z 0000000180015fc0 f i AebellBusiThread.obj
 0001:00015190       ??0?$map@V?$basic_string@DU?$char_traits@D@std@@V?$allocator@D@2@@std@@V12@U?$less@V?$basic_string@DU?$char_traits@D@std@@V?$allocator@D@2@@std@@@2@V?$allocator@U?$pair@$$CBV?$basic_string@DU?$char_traits@D@std@@V?$allocator@D@2@@std@@V12@@std@@@2@@std@@QEAA@XZ 0000000180016190 f i AebellBusiThread.obj
 0001:000151f0       ??A?$map@V?$basic_string@DU?$char_traits@D@std@@V?$allocator@D@2@@std@@V12@U?$less@V?$basic_string@DU?$char_traits@D@std@@V?$allocator@D@2@@std@@@2@V?$allocator@U?$pair@$$CBV?$basic_string@DU?$char_traits@D@std@@V?$allocator@D@2@@std@@V12@@std@@@2@@std@@QEAAAEAV?$basic_string@DU?$char_traits@D@std@@V?$allocator@D@2@@1@AEBV21@@Z 00000001800161f0 f i AebellBusiThread.obj
 0001:000152f0       ?erase@?$_Tree@V?$_Tmap_traits@V?$basic_string@DU?$char_traits@D@std@@V?$allocator@D@2@@std@@V12@U?$less@V?$basic_string@DU?$char_traits@D@std@@V?$allocator@D@2@@std@@@2@V?$allocator@U?$pair@$$CBV?$basic_string@DU?$char_traits@D@std@@V?$allocator@D@2@@std@@V12@@std@@@2@$0A@@std@@@std@@QEAA?AV?$_Tree_iterator@V?$_Tree_val@U?$_Tree_simple_types@U?$pair@$$CBV?$basic_string@DU?$char_traits@D@std@@V?$allocator@D@2@@std@@V12@@std@@@std@@@std@@@2@V?$_Tree_const_iterator@V?$_Tree_val@U?$_Tree_simple_types@U?$pair@$$CBV?$basic_string@DU?$char_traits@D@std@@V?$allocator@D@2@@std@@V12@@std@@@std@@@std@@@2@@Z 00000001800162f0 f i AebellBusiThread.obj
 0001:00015750       ?erase@?$_Tree@V?$_Tmap_traits@V?$basic_string@DU?$char_traits@D@std@@V?$allocator@D@2@@std@@V12@U?$less@V?$basic_string@DU?$char_traits@D@std@@V?$allocator@D@2@@std@@@2@V?$allocator@U?$pair@$$CBV?$basic_string@DU?$char_traits@D@std@@V?$allocator@D@2@@std@@V12@@std@@@2@$0A@@std@@@std@@QEAA_KAEBV?$basic_string@DU?$char_traits@D@std@@V?$allocator@D@2@@2@@Z 0000000180016750 f i AebellBusiThread.obj
 0001:000157f0       ??A?$map@V?$basic_string@DU?$char_traits@D@std@@V?$allocator@D@2@@std@@GU?$less@V?$basic_string@DU?$char_traits@D@std@@V?$allocator@D@2@@std@@@2@V?$allocator@U?$pair@$$CBV?$basic_string@DU?$char_traits@D@std@@V?$allocator@D@2@@std@@G@std@@@2@@std@@QEAAAEAGAEBV?$basic_string@DU?$char_traits@D@std@@V?$allocator@D@2@@1@@Z 00000001800167f0 f i AebellBusiThread.obj
 0001:000158e0       ?erase@?$_Tree@V?$_Tmap_traits@V?$basic_string@DU?$char_traits@D@std@@V?$allocator@D@2@@std@@HU?$less@V?$basic_string@DU?$char_traits@D@std@@V?$allocator@D@2@@std@@@2@V?$allocator@U?$pair@$$CBV?$basic_string@DU?$char_traits@D@std@@V?$allocator@D@2@@std@@H@std@@@2@$0A@@std@@@std@@QEAA?AV?$_Tree_iterator@V?$_Tree_val@U?$_Tree_simple_types@U?$pair@$$CBV?$basic_string@DU?$char_traits@D@std@@V?$allocator@D@2@@std@@H@std@@@std@@@std@@@2@V?$_Tree_const_iterator@V?$_Tree_val@U?$_Tree_simple_types@U?$pair@$$CBV?$basic_string@DU?$char_traits@D@std@@V?$allocator@D@2@@std@@H@std@@@std@@@std@@@2@@Z 00000001800168e0 f i AebellBusiThread.obj
 0001:000158e0       ?erase@?$_Tree@V?$_Tmap_traits@V?$basic_string@DU?$char_traits@D@std@@V?$allocator@D@2@@std@@GU?$less@V?$basic_string@DU?$char_traits@D@std@@V?$allocator@D@2@@std@@@2@V?$allocator@U?$pair@$$CBV?$basic_string@DU?$char_traits@D@std@@V?$allocator@D@2@@std@@G@std@@@2@$0A@@std@@@std@@QEAA?AV?$_Tree_iterator@V?$_Tree_val@U?$_Tree_simple_types@U?$pair@$$CBV?$basic_string@DU?$char_traits@D@std@@V?$allocator@D@2@@std@@G@std@@@std@@@std@@@2@V?$_Tree_const_iterator@V?$_Tree_val@U?$_Tree_simple_types@U?$pair@$$CBV?$basic_string@DU?$char_traits@D@std@@V?$allocator@D@2@@std@@G@std@@@std@@@std@@@2@@Z 00000001800168e0 f i AebellBusiThread.obj
 0001:00015d20       ?erase@?$_Tree@V?$_Tmap_traits@_KV?$shared_ptr@VCBroadcastTask@@@std@@U?$less@_K@2@V?$allocator@U?$pair@$$CB_KV?$shared_ptr@VCBroadcastTask@@@std@@@std@@@2@$0A@@std@@@std@@QEAA?AV?$_Tree_iterator@V?$_Tree_val@U?$_Tree_simple_types@U?$pair@$$CB_KV?$shared_ptr@VCBroadcastTask@@@std@@@std@@@std@@@std@@@2@V?$_Tree_const_iterator@V?$_Tree_val@U?$_Tree_simple_types@U?$pair@$$CB_KV?$shared_ptr@VCBroadcastTask@@@std@@@std@@@std@@@std@@@2@@Z 0000000180016d20 f i AebellBusiThread.obj
 0001:00016160       ??A?$map@_KUResTaskInfo@@U?$less@_K@std@@V?$allocator@U?$pair@$$CB_KUResTaskInfo@@@std@@@3@@std@@QEAAAEAUResTaskInfo@@AEB_K@Z 0000000180017160 f i AebellBusiThread.obj
 0001:000162a0       ?erase@?$_Tree@V?$_Tmap_traits@_KUResTaskInfo@@U?$less@_K@std@@V?$allocator@U?$pair@$$CB_KUResTaskInfo@@@std@@@3@$0A@@std@@@std@@QEAA?AV?$_Tree_iterator@V?$_Tree_val@U?$_Tree_simple_types@U?$pair@$$CB_KUResTaskInfo@@@std@@@std@@@std@@@2@V?$_Tree_const_iterator@V?$_Tree_val@U?$_Tree_simple_types@U?$pair@$$CB_KUResTaskInfo@@@std@@@std@@@std@@@2@@Z 00000001800172a0 f i AebellBusiThread.obj
 0001:00016750       ??0?$map@V?$basic_string@DU?$char_traits@D@std@@V?$allocator@D@2@@std@@V?$map@V?$basic_string@DU?$char_traits@D@std@@V?$allocator@D@2@@std@@V12@U?$less@V?$basic_string@DU?$char_traits@D@std@@V?$allocator@D@2@@std@@@2@V?$allocator@U?$pair@$$CBV?$basic_string@DU?$char_traits@D@std@@V?$allocator@D@2@@std@@V12@@std@@@2@@2@U?$less@V?$basic_string@DU?$char_traits@D@std@@V?$allocator@D@2@@std@@@2@V?$allocator@U?$pair@$$CBV?$basic_string@DU?$char_traits@D@std@@V?$allocator@D@2@@std@@V?$map@V?$basic_string@DU?$char_traits@D@std@@V?$allocator@D@2@@std@@V12@U?$less@V?$basic_string@DU?$char_traits@D@std@@V?$allocator@D@2@@std@@@2@V?$allocator@U?$pair@$$CBV?$basic_string@DU?$char_traits@D@std@@V?$allocator@D@2@@std@@V12@@std@@@2@@2@@std@@@2@@std@@QEAA@XZ 0000000180017750 f i AebellBusiThread.obj
 0001:000167b0       ??0?$map@GGU?$less@G@std@@V?$allocator@U?$pair@$$CBGG@std@@@2@@std@@QEAA@XZ 00000001800177b0 f i AebellBusiThread.obj
 0001:00016810       ??A?$map@GGU?$less@G@std@@V?$allocator@U?$pair@$$CBGG@std@@@2@@std@@QEAAAEAGAEBG@Z 0000000180017810 f i AebellBusiThread.obj
 0001:000168f0       ?clear@?$_Tree@V?$_Tmap_traits@GHU?$less@G@std@@V?$allocator@U?$pair@$$CBGH@std@@@2@$0A@@std@@@std@@QEAAXXZ 00000001800178f0 f i AebellBusiThread.obj
 0001:000168f0       ?clear@?$_Tree@V?$_Tmap_traits@GGU?$less@G@std@@V?$allocator@U?$pair@$$CBGG@std@@@2@$0A@@std@@@std@@QEAAXXZ 00000001800178f0 f i AebellBusiThread.obj
 0001:00016960       ??0?$map@GHU?$less@G@std@@V?$allocator@U?$pair@$$CBGH@std@@@2@@std@@QEAA@XZ 0000000180017960 f i AebellBusiThread.obj
 0001:000169c0       ??A?$map@GHU?$less@G@std@@V?$allocator@U?$pair@$$CBGH@std@@@2@@std@@QEAAAEAHAEBG@Z 00000001800179c0 f i AebellBusiThread.obj
 0001:00016aa0       ?_Reserve@?$vector@U_tagPlayTaskFile@@V?$allocator@U_tagPlayTaskFile@@@std@@@std@@IEAAX_K@Z 0000000180017aa0 f i AebellBusiThread.obj
 0001:00016b70       ?erase@?$_Tree@V?$_Tmap_traits@V?$basic_string@DU?$char_traits@D@std@@V?$allocator@D@2@@std@@V12@U?$less@V?$basic_string@DU?$char_traits@D@std@@V?$allocator@D@2@@std@@@2@V?$allocator@U?$pair@$$CBV?$basic_string@DU?$char_traits@D@std@@V?$allocator@D@2@@std@@V12@@std@@@2@$0A@@std@@@std@@QEAA?AV?$_Tree_iterator@V?$_Tree_val@U?$_Tree_simple_types@U?$pair@$$CBV?$basic_string@DU?$char_traits@D@std@@V?$allocator@D@2@@std@@V12@@std@@@std@@@std@@@2@V?$_Tree_const_iterator@V?$_Tree_val@U?$_Tree_simple_types@U?$pair@$$CBV?$basic_string@DU?$char_traits@D@std@@V?$allocator@D@2@@std@@V12@@std@@@std@@@std@@@2@0@Z 0000000180017b70 f i AebellBusiThread.obj
 0001:00016c70       ?_Erase@?$_Tree@V?$_Tmap_traits@V?$basic_string@DU?$char_traits@D@std@@V?$allocator@D@2@@std@@V12@U?$less@V?$basic_string@DU?$char_traits@D@std@@V?$allocator@D@2@@std@@@2@V?$allocator@U?$pair@$$CBV?$basic_string@DU?$char_traits@D@std@@V?$allocator@D@2@@std@@V12@@std@@@2@$0A@@std@@@std@@IEAAXPEAU?$_Tree_node@U?$pair@$$CBV?$basic_string@DU?$char_traits@D@std@@V?$allocator@D@2@@std@@V12@@std@@PEAX@2@@Z 0000000180017c70 f i AebellBusiThread.obj
 0001:00016d20       ?_Lrotate@?$_Tree@V?$_Tmap_traits@HV?$basic_string@DU?$char_traits@D@std@@V?$allocator@D@2@@std@@U?$less@H@2@V?$allocator@U?$pair@$$CBHV?$basic_string@DU?$char_traits@D@std@@V?$allocator@D@2@@std@@@std@@@2@$0A@@std@@@std@@IEAAXPEAU?$_Tree_node@U?$pair@$$CBHV?$basic_string@DU?$char_traits@D@std@@V?$allocator@D@2@@std@@@std@@PEAX@2@@Z 0000000180017d20 f i AebellBusiThread.obj
 0001:00016d20       ?_Lrotate@?$_Tree@V?$_Tmap_traits@GHU?$less@G@std@@V?$allocator@U?$pair@$$CBGH@std@@@2@$0A@@std@@@std@@IEAAXPEAU?$_Tree_node@U?$pair@$$CBGH@std@@PEAX@2@@Z 0000000180017d20 f i AebellBusiThread.obj
 0001:00016d20       ?_Lrotate@?$_Tree@V?$_Tmap_traits@V?$basic_string@DU?$char_traits@D@std@@V?$allocator@D@2@@std@@V12@U?$less@V?$basic_string@DU?$char_traits@D@std@@V?$allocator@D@2@@std@@@2@V?$allocator@U?$pair@$$CBV?$basic_string@DU?$char_traits@D@std@@V?$allocator@D@2@@std@@V12@@std@@@2@$0A@@std@@@std@@IEAAXPEAU?$_Tree_node@U?$pair@$$CBV?$basic_string@DU?$char_traits@D@std@@V?$allocator@D@2@@std@@V12@@std@@PEAX@2@@Z 0000000180017d20 f i AebellBusiThread.obj
 0001:00016d20       ?_Lrotate@?$_Tree@V?$_Tmap_traits@_KUResTaskInfo@@U?$less@_K@std@@V?$allocator@U?$pair@$$CB_KUResTaskInfo@@@std@@@3@$0A@@std@@@std@@IEAAXPEAU?$_Tree_node@U?$pair@$$CB_KUResTaskInfo@@@std@@PEAX@2@@Z 0000000180017d20 f i AebellBusiThread.obj
 0001:00016d20       ?_Lrotate@?$_Tree@V?$_Tmap_traits@V?$basic_string@DU?$char_traits@D@std@@V?$allocator@D@2@@std@@V?$map@V?$basic_string@DU?$char_traits@D@std@@V?$allocator@D@2@@std@@V12@U?$less@V?$basic_string@DU?$char_traits@D@std@@V?$allocator@D@2@@std@@@2@V?$allocator@U?$pair@$$CBV?$basic_string@DU?$char_traits@D@std@@V?$allocator@D@2@@std@@V12@@std@@@2@@2@U?$less@V?$basic_string@DU?$char_traits@D@std@@V?$allocator@D@2@@std@@@2@V?$allocator@U?$pair@$$CBV?$basic_string@DU?$char_traits@D@std@@V?$allocator@D@2@@std@@V?$map@V?$basic_string@DU?$char_traits@D@std@@V?$allocator@D@2@@std@@V12@U?$less@V?$basic_string@DU?$char_traits@D@std@@V?$allocator@D@2@@std@@@2@V?$allocator@U?$pair@$$CBV?$basic_string@DU?$char_traits@D@std@@V?$allocator@D@2@@std@@V12@@std@@@2@@2@@std@@@2@$0A@@std@@@std@@IEAAXPEAU?$_Tree_node@U?$pair@$$CBV?$basic_string@DU?$char_traits@D@std@@V?$allocator@D@2@@std@@V?$map@V?$basic_string@DU?$char_traits@D@std@@V?$allocator@D@2@@std@@V12@U?$less@V?$basic_string@DU?$char_traits@D@std@@V?$allocator@D@2@@std@@@2@V?$allocator@U?$pair@$$CBV?$basic_string@DU?$char_traits@D@std@@V?$allocator@D@2@@std@@V12@@std@@@2@@2@@std@@PEAX@2@@Z 0000000180017d20 f i AebellBusiThread.obj
 0001:00016d20       ?_Lrotate@?$_Tree@V?$_Tmap_traits@V?$basic_string@DU?$char_traits@D@std@@V?$allocator@D@2@@std@@HU?$less@V?$basic_string@DU?$char_traits@D@std@@V?$allocator@D@2@@std@@@2@V?$allocator@U?$pair@$$CBV?$basic_string@DU?$char_traits@D@std@@V?$allocator@D@2@@std@@H@std@@@2@$0A@@std@@@std@@IEAAXPEAU?$_Tree_node@U?$pair@$$CBV?$basic_string@DU?$char_traits@D@std@@V?$allocator@D@2@@std@@H@std@@PEAX@2@@Z 0000000180017d20 f i AebellBusiThread.obj
 0001:00016d20       ?_Lrotate@?$_Tree@V?$_Tmap_traits@V?$basic_string@DU?$char_traits@D@std@@V?$allocator@D@2@@std@@GU?$less@V?$basic_string@DU?$char_traits@D@std@@V?$allocator@D@2@@std@@@2@V?$allocator@U?$pair@$$CBV?$basic_string@DU?$char_traits@D@std@@V?$allocator@D@2@@std@@G@std@@@2@$0A@@std@@@std@@IEAAXPEAU?$_Tree_node@U?$pair@$$CBV?$basic_string@DU?$char_traits@D@std@@V?$allocator@D@2@@std@@G@std@@PEAX@2@@Z 0000000180017d20 f i AebellBusiThread.obj
 0001:00016d20       ?_Lrotate@?$_Tree@V?$_Tmap_traits@_KV?$shared_ptr@VCBroadcastTask@@@std@@U?$less@_K@2@V?$allocator@U?$pair@$$CB_KV?$shared_ptr@VCBroadcastTask@@@std@@@std@@@2@$0A@@std@@@std@@IEAAXPEAU?$_Tree_node@U?$pair@$$CB_KV?$shared_ptr@VCBroadcastTask@@@std@@@std@@PEAX@2@@Z 0000000180017d20 f i AebellBusiThread.obj
 0001:00016d20       ?_Lrotate@?$_Tree@V?$_Tmap_traits@GGU?$less@G@std@@V?$allocator@U?$pair@$$CBGG@std@@@2@$0A@@std@@@std@@IEAAXPEAU?$_Tree_node@U?$pair@$$CBGG@std@@PEAX@2@@Z 0000000180017d20 f i AebellBusiThread.obj
 0001:00016d20       ?_Lrotate@?$_Tree@V?$_Tmap_traits@GV?$basic_string@DU?$char_traits@D@std@@V?$allocator@D@2@@std@@U?$less@G@2@V?$allocator@U?$pair@$$CBGV?$basic_string@DU?$char_traits@D@std@@V?$allocator@D@2@@std@@@std@@@2@$0A@@std@@@std@@IEAAXPEAU?$_Tree_node@U?$pair@$$CBGV?$basic_string@DU?$char_traits@D@std@@V?$allocator@D@2@@std@@@std@@PEAX@2@@Z 0000000180017d20 f i AebellBusiThread.obj
 0001:00016d80       ?_Rrotate@?$_Tree@V?$_Tmap_traits@V?$basic_string@DU?$char_traits@D@std@@V?$allocator@D@2@@std@@GU?$less@V?$basic_string@DU?$char_traits@D@std@@V?$allocator@D@2@@std@@@2@V?$allocator@U?$pair@$$CBV?$basic_string@DU?$char_traits@D@std@@V?$allocator@D@2@@std@@G@std@@@2@$0A@@std@@@std@@IEAAXPEAU?$_Tree_node@U?$pair@$$CBV?$basic_string@DU?$char_traits@D@std@@V?$allocator@D@2@@std@@G@std@@PEAX@2@@Z 0000000180017d80 f i AebellBusiThread.obj
 0001:00016d80       ?_Rrotate@?$_Tree@V?$_Tmap_traits@GHU?$less@G@std@@V?$allocator@U?$pair@$$CBGH@std@@@2@$0A@@std@@@std@@IEAAXPEAU?$_Tree_node@U?$pair@$$CBGH@std@@PEAX@2@@Z 0000000180017d80 f i AebellBusiThread.obj
 0001:00016d80       ?_Rrotate@?$_Tree@V?$_Tmap_traits@_KUResTaskInfo@@U?$less@_K@std@@V?$allocator@U?$pair@$$CB_KUResTaskInfo@@@std@@@3@$0A@@std@@@std@@IEAAXPEAU?$_Tree_node@U?$pair@$$CB_KUResTaskInfo@@@std@@PEAX@2@@Z 0000000180017d80 f i AebellBusiThread.obj
 0001:00016d80       ?_Rrotate@?$_Tree@V?$_Tmap_traits@HV?$basic_string@DU?$char_traits@D@std@@V?$allocator@D@2@@std@@U?$less@H@2@V?$allocator@U?$pair@$$CBHV?$basic_string@DU?$char_traits@D@std@@V?$allocator@D@2@@std@@@std@@@2@$0A@@std@@@std@@IEAAXPEAU?$_Tree_node@U?$pair@$$CBHV?$basic_string@DU?$char_traits@D@std@@V?$allocator@D@2@@std@@@std@@PEAX@2@@Z 0000000180017d80 f i AebellBusiThread.obj
 0001:00016d80       ?_Rrotate@?$_Tree@V?$_Tmap_traits@V?$basic_string@DU?$char_traits@D@std@@V?$allocator@D@2@@std@@V?$map@V?$basic_string@DU?$char_traits@D@std@@V?$allocator@D@2@@std@@V12@U?$less@V?$basic_string@DU?$char_traits@D@std@@V?$allocator@D@2@@std@@@2@V?$allocator@U?$pair@$$CBV?$basic_string@DU?$char_traits@D@std@@V?$allocator@D@2@@std@@V12@@std@@@2@@2@U?$less@V?$basic_string@DU?$char_traits@D@std@@V?$allocator@D@2@@std@@@2@V?$allocator@U?$pair@$$CBV?$basic_string@DU?$char_traits@D@std@@V?$allocator@D@2@@std@@V?$map@V?$basic_string@DU?$char_traits@D@std@@V?$allocator@D@2@@std@@V12@U?$less@V?$basic_string@DU?$char_traits@D@std@@V?$allocator@D@2@@std@@@2@V?$allocator@U?$pair@$$CBV?$basic_string@DU?$char_traits@D@std@@V?$allocator@D@2@@std@@V12@@std@@@2@@2@@std@@@2@$0A@@std@@@std@@IEAAXPEAU?$_Tree_node@U?$pair@$$CBV?$basic_string@DU?$char_traits@D@std@@V?$allocator@D@2@@std@@V?$map@V?$basic_string@DU?$char_traits@D@std@@V?$allocator@D@2@@std@@V12@U?$less@V?$basic_string@DU?$char_traits@D@std@@V?$allocator@D@2@@std@@@2@V?$allocator@U?$pair@$$CBV?$basic_string@DU?$char_traits@D@std@@V?$allocator@D@2@@std@@V12@@std@@@2@@2@@std@@PEAX@2@@Z 0000000180017d80 f i AebellBusiThread.obj
 0001:00016d80       ?_Rrotate@?$_Tree@V?$_Tmap_traits@_KV?$shared_ptr@VCBroadcastTask@@@std@@U?$less@_K@2@V?$allocator@U?$pair@$$CB_KV?$shared_ptr@VCBroadcastTask@@@std@@@std@@@2@$0A@@std@@@std@@IEAAXPEAU?$_Tree_node@U?$pair@$$CB_KV?$shared_ptr@VCBroadcastTask@@@std@@@std@@PEAX@2@@Z 0000000180017d80 f i AebellBusiThread.obj
 0001:00016d80       ?_Rrotate@?$_Tree@V?$_Tmap_traits@V?$basic_string@DU?$char_traits@D@std@@V?$allocator@D@2@@std@@V12@U?$less@V?$basic_string@DU?$char_traits@D@std@@V?$allocator@D@2@@std@@@2@V?$allocator@U?$pair@$$CBV?$basic_string@DU?$char_traits@D@std@@V?$allocator@D@2@@std@@V12@@std@@@2@$0A@@std@@@std@@IEAAXPEAU?$_Tree_node@U?$pair@$$CBV?$basic_string@DU?$char_traits@D@std@@V?$allocator@D@2@@std@@V12@@std@@PEAX@2@@Z 0000000180017d80 f i AebellBusiThread.obj
 0001:00016d80       ?_Rrotate@?$_Tree@V?$_Tmap_traits@GV?$basic_string@DU?$char_traits@D@std@@V?$allocator@D@2@@std@@U?$less@G@2@V?$allocator@U?$pair@$$CBGV?$basic_string@DU?$char_traits@D@std@@V?$allocator@D@2@@std@@@std@@@2@$0A@@std@@@std@@IEAAXPEAU?$_Tree_node@U?$pair@$$CBGV?$basic_string@DU?$char_traits@D@std@@V?$allocator@D@2@@std@@@std@@PEAX@2@@Z 0000000180017d80 f i AebellBusiThread.obj
 0001:00016d80       ?_Rrotate@?$_Tree@V?$_Tmap_traits@V?$basic_string@DU?$char_traits@D@std@@V?$allocator@D@2@@std@@HU?$less@V?$basic_string@DU?$char_traits@D@std@@V?$allocator@D@2@@std@@@2@V?$allocator@U?$pair@$$CBV?$basic_string@DU?$char_traits@D@std@@V?$allocator@D@2@@std@@H@std@@@2@$0A@@std@@@std@@IEAAXPEAU?$_Tree_node@U?$pair@$$CBV?$basic_string@DU?$char_traits@D@std@@V?$allocator@D@2@@std@@H@std@@PEAX@2@@Z 0000000180017d80 f i AebellBusiThread.obj
 0001:00016d80       ?_Rrotate@?$_Tree@V?$_Tmap_traits@GGU?$less@G@std@@V?$allocator@U?$pair@$$CBGG@std@@@2@$0A@@std@@@std@@IEAAXPEAU?$_Tree_node@U?$pair@$$CBGG@std@@PEAX@2@@Z 0000000180017d80 f i AebellBusiThread.obj
 0001:00016de0       ?_Erase@?$_Tree@V?$_Tmap_traits@V?$basic_string@DU?$char_traits@D@std@@V?$allocator@D@2@@std@@HU?$less@V?$basic_string@DU?$char_traits@D@std@@V?$allocator@D@2@@std@@@2@V?$allocator@U?$pair@$$CBV?$basic_string@DU?$char_traits@D@std@@V?$allocator@D@2@@std@@H@std@@@2@$0A@@std@@@std@@IEAAXPEAU?$_Tree_node@U?$pair@$$CBV?$basic_string@DU?$char_traits@D@std@@V?$allocator@D@2@@std@@H@std@@PEAX@2@@Z 0000000180017de0 f i AebellBusiThread.obj
 0001:00016de0       ?_Erase@?$_Tree@V?$_Tmap_traits@V?$basic_string@DU?$char_traits@D@std@@V?$allocator@D@2@@std@@GU?$less@V?$basic_string@DU?$char_traits@D@std@@V?$allocator@D@2@@std@@@2@V?$allocator@U?$pair@$$CBV?$basic_string@DU?$char_traits@D@std@@V?$allocator@D@2@@std@@G@std@@@2@$0A@@std@@@std@@IEAAXPEAU?$_Tree_node@U?$pair@$$CBV?$basic_string@DU?$char_traits@D@std@@V?$allocator@D@2@@std@@G@std@@PEAX@2@@Z 0000000180017de0 f i AebellBusiThread.obj
 0001:00016e70       ?_Erase@?$_Tree@V?$_Tmap_traits@HV?$basic_string@DU?$char_traits@D@std@@V?$allocator@D@2@@std@@U?$less@H@2@V?$allocator@U?$pair@$$CBHV?$basic_string@DU?$char_traits@D@std@@V?$allocator@D@2@@std@@@std@@@2@$0A@@std@@@std@@IEAAXPEAU?$_Tree_node@U?$pair@$$CBHV?$basic_string@DU?$char_traits@D@std@@V?$allocator@D@2@@std@@@std@@PEAX@2@@Z 0000000180017e70 f i AebellBusiThread.obj
 0001:00016e70       ?_Erase@?$_Tree@V?$_Tmap_traits@GV?$basic_string@DU?$char_traits@D@std@@V?$allocator@D@2@@std@@U?$less@G@2@V?$allocator@U?$pair@$$CBGV?$basic_string@DU?$char_traits@D@std@@V?$allocator@D@2@@std@@@std@@@2@$0A@@std@@@std@@IEAAXPEAU?$_Tree_node@U?$pair@$$CBGV?$basic_string@DU?$char_traits@D@std@@V?$allocator@D@2@@std@@@std@@PEAX@2@@Z 0000000180017e70 f i AebellBusiThread.obj
 0001:00016f00       ?_Erase@?$_Tree@V?$_Tmap_traits@GGU?$less@G@std@@V?$allocator@U?$pair@$$CBGG@std@@@2@$0A@@std@@@std@@IEAAXPEAU?$_Tree_node@U?$pair@$$CBGG@std@@PEAX@2@@Z 0000000180017f00 f i AebellBusiThread.obj
 0001:00016f00       ?_Erase@?$_Tree@V?$_Tmap_traits@GHU?$less@G@std@@V?$allocator@U?$pair@$$CBGH@std@@@2@$0A@@std@@@std@@IEAAXPEAU?$_Tree_node@U?$pair@$$CBGH@std@@PEAX@2@@Z 0000000180017f00 f i AebellBusiThread.obj
 0001:00016f50       ?_Reallocate@?$vector@U_tagPlayTaskFile@@V?$allocator@U_tagPlayTaskFile@@@std@@@std@@IEAAX_K@Z 0000000180017f50 f i AebellBusiThread.obj
 0001:00017060       ?_Eqrange@?$_Tree@V?$_Tmap_traits@V?$basic_string@DU?$char_traits@D@std@@V?$allocator@D@2@@std@@V12@U?$less@V?$basic_string@DU?$char_traits@D@std@@V?$allocator@D@2@@std@@@2@V?$allocator@U?$pair@$$CBV?$basic_string@DU?$char_traits@D@std@@V?$allocator@D@2@@std@@V12@@std@@@2@$0A@@std@@@std@@IEAA?AU?$pair@V?$_Tree_iterator@V?$_Tree_val@U?$_Tree_simple_types@U?$pair@$$CBV?$basic_string@DU?$char_traits@D@std@@V?$allocator@D@2@@std@@V12@@std@@@std@@@std@@@std@@V12@@2@AEBV?$basic_string@DU?$char_traits@D@std@@V?$allocator@D@2@@2@@Z 0000000180018060 f i AebellBusiThread.obj
 0001:00017230       ?_Lbound@?$_Tree@V?$_Tmap_traits@V?$basic_string@DU?$char_traits@D@std@@V?$allocator@D@2@@std@@GU?$less@V?$basic_string@DU?$char_traits@D@std@@V?$allocator@D@2@@std@@@2@V?$allocator@U?$pair@$$CBV?$basic_string@DU?$char_traits@D@std@@V?$allocator@D@2@@std@@G@std@@@2@$0A@@std@@@std@@IEAAPEAU?$_Tree_node@U?$pair@$$CBV?$basic_string@DU?$char_traits@D@std@@V?$allocator@D@2@@std@@G@std@@PEAX@2@AEBV?$basic_string@DU?$char_traits@D@std@@V?$allocator@D@2@@2@@Z 0000000180018230 f i AebellBusiThread.obj
 0001:00017230       ?_Lbound@?$_Tree@V?$_Tmap_traits@V?$basic_string@DU?$char_traits@D@std@@V?$allocator@D@2@@std@@V12@U?$less@V?$basic_string@DU?$char_traits@D@std@@V?$allocator@D@2@@std@@@2@V?$allocator@U?$pair@$$CBV?$basic_string@DU?$char_traits@D@std@@V?$allocator@D@2@@std@@V12@@std@@@2@$0A@@std@@@std@@IEAAPEAU?$_Tree_node@U?$pair@$$CBV?$basic_string@DU?$char_traits@D@std@@V?$allocator@D@2@@std@@V12@@std@@PEAX@2@AEBV?$basic_string@DU?$char_traits@D@std@@V?$allocator@D@2@@2@@Z 0000000180018230 f i AebellBusiThread.obj
 0001:000172e0       ?erase@?$_Tree@V?$_Tmap_traits@V?$basic_string@DU?$char_traits@D@std@@V?$allocator@D@2@@std@@HU?$less@V?$basic_string@DU?$char_traits@D@std@@V?$allocator@D@2@@std@@@2@V?$allocator@U?$pair@$$CBV?$basic_string@DU?$char_traits@D@std@@V?$allocator@D@2@@std@@H@std@@@2@$0A@@std@@@std@@QEAA?AV?$_Tree_iterator@V?$_Tree_val@U?$_Tree_simple_types@U?$pair@$$CBV?$basic_string@DU?$char_traits@D@std@@V?$allocator@D@2@@std@@H@std@@@std@@@std@@@2@V?$_Tree_const_iterator@V?$_Tree_val@U?$_Tree_simple_types@U?$pair@$$CBV?$basic_string@DU?$char_traits@D@std@@V?$allocator@D@2@@std@@H@std@@@std@@@std@@@2@0@Z 00000001800182e0 f i AebellBusiThread.obj
 0001:000172e0       ?erase@?$_Tree@V?$_Tmap_traits@V?$basic_string@DU?$char_traits@D@std@@V?$allocator@D@2@@std@@GU?$less@V?$basic_string@DU?$char_traits@D@std@@V?$allocator@D@2@@std@@@2@V?$allocator@U?$pair@$$CBV?$basic_string@DU?$char_traits@D@std@@V?$allocator@D@2@@std@@G@std@@@2@$0A@@std@@@std@@QEAA?AV?$_Tree_iterator@V?$_Tree_val@U?$_Tree_simple_types@U?$pair@$$CBV?$basic_string@DU?$char_traits@D@std@@V?$allocator@D@2@@std@@G@std@@@std@@@std@@@2@V?$_Tree_const_iterator@V?$_Tree_val@U?$_Tree_simple_types@U?$pair@$$CBV?$basic_string@DU?$char_traits@D@std@@V?$allocator@D@2@@std@@G@std@@@std@@@std@@@2@0@Z 00000001800182e0 f i AebellBusiThread.obj
 0001:000173e0       ?erase@?$_Tree@V?$_Tmap_traits@HV?$basic_string@DU?$char_traits@D@std@@V?$allocator@D@2@@std@@U?$less@H@2@V?$allocator@U?$pair@$$CBHV?$basic_string@DU?$char_traits@D@std@@V?$allocator@D@2@@std@@@std@@@2@$0A@@std@@@std@@QEAA?AV?$_Tree_iterator@V?$_Tree_val@U?$_Tree_simple_types@U?$pair@$$CBHV?$basic_string@DU?$char_traits@D@std@@V?$allocator@D@2@@std@@@std@@@std@@@std@@@2@V?$_Tree_const_iterator@V?$_Tree_val@U?$_Tree_simple_types@U?$pair@$$CBHV?$basic_string@DU?$char_traits@D@std@@V?$allocator@D@2@@std@@@std@@@std@@@std@@@2@0@Z 00000001800183e0 f i AebellBusiThread.obj
 0001:000173e0       ?erase@?$_Tree@V?$_Tmap_traits@GV?$basic_string@DU?$char_traits@D@std@@V?$allocator@D@2@@std@@U?$less@G@2@V?$allocator@U?$pair@$$CBGV?$basic_string@DU?$char_traits@D@std@@V?$allocator@D@2@@std@@@std@@@2@$0A@@std@@@std@@QEAA?AV?$_Tree_iterator@V?$_Tree_val@U?$_Tree_simple_types@U?$pair@$$CBGV?$basic_string@DU?$char_traits@D@std@@V?$allocator@D@2@@std@@@std@@@std@@@std@@@2@V?$_Tree_const_iterator@V?$_Tree_val@U?$_Tree_simple_types@U?$pair@$$CBGV?$basic_string@DU?$char_traits@D@std@@V?$allocator@D@2@@std@@@std@@@std@@@std@@@2@0@Z 00000001800183e0 f i AebellBusiThread.obj
 0001:000174e0       ?erase@?$_Tree@V?$_Tmap_traits@_KV?$shared_ptr@VCBroadcastTask@@@std@@U?$less@_K@2@V?$allocator@U?$pair@$$CB_KV?$shared_ptr@VCBroadcastTask@@@std@@@std@@@2@$0A@@std@@@std@@QEAA?AV?$_Tree_iterator@V?$_Tree_val@U?$_Tree_simple_types@U?$pair@$$CB_KV?$shared_ptr@VCBroadcastTask@@@std@@@std@@@std@@@std@@@2@V?$_Tree_const_iterator@V?$_Tree_val@U?$_Tree_simple_types@U?$pair@$$CB_KV?$shared_ptr@VCBroadcastTask@@@std@@@std@@@std@@@std@@@2@0@Z 00000001800184e0 f i AebellBusiThread.obj
 0001:000175e0       ?erase@?$_Tree@V?$_Tmap_traits@_KUResTaskInfo@@U?$less@_K@std@@V?$allocator@U?$pair@$$CB_KUResTaskInfo@@@std@@@3@$0A@@std@@@std@@QEAA?AV?$_Tree_iterator@V?$_Tree_val@U?$_Tree_simple_types@U?$pair@$$CB_KUResTaskInfo@@@std@@@std@@@std@@@2@V?$_Tree_const_iterator@V?$_Tree_val@U?$_Tree_simple_types@U?$pair@$$CB_KUResTaskInfo@@@std@@@std@@@std@@@2@0@Z 00000001800185e0 f i AebellBusiThread.obj
 0001:000176e0       ?erase@?$_Tree@V?$_Tmap_traits@V?$basic_string@DU?$char_traits@D@std@@V?$allocator@D@2@@std@@V?$map@V?$basic_string@DU?$char_traits@D@std@@V?$allocator@D@2@@std@@V12@U?$less@V?$basic_string@DU?$char_traits@D@std@@V?$allocator@D@2@@std@@@2@V?$allocator@U?$pair@$$CBV?$basic_string@DU?$char_traits@D@std@@V?$allocator@D@2@@std@@V12@@std@@@2@@2@U?$less@V?$basic_string@DU?$char_traits@D@std@@V?$allocator@D@2@@std@@@2@V?$allocator@U?$pair@$$CBV?$basic_string@DU?$char_traits@D@std@@V?$allocator@D@2@@std@@V?$map@V?$basic_string@DU?$char_traits@D@std@@V?$allocator@D@2@@std@@V12@U?$less@V?$basic_string@DU?$char_traits@D@std@@V?$allocator@D@2@@std@@@2@V?$allocator@U?$pair@$$CBV?$basic_string@DU?$char_traits@D@std@@V?$allocator@D@2@@std@@V12@@std@@@2@@2@@std@@@2@$0A@@std@@@std@@QEAA?AV?$_Tree_iterator@V?$_Tree_val@U?$_Tree_simple_types@U?$pair@$$CBV?$basic_string@DU?$char_traits@D@std@@V?$allocator@D@2@@std@@V?$map@V?$basic_string@DU?$char_traits@D@std@@V?$allocator@D@2@@std@@V12@U?$less@V?$basic_string@DU?$char_traits@D@std@@V?$allocator@D@2@@std@@@2@V?$allocator@U?$pair@$$CBV?$basic_string@DU?$char_traits@D@std@@V?$allocator@D@2@@std@@V12@@std@@@2@@2@@std@@@std@@@std@@@2@V?$_Tree_const_iterator@V?$_Tree_val@U?$_Tree_simple_types@U?$pair@$$CBV?$basic_string@DU?$char_traits@D@std@@V?$allocator@D@2@@std@@V?$map@V?$basic_string@DU?$char_traits@D@std@@V?$allocator@D@2@@std@@V12@U?$less@V?$basic_string@DU?$char_traits@D@std@@V?$allocator@D@2@@std@@@2@V?$allocator@U?$pair@$$CBV?$basic_string@DU?$char_traits@D@std@@V?$allocator@D@2@@std@@V12@@std@@@2@@2@@std@@@std@@@std@@@2@0@Z 00000001800186e0 f i AebellBusiThread.obj
 0001:000177e0       ?erase@?$_Tree@V?$_Tmap_traits@GHU?$less@G@std@@V?$allocator@U?$pair@$$CBGH@std@@@2@$0A@@std@@@std@@QEAA?AV?$_Tree_iterator@V?$_Tree_val@U?$_Tree_simple_types@U?$pair@$$CBGH@std@@@std@@@std@@@2@V?$_Tree_const_iterator@V?$_Tree_val@U?$_Tree_simple_types@U?$pair@$$CBGH@std@@@std@@@std@@@2@0@Z 00000001800187e0 f i AebellBusiThread.obj
 0001:000177e0       ?erase@?$_Tree@V?$_Tmap_traits@GGU?$less@G@std@@V?$allocator@U?$pair@$$CBGG@std@@@2@$0A@@std@@@std@@QEAA?AV?$_Tree_iterator@V?$_Tree_val@U?$_Tree_simple_types@U?$pair@$$CBGG@std@@@std@@@std@@@2@V?$_Tree_const_iterator@V?$_Tree_val@U?$_Tree_simple_types@U?$pair@$$CBGG@std@@@std@@@std@@@2@0@Z 00000001800187e0 f i AebellBusiThread.obj
 0001:000178c0       ?erase@?$_Tree@V?$_Tmap_traits@GV?$basic_string@DU?$char_traits@D@std@@V?$allocator@D@2@@std@@U?$less@G@2@V?$allocator@U?$pair@$$CBGV?$basic_string@DU?$char_traits@D@std@@V?$allocator@D@2@@std@@@std@@@2@$0A@@std@@@std@@QEAA?AV?$_Tree_iterator@V?$_Tree_val@U?$_Tree_simple_types@U?$pair@$$CBGV?$basic_string@DU?$char_traits@D@std@@V?$allocator@D@2@@std@@@std@@@std@@@std@@@2@V?$_Tree_const_iterator@V?$_Tree_val@U?$_Tree_simple_types@U?$pair@$$CBGV?$basic_string@DU?$char_traits@D@std@@V?$allocator@D@2@@std@@@std@@@std@@@std@@@2@@Z 00000001800188c0 f i AebellBusiThread.obj
 0001:000178c0       ?erase@?$_Tree@V?$_Tmap_traits@HV?$basic_string@DU?$char_traits@D@std@@V?$allocator@D@2@@std@@U?$less@H@2@V?$allocator@U?$pair@$$CBHV?$basic_string@DU?$char_traits@D@std@@V?$allocator@D@2@@std@@@std@@@2@$0A@@std@@@std@@QEAA?AV?$_Tree_iterator@V?$_Tree_val@U?$_Tree_simple_types@U?$pair@$$CBHV?$basic_string@DU?$char_traits@D@std@@V?$allocator@D@2@@std@@@std@@@std@@@std@@@2@V?$_Tree_const_iterator@V?$_Tree_val@U?$_Tree_simple_types@U?$pair@$$CBHV?$basic_string@DU?$char_traits@D@std@@V?$allocator@D@2@@std@@@std@@@std@@@std@@@2@@Z 00000001800188c0 f i AebellBusiThread.obj
 0001:00017d00       ?erase@?$_Tree@V?$_Tmap_traits@V?$basic_string@DU?$char_traits@D@std@@V?$allocator@D@2@@std@@V?$map@V?$basic_string@DU?$char_traits@D@std@@V?$allocator@D@2@@std@@V12@U?$less@V?$basic_string@DU?$char_traits@D@std@@V?$allocator@D@2@@std@@@2@V?$allocator@U?$pair@$$CBV?$basic_string@DU?$char_traits@D@std@@V?$allocator@D@2@@std@@V12@@std@@@2@@2@U?$less@V?$basic_string@DU?$char_traits@D@std@@V?$allocator@D@2@@std@@@2@V?$allocator@U?$pair@$$CBV?$basic_string@DU?$char_traits@D@std@@V?$allocator@D@2@@std@@V?$map@V?$basic_string@DU?$char_traits@D@std@@V?$allocator@D@2@@std@@V12@U?$less@V?$basic_string@DU?$char_traits@D@std@@V?$allocator@D@2@@std@@@2@V?$allocator@U?$pair@$$CBV?$basic_string@DU?$char_traits@D@std@@V?$allocator@D@2@@std@@V12@@std@@@2@@2@@std@@@2@$0A@@std@@@std@@QEAA?AV?$_Tree_iterator@V?$_Tree_val@U?$_Tree_simple_types@U?$pair@$$CBV?$basic_string@DU?$char_traits@D@std@@V?$allocator@D@2@@std@@V?$map@V?$basic_string@DU?$char_traits@D@std@@V?$allocator@D@2@@std@@V12@U?$less@V?$basic_string@DU?$char_traits@D@std@@V?$allocator@D@2@@std@@@2@V?$allocator@U?$pair@$$CBV?$basic_string@DU?$char_traits@D@std@@V?$allocator@D@2@@std@@V12@@std@@@2@@2@@std@@@std@@@std@@@2@V?$_Tree_const_iterator@V?$_Tree_val@U?$_Tree_simple_types@U?$pair@$$CBV?$basic_string@DU?$char_traits@D@std@@V?$allocator@D@2@@std@@V?$map@V?$basic_string@DU?$char_traits@D@std@@V?$allocator@D@2@@std@@V12@U?$less@V?$basic_string@DU?$char_traits@D@std@@V?$allocator@D@2@@std@@@2@V?$allocator@U?$pair@$$CBV?$basic_string@DU?$char_traits@D@std@@V?$allocator@D@2@@std@@V12@@std@@@2@@2@@std@@@std@@@std@@@2@@Z 0000000180018d00 f i AebellBusiThread.obj
 0001:00018160       ?erase@?$_Tree@V?$_Tmap_traits@GHU?$less@G@std@@V?$allocator@U?$pair@$$CBGH@std@@@2@$0A@@std@@@std@@QEAA?AV?$_Tree_iterator@V?$_Tree_val@U?$_Tree_simple_types@U?$pair@$$CBGH@std@@@std@@@std@@@2@V?$_Tree_const_iterator@V?$_Tree_val@U?$_Tree_simple_types@U?$pair@$$CBGH@std@@@std@@@std@@@2@@Z 0000000180019160 f i AebellBusiThread.obj
 0001:00018160       ?erase@?$_Tree@V?$_Tmap_traits@GGU?$less@G@std@@V?$allocator@U?$pair@$$CBGG@std@@@2@$0A@@std@@@std@@QEAA?AV?$_Tree_iterator@V?$_Tree_val@U?$_Tree_simple_types@U?$pair@$$CBGG@std@@@std@@@std@@@2@V?$_Tree_const_iterator@V?$_Tree_val@U?$_Tree_simple_types@U?$pair@$$CBGG@std@@@std@@@std@@@2@@Z 0000000180019160 f i AebellBusiThread.obj
 0001:00018580       ?_Erase@?$_Tree@V?$_Tmap_traits@_KV?$shared_ptr@VCBroadcastTask@@@std@@U?$less@_K@2@V?$allocator@U?$pair@$$CB_KV?$shared_ptr@VCBroadcastTask@@@std@@@std@@@2@$0A@@std@@@std@@IEAAXPEAU?$_Tree_node@U?$pair@$$CB_KV?$shared_ptr@VCBroadcastTask@@@std@@@std@@PEAX@2@@Z 0000000180019580 f i AebellBusiThread.obj
 0001:00018600       ?_Erase@?$_Tree@V?$_Tmap_traits@_KUResTaskInfo@@U?$less@_K@std@@V?$allocator@U?$pair@$$CB_KUResTaskInfo@@@std@@@3@$0A@@std@@@std@@IEAAXPEAU?$_Tree_node@U?$pair@$$CB_KUResTaskInfo@@@std@@PEAX@2@@Z 0000000180019600 f i AebellBusiThread.obj
 0001:00018700       ?_Erase@?$_Tree@V?$_Tmap_traits@V?$basic_string@DU?$char_traits@D@std@@V?$allocator@D@2@@std@@V?$map@V?$basic_string@DU?$char_traits@D@std@@V?$allocator@D@2@@std@@V12@U?$less@V?$basic_string@DU?$char_traits@D@std@@V?$allocator@D@2@@std@@@2@V?$allocator@U?$pair@$$CBV?$basic_string@DU?$char_traits@D@std@@V?$allocator@D@2@@std@@V12@@std@@@2@@2@U?$less@V?$basic_string@DU?$char_traits@D@std@@V?$allocator@D@2@@std@@@2@V?$allocator@U?$pair@$$CBV?$basic_string@DU?$char_traits@D@std@@V?$allocator@D@2@@std@@V?$map@V?$basic_string@DU?$char_traits@D@std@@V?$allocator@D@2@@std@@V12@U?$less@V?$basic_string@DU?$char_traits@D@std@@V?$allocator@D@2@@std@@@2@V?$allocator@U?$pair@$$CBV?$basic_string@DU?$char_traits@D@std@@V?$allocator@D@2@@std@@V12@@std@@@2@@2@@std@@@2@$0A@@std@@@std@@IEAAXPEAU?$_Tree_node@U?$pair@$$CBV?$basic_string@DU?$char_traits@D@std@@V?$allocator@D@2@@std@@V?$map@V?$basic_string@DU?$char_traits@D@std@@V?$allocator@D@2@@std@@V12@U?$less@V?$basic_string@DU?$char_traits@D@std@@V?$allocator@D@2@@std@@@2@V?$allocator@U?$pair@$$CBV?$basic_string@DU?$char_traits@D@std@@V?$allocator@D@2@@std@@V12@@std@@@2@@2@@std@@PEAX@2@@Z 0000000180019700 f i AebellBusiThread.obj
 0001:000187a0       ??$_Copy_impl@PEAUFileInfo@@PEAU1@@std@@YAPEAUFileInfo@@PEAU1@00@Z 00000001800197a0 f i AebellBusiThread.obj
 0001:00018830       ??$_Insert_nohint@AEAU?$pair@$$CBV?$basic_string@DU?$char_traits@D@std@@V?$allocator@D@2@@std@@V12@@std@@PEAU?$_Tree_node@U?$pair@$$CBV?$basic_string@DU?$char_traits@D@std@@V?$allocator@D@2@@std@@V12@@std@@PEAX@2@@?$_Tree@V?$_Tmap_traits@V?$basic_string@DU?$char_traits@D@std@@V?$allocator@D@2@@std@@V12@U?$less@V?$basic_string@DU?$char_traits@D@std@@V?$allocator@D@2@@std@@@2@V?$allocator@U?$pair@$$CBV?$basic_string@DU?$char_traits@D@std@@V?$allocator@D@2@@std@@V12@@std@@@2@$0A@@std@@@std@@IEAA?AU?$pair@V?$_Tree_iterator@V?$_Tree_val@U?$_Tree_simple_types@U?$pair@$$CBV?$basic_string@DU?$char_traits@D@std@@V?$allocator@D@2@@std@@V12@@std@@@std@@@std@@@std@@_N@1@_NAEAU?$pair@$$CBV?$basic_string@DU?$char_traits@D@std@@V?$allocator@D@2@@std@@V12@@1@PEAU?$_Tree_node@U?$pair@$$CBV?$basic_string@DU?$char_traits@D@std@@V?$allocator@D@2@@std@@V12@@std@@PEAX@1@@Z 0000000180019830 f i AebellBusiThread.obj
 0001:000189f0       ??$_Insert_nohint@AEAU?$pair@$$CBV?$basic_string@DU?$char_traits@D@std@@V?$allocator@D@2@@std@@H@std@@PEAU?$_Tree_node@U?$pair@$$CBV?$basic_string@DU?$char_traits@D@std@@V?$allocator@D@2@@std@@H@std@@PEAX@2@@?$_Tree@V?$_Tmap_traits@V?$basic_string@DU?$char_traits@D@std@@V?$allocator@D@2@@std@@HU?$less@V?$basic_string@DU?$char_traits@D@std@@V?$allocator@D@2@@std@@@2@V?$allocator@U?$pair@$$CBV?$basic_string@DU?$char_traits@D@std@@V?$allocator@D@2@@std@@H@std@@@2@$0A@@std@@@std@@IEAA?AU?$pair@V?$_Tree_iterator@V?$_Tree_val@U?$_Tree_simple_types@U?$pair@$$CBV?$basic_string@DU?$char_traits@D@std@@V?$allocator@D@2@@std@@H@std@@@std@@@std@@@std@@_N@1@_NAEAU?$pair@$$CBV?$basic_string@DU?$char_traits@D@std@@V?$allocator@D@2@@std@@H@1@PEAU?$_Tree_node@U?$pair@$$CBV?$basic_string@DU?$char_traits@D@std@@V?$allocator@D@2@@std@@H@std@@PEAX@1@@Z 00000001800199f0 f i AebellBusiThread.obj
 0001:000189f0       ??$_Insert_nohint@AEAU?$pair@$$CBV?$basic_string@DU?$char_traits@D@std@@V?$allocator@D@2@@std@@G@std@@PEAU?$_Tree_node@U?$pair@$$CBV?$basic_string@DU?$char_traits@D@std@@V?$allocator@D@2@@std@@G@std@@PEAX@2@@?$_Tree@V?$_Tmap_traits@V?$basic_string@DU?$char_traits@D@std@@V?$allocator@D@2@@std@@GU?$less@V?$basic_string@DU?$char_traits@D@std@@V?$allocator@D@2@@std@@@2@V?$allocator@U?$pair@$$CBV?$basic_string@DU?$char_traits@D@std@@V?$allocator@D@2@@std@@G@std@@@2@$0A@@std@@@std@@IEAA?AU?$pair@V?$_Tree_iterator@V?$_Tree_val@U?$_Tree_simple_types@U?$pair@$$CBV?$basic_string@DU?$char_traits@D@std@@V?$allocator@D@2@@std@@G@std@@@std@@@std@@@std@@_N@1@_NAEAU?$pair@$$CBV?$basic_string@DU?$char_traits@D@std@@V?$allocator@D@2@@std@@G@1@PEAU?$_Tree_node@U?$pair@$$CBV?$basic_string@DU?$char_traits@D@std@@V?$allocator@D@2@@std@@G@std@@PEAX@1@@Z 00000001800199f0 f i AebellBusiThread.obj
 0001:00018bd0       ??$_Insert_nohint@AEAU?$pair@$$CBGV?$basic_string@DU?$char_traits@D@std@@V?$allocator@D@2@@std@@@std@@PEAU?$_Tree_node@U?$pair@$$CBGV?$basic_string@DU?$char_traits@D@std@@V?$allocator@D@2@@std@@@std@@PEAX@2@@?$_Tree@V?$_Tmap_traits@GV?$basic_string@DU?$char_traits@D@std@@V?$allocator@D@2@@std@@U?$less@G@2@V?$allocator@U?$pair@$$CBGV?$basic_string@DU?$char_traits@D@std@@V?$allocator@D@2@@std@@@std@@@2@$0A@@std@@@std@@IEAA?AU?$pair@V?$_Tree_iterator@V?$_Tree_val@U?$_Tree_simple_types@U?$pair@$$CBGV?$basic_string@DU?$char_traits@D@std@@V?$allocator@D@2@@std@@@std@@@std@@@std@@@std@@_N@1@_NAEAU?$pair@$$CBGV?$basic_string@DU?$char_traits@D@std@@V?$allocator@D@2@@std@@@1@PEAU?$_Tree_node@U?$pair@$$CBGV?$basic_string@DU?$char_traits@D@std@@V?$allocator@D@2@@std@@@std@@PEAX@1@@Z 0000000180019bd0 f i AebellBusiThread.obj
 0001:00018d20       ??$_Insert_nohint@AEAU?$pair@$$CBHV?$basic_string@DU?$char_traits@D@std@@V?$allocator@D@2@@std@@@std@@PEAU?$_Tree_node@U?$pair@$$CBHV?$basic_string@DU?$char_traits@D@std@@V?$allocator@D@2@@std@@@std@@PEAX@2@@?$_Tree@V?$_Tmap_traits@HV?$basic_string@DU?$char_traits@D@std@@V?$allocator@D@2@@std@@U?$less@H@2@V?$allocator@U?$pair@$$CBHV?$basic_string@DU?$char_traits@D@std@@V?$allocator@D@2@@std@@@std@@@2@$0A@@std@@@std@@IEAA?AU?$pair@V?$_Tree_iterator@V?$_Tree_val@U?$_Tree_simple_types@U?$pair@$$CBHV?$basic_string@DU?$char_traits@D@std@@V?$allocator@D@2@@std@@@std@@@std@@@std@@@std@@_N@1@_NAEAU?$pair@$$CBHV?$basic_string@DU?$char_traits@D@std@@V?$allocator@D@2@@std@@@1@PEAU?$_Tree_node@U?$pair@$$CBHV?$basic_string@DU?$char_traits@D@std@@V?$allocator@D@2@@std@@@std@@PEAX@1@@Z 0000000180019d20 f i AebellBusiThread.obj
 0001:00018e70       ??$_Insert_hint@AEAU?$pair@$$CBV?$basic_string@DU?$char_traits@D@std@@V?$allocator@D@2@@std@@V12@@std@@PEAU?$_Tree_node@U?$pair@$$CBV?$basic_string@DU?$char_traits@D@std@@V?$allocator@D@2@@std@@V12@@std@@PEAX@2@@?$_Tree@V?$_Tmap_traits@V?$basic_string@DU?$char_traits@D@std@@V?$allocator@D@2@@std@@V12@U?$less@V?$basic_string@DU?$char_traits@D@std@@V?$allocator@D@2@@std@@@2@V?$allocator@U?$pair@$$CBV?$basic_string@DU?$char_traits@D@std@@V?$allocator@D@2@@std@@V12@@std@@@2@$0A@@std@@@std@@IEAA?AV?$_Tree_iterator@V?$_Tree_val@U?$_Tree_simple_types@U?$pair@$$CBV?$basic_string@DU?$char_traits@D@std@@V?$allocator@D@2@@std@@V12@@std@@@std@@@std@@@1@V?$_Tree_const_iterator@V?$_Tree_val@U?$_Tree_simple_types@U?$pair@$$CBV?$basic_string@DU?$char_traits@D@std@@V?$allocator@D@2@@std@@V12@@std@@@std@@@std@@@1@AEAU?$pair@$$CBV?$basic_string@DU?$char_traits@D@std@@V?$allocator@D@2@@std@@V12@@1@PEAU?$_Tree_node@U?$pair@$$CBV?$basic_string@DU?$char_traits@D@std@@V?$allocator@D@2@@std@@V12@@std@@PEAX@1@@Z 0000000180019e70 f i AebellBusiThread.obj
 0001:00019100       ??$_Insert_hint@AEAU?$pair@$$CBV?$basic_string@DU?$char_traits@D@std@@V?$allocator@D@2@@std@@G@std@@PEAU?$_Tree_node@U?$pair@$$CBV?$basic_string@DU?$char_traits@D@std@@V?$allocator@D@2@@std@@G@std@@PEAX@2@@?$_Tree@V?$_Tmap_traits@V?$basic_string@DU?$char_traits@D@std@@V?$allocator@D@2@@std@@GU?$less@V?$basic_string@DU?$char_traits@D@std@@V?$allocator@D@2@@std@@@2@V?$allocator@U?$pair@$$CBV?$basic_string@DU?$char_traits@D@std@@V?$allocator@D@2@@std@@G@std@@@2@$0A@@std@@@std@@IEAA?AV?$_Tree_iterator@V?$_Tree_val@U?$_Tree_simple_types@U?$pair@$$CBV?$basic_string@DU?$char_traits@D@std@@V?$allocator@D@2@@std@@G@std@@@std@@@std@@@1@V?$_Tree_const_iterator@V?$_Tree_val@U?$_Tree_simple_types@U?$pair@$$CBV?$basic_string@DU?$char_traits@D@std@@V?$allocator@D@2@@std@@G@std@@@std@@@std@@@1@AEAU?$pair@$$CBV?$basic_string@DU?$char_traits@D@std@@V?$allocator@D@2@@std@@G@1@PEAU?$_Tree_node@U?$pair@$$CBV?$basic_string@DU?$char_traits@D@std@@V?$allocator@D@2@@std@@G@std@@PEAX@1@@Z 000000018001a100 f i AebellBusiThread.obj
 0001:00019390       ??$_Insert_hint@AEAU?$pair@$$CB_KUResTaskInfo@@@std@@PEAU?$_Tree_node@U?$pair@$$CB_KUResTaskInfo@@@std@@PEAX@2@@?$_Tree@V?$_Tmap_traits@_KUResTaskInfo@@U?$less@_K@std@@V?$allocator@U?$pair@$$CB_KUResTaskInfo@@@std@@@3@$0A@@std@@@std@@IEAA?AV?$_Tree_iterator@V?$_Tree_val@U?$_Tree_simple_types@U?$pair@$$CB_KUResTaskInfo@@@std@@@std@@@std@@@1@V?$_Tree_const_iterator@V?$_Tree_val@U?$_Tree_simple_types@U?$pair@$$CB_KUResTaskInfo@@@std@@@std@@@std@@@1@AEAU?$pair@$$CB_KUResTaskInfo@@@1@PEAU?$_Tree_node@U?$pair@$$CB_KUResTaskInfo@@@std@@PEAX@1@@Z 000000018001a390 f i AebellBusiThread.obj
 0001:000195f0       ??$_Insert_hint@AEAU?$pair@$$CBGG@std@@PEAU?$_Tree_node@U?$pair@$$CBGG@std@@PEAX@2@@?$_Tree@V?$_Tmap_traits@GGU?$less@G@std@@V?$allocator@U?$pair@$$CBGG@std@@@2@$0A@@std@@@std@@IEAA?AV?$_Tree_iterator@V?$_Tree_val@U?$_Tree_simple_types@U?$pair@$$CBGG@std@@@std@@@std@@@1@V?$_Tree_const_iterator@V?$_Tree_val@U?$_Tree_simple_types@U?$pair@$$CBGG@std@@@std@@@std@@@1@AEAU?$pair@$$CBGG@1@PEAU?$_Tree_node@U?$pair@$$CBGG@std@@PEAX@1@@Z 000000018001a5f0 f i AebellBusiThread.obj
 0001:00019850       ??$_Insert_hint@AEAU?$pair@$$CBGH@std@@PEAU?$_Tree_node@U?$pair@$$CBGH@std@@PEAX@2@@?$_Tree@V?$_Tmap_traits@GHU?$less@G@std@@V?$allocator@U?$pair@$$CBGH@std@@@2@$0A@@std@@@std@@IEAA?AV?$_Tree_iterator@V?$_Tree_val@U?$_Tree_simple_types@U?$pair@$$CBGH@std@@@std@@@std@@@1@V?$_Tree_const_iterator@V?$_Tree_val@U?$_Tree_simple_types@U?$pair@$$CBGH@std@@@std@@@std@@@1@AEAU?$pair@$$CBGH@1@PEAU?$_Tree_node@U?$pair@$$CBGH@std@@PEAX@1@@Z 000000018001a850 f i AebellBusiThread.obj
 0001:00019ab0       ??_GCBroadcastTask@@QEAAPEAXI@Z 000000018001aab0 f i AebellBusiThread.obj
 0001:00019b20       ??_GCUploadFileTask@@QEAAPEAXI@Z 000000018001ab20 f i AebellBusiThread.obj
 0001:00019b90       ?_Destroy_if_not_nil@?$_Tree@V?$_Tmap_traits@V?$basic_string@DU?$char_traits@D@std@@V?$allocator@D@2@@std@@V12@U?$less@V?$basic_string@DU?$char_traits@D@std@@V?$allocator@D@2@@std@@@2@V?$allocator@U?$pair@$$CBV?$basic_string@DU?$char_traits@D@std@@V?$allocator@D@2@@std@@V12@@std@@@2@$0A@@std@@@std@@IEAAXPEAU?$_Tree_node@U?$pair@$$CBV?$basic_string@DU?$char_traits@D@std@@V?$allocator@D@2@@std@@V12@@std@@PEAX@2@@Z 000000018001ab90 f i AebellBusiThread.obj
 0001:00019bf0       ?_Destroy@?$_Ref_count@VCBroadcastTask@@@std@@EEAAXXZ 000000018001abf0 f i AebellBusiThread.obj
 0001:00019c00       ?_Delete_this@?$_Ref_count@VCUploadFileTask@@@std@@EEAAXXZ 000000018001ac00 f i AebellBusiThread.obj
 0001:00019c00       ?_Delete_this@?$_Ref_count@VCBroadcastTask@@@std@@EEAAXXZ 000000018001ac00 f i AebellBusiThread.obj
 0001:00019c20       ?_Destroy@?$_Ref_count@VCUploadFileTask@@@std@@EEAAXXZ 000000018001ac20 f i AebellBusiThread.obj
 0001:00019c30       ??$_Insert_at@AEAU?$pair@$$CBV?$basic_string@DU?$char_traits@D@std@@V?$allocator@D@2@@std@@V12@@std@@PEAU?$_Tree_node@U?$pair@$$CBV?$basic_string@DU?$char_traits@D@std@@V?$allocator@D@2@@std@@V12@@std@@PEAX@2@@?$_Tree@V?$_Tmap_traits@V?$basic_string@DU?$char_traits@D@std@@V?$allocator@D@2@@std@@V12@U?$less@V?$basic_string@DU?$char_traits@D@std@@V?$allocator@D@2@@std@@@2@V?$allocator@U?$pair@$$CBV?$basic_string@DU?$char_traits@D@std@@V?$allocator@D@2@@std@@V12@@std@@@2@$0A@@std@@@std@@IEAA?AV?$_Tree_iterator@V?$_Tree_val@U?$_Tree_simple_types@U?$pair@$$CBV?$basic_string@DU?$char_traits@D@std@@V?$allocator@D@2@@std@@V12@@std@@@std@@@std@@@1@_NPEAU?$_Tree_node@U?$pair@$$CBV?$basic_string@DU?$char_traits@D@std@@V?$allocator@D@2@@std@@V12@@std@@PEAX@1@AEAU?$pair@$$CBV?$basic_string@DU?$char_traits@D@std@@V?$allocator@D@2@@std@@V12@@1@1@Z 000000018001ac30 f i AebellBusiThread.obj
 0001:00019f30       ??$_Insert_at@AEAU?$pair@$$CBV?$basic_string@DU?$char_traits@D@std@@V?$allocator@D@2@@std@@G@std@@PEAU?$_Tree_node@U?$pair@$$CBV?$basic_string@DU?$char_traits@D@std@@V?$allocator@D@2@@std@@G@std@@PEAX@2@@?$_Tree@V?$_Tmap_traits@V?$basic_string@DU?$char_traits@D@std@@V?$allocator@D@2@@std@@GU?$less@V?$basic_string@DU?$char_traits@D@std@@V?$allocator@D@2@@std@@@2@V?$allocator@U?$pair@$$CBV?$basic_string@DU?$char_traits@D@std@@V?$allocator@D@2@@std@@G@std@@@2@$0A@@std@@@std@@IEAA?AV?$_Tree_iterator@V?$_Tree_val@U?$_Tree_simple_types@U?$pair@$$CBV?$basic_string@DU?$char_traits@D@std@@V?$allocator@D@2@@std@@G@std@@@std@@@std@@@1@_NPEAU?$_Tree_node@U?$pair@$$CBV?$basic_string@DU?$char_traits@D@std@@V?$allocator@D@2@@std@@G@std@@PEAX@1@AEAU?$pair@$$CBV?$basic_string@DU?$char_traits@D@std@@V?$allocator@D@2@@std@@G@1@1@Z 000000018001af30 f i AebellBusiThread.obj
 0001:00019f30       ??$_Insert_at@AEAU?$pair@$$CBV?$basic_string@DU?$char_traits@D@std@@V?$allocator@D@2@@std@@H@std@@PEAU?$_Tree_node@U?$pair@$$CBV?$basic_string@DU?$char_traits@D@std@@V?$allocator@D@2@@std@@H@std@@PEAX@2@@?$_Tree@V?$_Tmap_traits@V?$basic_string@DU?$char_traits@D@std@@V?$allocator@D@2@@std@@HU?$less@V?$basic_string@DU?$char_traits@D@std@@V?$allocator@D@2@@std@@@2@V?$allocator@U?$pair@$$CBV?$basic_string@DU?$char_traits@D@std@@V?$allocator@D@2@@std@@H@std@@@2@$0A@@std@@@std@@IEAA?AV?$_Tree_iterator@V?$_Tree_val@U?$_Tree_simple_types@U?$pair@$$CBV?$basic_string@DU?$char_traits@D@std@@V?$allocator@D@2@@std@@H@std@@@std@@@std@@@1@_NPEAU?$_Tree_node@U?$pair@$$CBV?$basic_string@DU?$char_traits@D@std@@V?$allocator@D@2@@std@@H@std@@PEAX@1@AEAU?$pair@$$CBV?$basic_string@DU?$char_traits@D@std@@V?$allocator@D@2@@std@@H@1@1@Z 000000018001af30 f i AebellBusiThread.obj
 0001:0001a200       ??$_Insert_at@AEAU?$pair@$$CBHV?$basic_string@DU?$char_traits@D@std@@V?$allocator@D@2@@std@@@std@@PEAU?$_Tree_node@U?$pair@$$CBHV?$basic_string@DU?$char_traits@D@std@@V?$allocator@D@2@@std@@@std@@PEAX@2@@?$_Tree@V?$_Tmap_traits@HV?$basic_string@DU?$char_traits@D@std@@V?$allocator@D@2@@std@@U?$less@H@2@V?$allocator@U?$pair@$$CBHV?$basic_string@DU?$char_traits@D@std@@V?$allocator@D@2@@std@@@std@@@2@$0A@@std@@@std@@IEAA?AV?$_Tree_iterator@V?$_Tree_val@U?$_Tree_simple_types@U?$pair@$$CBHV?$basic_string@DU?$char_traits@D@std@@V?$allocator@D@2@@std@@@std@@@std@@@std@@@1@_NPEAU?$_Tree_node@U?$pair@$$CBHV?$basic_string@DU?$char_traits@D@std@@V?$allocator@D@2@@std@@@std@@PEAX@1@AEAU?$pair@$$CBHV?$basic_string@DU?$char_traits@D@std@@V?$allocator@D@2@@std@@@1@1@Z 000000018001b200 f i AebellBusiThread.obj
 0001:0001a200       ??$_Insert_at@AEAU?$pair@$$CBGV?$basic_string@DU?$char_traits@D@std@@V?$allocator@D@2@@std@@@std@@PEAU?$_Tree_node@U?$pair@$$CBGV?$basic_string@DU?$char_traits@D@std@@V?$allocator@D@2@@std@@@std@@PEAX@2@@?$_Tree@V?$_Tmap_traits@GV?$basic_string@DU?$char_traits@D@std@@V?$allocator@D@2@@std@@U?$less@G@2@V?$allocator@U?$pair@$$CBGV?$basic_string@DU?$char_traits@D@std@@V?$allocator@D@2@@std@@@std@@@2@$0A@@std@@@std@@IEAA?AV?$_Tree_iterator@V?$_Tree_val@U?$_Tree_simple_types@U?$pair@$$CBGV?$basic_string@DU?$char_traits@D@std@@V?$allocator@D@2@@std@@@std@@@std@@@std@@@1@_NPEAU?$_Tree_node@U?$pair@$$CBGV?$basic_string@DU?$char_traits@D@std@@V?$allocator@D@2@@std@@@std@@PEAX@1@AEAU?$pair@$$CBGV?$basic_string@DU?$char_traits@D@std@@V?$allocator@D@2@@std@@@1@1@Z 000000018001b200 f i AebellBusiThread.obj
 0001:0001a4d0       ??$_Insert_at@AEAU?$pair@$$CB_KUResTaskInfo@@@std@@PEAU?$_Tree_node@U?$pair@$$CB_KUResTaskInfo@@@std@@PEAX@2@@?$_Tree@V?$_Tmap_traits@_KUResTaskInfo@@U?$less@_K@std@@V?$allocator@U?$pair@$$CB_KUResTaskInfo@@@std@@@3@$0A@@std@@@std@@IEAA?AV?$_Tree_iterator@V?$_Tree_val@U?$_Tree_simple_types@U?$pair@$$CB_KUResTaskInfo@@@std@@@std@@@std@@@1@_NPEAU?$_Tree_node@U?$pair@$$CB_KUResTaskInfo@@@std@@PEAX@1@AEAU?$pair@$$CB_KUResTaskInfo@@@1@1@Z 000000018001b4d0 f i AebellBusiThread.obj
 0001:0001a7b0       ??$_Insert_nohint@AEAU?$pair@$$CB_KUResTaskInfo@@@std@@PEAU?$_Tree_node@U?$pair@$$CB_KUResTaskInfo@@@std@@PEAX@2@@?$_Tree@V?$_Tmap_traits@_KUResTaskInfo@@U?$less@_K@std@@V?$allocator@U?$pair@$$CB_KUResTaskInfo@@@std@@@3@$0A@@std@@@std@@IEAA?AU?$pair@V?$_Tree_iterator@V?$_Tree_val@U?$_Tree_simple_types@U?$pair@$$CB_KUResTaskInfo@@@std@@@std@@@std@@@std@@_N@1@_NAEAU?$pair@$$CB_KUResTaskInfo@@@1@PEAU?$_Tree_node@U?$pair@$$CB_KUResTaskInfo@@@std@@PEAX@1@@Z 000000018001b7b0 f i AebellBusiThread.obj
 0001:0001a900       ??$_Insert_at@AEAU?$pair@$$CBGG@std@@PEAU?$_Tree_node@U?$pair@$$CBGG@std@@PEAX@2@@?$_Tree@V?$_Tmap_traits@GGU?$less@G@std@@V?$allocator@U?$pair@$$CBGG@std@@@2@$0A@@std@@@std@@IEAA?AV?$_Tree_iterator@V?$_Tree_val@U?$_Tree_simple_types@U?$pair@$$CBGG@std@@@std@@@std@@@1@_NPEAU?$_Tree_node@U?$pair@$$CBGG@std@@PEAX@1@AEAU?$pair@$$CBGG@1@1@Z 000000018001b900 f i AebellBusiThread.obj
 0001:0001aba0       ??$_Insert_nohint@AEAU?$pair@$$CBGG@std@@PEAU?$_Tree_node@U?$pair@$$CBGG@std@@PEAX@2@@?$_Tree@V?$_Tmap_traits@GGU?$less@G@std@@V?$allocator@U?$pair@$$CBGG@std@@@2@$0A@@std@@@std@@IEAA?AU?$pair@V?$_Tree_iterator@V?$_Tree_val@U?$_Tree_simple_types@U?$pair@$$CBGG@std@@@std@@@std@@@std@@_N@1@_NAEAU?$pair@$$CBGG@1@PEAU?$_Tree_node@U?$pair@$$CBGG@std@@PEAX@1@@Z 000000018001bba0 f i AebellBusiThread.obj
 0001:0001acc0       ??$_Insert_at@AEAU?$pair@$$CBGH@std@@PEAU?$_Tree_node@U?$pair@$$CBGH@std@@PEAX@2@@?$_Tree@V?$_Tmap_traits@GHU?$less@G@std@@V?$allocator@U?$pair@$$CBGH@std@@@2@$0A@@std@@@std@@IEAA?AV?$_Tree_iterator@V?$_Tree_val@U?$_Tree_simple_types@U?$pair@$$CBGH@std@@@std@@@std@@@1@_NPEAU?$_Tree_node@U?$pair@$$CBGH@std@@PEAX@1@AEAU?$pair@$$CBGH@1@1@Z 000000018001bcc0 f i AebellBusiThread.obj
 0001:0001af60       ??$_Insert_nohint@AEAU?$pair@$$CBGH@std@@PEAU?$_Tree_node@U?$pair@$$CBGH@std@@PEAX@2@@?$_Tree@V?$_Tmap_traits@GHU?$less@G@std@@V?$allocator@U?$pair@$$CBGH@std@@@2@$0A@@std@@@std@@IEAA?AU?$pair@V?$_Tree_iterator@V?$_Tree_val@U?$_Tree_simple_types@U?$pair@$$CBGH@std@@@std@@@std@@@std@@_N@1@_NAEAU?$pair@$$CBGH@1@PEAU?$_Tree_node@U?$pair@$$CBGH@std@@PEAX@1@@Z 000000018001bf60 f i AebellBusiThread.obj
 0001:0001b080       ??$?0V?$basic_string@DU?$char_traits@D@std@@V?$allocator@D@2@@std@@V01@X@?$pair@$$CBV?$basic_string@DU?$char_traits@D@std@@V?$allocator@D@2@@std@@V12@@std@@QEAA@$$QEAU?$pair@V?$basic_string@DU?$char_traits@D@std@@V?$allocator@D@2@@std@@V12@@1@@Z 000000018001c080 f i AebellBusiThread.obj
 0001:0001b160       ?GetInstance@CAEBELLUploadThread@@SAAEAV1@XZ 000000018001c160 f   AebellUploadThread.obj
 0001:0001b1d0       ??0CAEBELLUploadThread@@AEAA@XZ 000000018001c1d0 f   AebellUploadThread.obj
 0001:0001b260       ??_ECAEBELLUploadThread@@EEAAPEAXI@Z 000000018001c260 f i * CIL library *:* CIL module *
 0001:0001b260       ??_GCAEBELLUploadThread@@EEAAPEAXI@Z 000000018001c260 f i AebellUploadThread.obj
 0001:0001b290       ??1CAEBELLUploadThread@@EEAA@XZ 000000018001c290 f   AebellUploadThread.obj
 0001:0001b340       ?run@CAEBELLUploadThread@@UEAAKXZ 000000018001c340 f   AebellUploadThread.obj
 0001:0001b410       ?DriverNextUpload@CAEBELLUploadThread@@AEAAXXZ 000000018001c410 f   AebellUploadThread.obj
 0001:0001b520       ?PushUploadTask@CAEBELLUploadThread@@QEAAXV?$shared_ptr@VCUploadFileTask@@@std@@@Z 000000018001c520 f   AebellUploadThread.obj
 0001:0001b5e0       ?getUploadTask@CAEBELLUploadThread@@QEAA?AV?$shared_ptr@VCUploadFileTask@@@std@@XZ 000000018001c5e0 f   AebellUploadThread.obj
 0001:0001b6fc       __imp_load_node_module_register 000000018001c6fc f   node:node.exe
 0001:0001b708       __tailMerge_node_exe       000000018001c708 f i node:node.exe
 0001:0001b781       __imp_load_?Uint32Value@Value@v8@@QEBAIXZ 000000018001c781 f   node:node.exe
 0001:0001b78d       __imp_load_?GetFunction@FunctionTemplate@v8@@QEAA?AV?$Local@VFunction@v8@@@2@XZ 000000018001c78d f   node:node.exe
 0001:0001b799       __imp_load_?New@FunctionTemplate@v8@@SA?AV?$Local@VFunctionTemplate@v8@@@2@PEAVIsolate@2@P6AXAEBV?$FunctionCallbackInfo@VValue@v8@@@2@@ZV?$Local@VValue@v8@@@2@V?$Local@VSignature@v8@@@2@HW4ConstructorBehavior@2@@Z 000000018001c799 f   node:node.exe
 0001:0001b7a5       __imp_load_??1Utf8Value@String@v8@@QEAA@XZ 000000018001c7a5 f   node:node.exe
 0001:0001b7b1       __imp_load_??0Utf8Value@String@v8@@QEAA@V?$Local@VValue@v8@@@2@@Z 000000018001c7b1 f   node:node.exe
 0001:0001b7bd       __imp_load_?NewFromUtf8@String@v8@@SA?AV?$Local@VString@v8@@@2@PEAVIsolate@2@PEBDW4NewStringType@12@H@Z 000000018001c7bd f   node:node.exe
 0001:0001b7c9       __imp_load_?New@Array@v8@@SA?AV?$Local@VArray@v8@@@2@PEAVIsolate@2@H@Z 000000018001c7c9 f   node:node.exe
 0001:0001b7d5       __imp_load_?Length@Array@v8@@QEBAIXZ 000000018001c7d5 f   node:node.exe
 0001:0001b7e1       __imp_load_??1HandleScope@v8@@QEAA@XZ 000000018001c7e1 f   node:node.exe
 0001:0001b7ed       __imp_load_??0HandleScope@v8@@QEAA@PEAVIsolate@1@@Z 000000018001c7ed f   node:node.exe
 0001:0001b7f9       __imp_load_?New@Number@v8@@SA?AV?$Local@VNumber@v8@@@2@PEAVIsolate@2@N@Z 000000018001c7f9 f   node:node.exe
 0001:0001b805       __imp_load_?New@Object@v8@@SA?AV?$Local@VObject@v8@@@2@PEAVIsolate@2@@Z 000000018001c805 f   node:node.exe
 0001:0001b811       __imp_load_?Get@Object@v8@@QEAA?AV?$Local@VValue@v8@@@2@V32@@Z 000000018001c811 f   node:node.exe
 0001:0001b81d       __imp_load_?Get@Object@v8@@QEAA?AV?$Local@VValue@v8@@@2@I@Z 000000018001c81d f   node:node.exe
 0001:0001b829       __imp_load_?Set@Object@v8@@QEAA_NV?$Local@VValue@v8@@@2@0@Z 000000018001c829 f   node:node.exe
 0001:0001b835       __imp_load_?Set@Object@v8@@QEAA_NIV?$Local@VValue@v8@@@2@@Z 000000018001c835 f   node:node.exe
 0001:0001b841       __imp_load_?SetName@Function@v8@@QEAAXV?$Local@VString@v8@@@2@@Z 000000018001c841 f   node:node.exe
 0001:0001b84d       __imp_load_?GetCurrent@Isolate@v8@@SAPEAV12@XZ 000000018001c84d f   node:node.exe
 0001:0001b859       __imp_load_??DUtf8Value@String@v8@@QEAAPEADXZ 000000018001c859 f   node:node.exe
 0001:0001b868       ??0bad_alloc@std@@QEAA@AEBV01@@Z 000000018001c868 f i libcpmt:xthrow.obj
 0001:0001b88c       ??0length_error@std@@QEAA@AEBV01@@Z 000000018001c88c f i libcpmt:xthrow.obj
 0001:0001b8b0       ??0logic_error@std@@QEAA@AEBV01@@Z 000000018001c8b0 f i libcpmt:xthrow.obj
 0001:0001b8d4       ??0out_of_range@std@@QEAA@AEBV01@@Z 000000018001c8d4 f i libcpmt:xthrow.obj
 0001:0001b8f8       ??1bad_alloc@std@@UEAA@XZ  000000018001c8f8 f i libcpmt:xthrow.obj
 0001:0001b908       ??1length_error@std@@UEAA@XZ 000000018001c908 f i libcpmt:xthrow.obj
 0001:0001b908       ??1out_of_range@std@@UEAA@XZ 000000018001c908 f i libcpmt:xthrow.obj
 0001:0001b910       ??_Gbad_alloc@std@@UEAAPEAXI@Z 000000018001c910 f i libcpmt:xthrow.obj
 0001:0001b910       ??_Ebad_alloc@std@@UEAAPEAXI@Z 000000018001c910 f i libcpmt:xthrow.obj
 0001:0001b94c       ??_Eout_of_range@std@@UEAAPEAXI@Z 000000018001c94c f i libcpmt:xthrow.obj
 0001:0001b94c       ??_Gout_of_range@std@@UEAAPEAXI@Z 000000018001c94c f i libcpmt:xthrow.obj
 0001:0001b94c       ??_Elength_error@std@@UEAAPEAXI@Z 000000018001c94c f i libcpmt:xthrow.obj
 0001:0001b94c       ??_Elogic_error@std@@UEAAPEAXI@Z 000000018001c94c f i libcpmt:xthrow.obj
 0001:0001b94c       ??_Glength_error@std@@UEAAPEAXI@Z 000000018001c94c f i libcpmt:xthrow.obj
 0001:0001b94c       ??_Glogic_error@std@@UEAAPEAXI@Z 000000018001c94c f i libcpmt:xthrow.obj
 0001:0001b97c       ?_Xbad_alloc@std@@YAXXZ    000000018001c97c f   libcpmt:xthrow.obj
 0001:0001b9c0       ?_Xlength_error@std@@YAXPEBD@Z 000000018001c9c0 f   libcpmt:xthrow.obj
 0001:0001b9f8       ?_Xout_of_range@std@@YAXPEBD@Z 000000018001c9f8 f   libcpmt:xthrow.obj
 0001:0001ba30       ??_U@YAPEAX_K@Z            000000018001ca30 f   libcpmt:newaop.obj
 0001:0001ba38       ??4?$_Yarn@D@std@@QEAAAEAV01@PEBD@Z 000000018001ca38 f i libcpmt:locale0.obj
 0001:0001bab0       ??_E_Locimp@locale@std@@MEAAPEAXI@Z 000000018001cab0 f i libcpmt:locale0.obj
 0001:0001bab0       ??_G_Locimp@locale@std@@MEAAPEAXI@Z 000000018001cab0 f i libcpmt:locale0.obj
 0001:0001bb08       ?_Facet_Register@std@@YAXPEAV_Facet_base@1@@Z 000000018001cb08 f   libcpmt:locale0.obj
 0001:0001bb3c       ?_Getgloballocale@locale@std@@CAPEAV_Locimp@12@XZ 000000018001cb3c f   libcpmt:locale0.obj
 0001:0001bb44       ?_Init@locale@std@@CAPEAV_Locimp@12@_N@Z 000000018001cb44 f   libcpmt:locale0.obj
 0001:0001bbe4       ?_Locimp_dtor@_Locimp@locale@std@@CAXPEAV123@@Z 000000018001cbe4 f   libcpmt:locale0.obj
 0001:0001bc5c       ?_Locinfo_ctor@_Locinfo@std@@SAXPEAV12@PEBD@Z 000000018001cc5c f   libcpmt:locale0.obj
 0001:0001bcc8       ?_Locinfo_dtor@_Locinfo@std@@SAXPEAV12@@Z 000000018001ccc8 f   libcpmt:locale0.obj
 0001:0001bcec       ?_New_Locimp@_Locimp@locale@std@@CAPEAV123@_N@Z 000000018001ccec f   libcpmt:locale0.obj
 0001:0001bd58       ?_Setgloballocale@locale@std@@CAXPEAX@Z 000000018001cd58 f   libcpmt:locale0.obj
 0001:0001bd8c       _Deletegloballocale        000000018001cd8c f   libcpmt:locale0.obj
 0001:0001bdec       ?_Ios_base_dtor@ios_base@std@@CAXPEAV12@@Z 000000018001cdec f   libcpmt:ios.obj
 0001:0001be50       ?_Tidy@ios_base@std@@AEAAXXZ 000000018001ce50 f i libcpmt:ios.obj
 0001:0001bec0       ??0_Init_locks@std@@QEAA@XZ 000000018001cec0 f   libcpmt:xlock.obj
 0001:0001bf0c       ??0_Lockit@std@@QEAA@H@Z   000000018001cf0c f   libcpmt:xlock.obj
 0001:0001bf4c       ??1_Init_locks@std@@QEAA@XZ 000000018001cf4c f   libcpmt:xlock.obj
 0001:0001bf88       ??1_Lockit@std@@QEAA@XZ    000000018001cf88 f   libcpmt:xlock.obj
 0001:0001bfc0       ??$_Xfiopen@D@std@@YAPEAU_iobuf@@PEBDHH@Z 000000018001cfc0 f i libcpmt:fiopen.obj
 0001:0001c0bc       ??$_Xfiopen@_W@std@@YAPEAU_iobuf@@PEB_WHH@Z 000000018001d0bc f i libcpmt:fiopen.obj
 0001:0001c1b8       ?_Fiopen@std@@YAPEAU_iobuf@@PEBDHH@Z 000000018001d1b8 f   libcpmt:fiopen.obj
 0001:0001c1c0       ?_Fiopen@std@@YAPEAU_iobuf@@PEB_WHH@Z 000000018001d1c0 f   libcpmt:fiopen.obj
 0001:0001c1c8       _Getctype                  000000018001d1c8 f   libcpmt:_tolower.obj
 0001:0001c244       _Tolower                   000000018001d244 f   libcpmt:_tolower.obj
 0001:0001c378       _Toupper                   000000018001d378 f   libcpmt:_toupper.obj
 0001:0001c4bc       ?_Atexit@@YAXP6AXXZ@Z      000000018001d4bc f   libcpmt:iosptrs.obj
 0001:0001c4fc       _Mtxdst                    000000018001d4fc f   libcpmt:xmtx.obj
 0001:0001c504       _Mtxinit                   000000018001d504 f   libcpmt:xmtx.obj
 0001:0001c514       _Mtxlock                   000000018001d514 f   libcpmt:xmtx.obj
 0001:0001c51c       _Mtxunlock                 000000018001d51c f   libcpmt:xmtx.obj
 0001:0001c540       __security_check_cookie    000000018001d540 f   LIBCMT:amdsecgs.obj
 0001:0001c570       memcpy                     000000018001d570 f   LIBCMT:memcpy.obj
 0001:0001c570       memmove                    000000018001d570 f   LIBCMT:memcpy.obj
 0001:0001cad8       _vsnprintf_helper          000000018001dad8 f   LIBCMT:vsnprnc.obj
 0001:0001cbc0       _vsnprintf_s               000000018001dbc0 f   LIBCMT:vsnprnc.obj
 0001:0001cbe0       _vsnprintf_s_l             000000018001dbe0 f   LIBCMT:vsnprnc.obj
 0001:0001cd28       __onexitinit               000000018001dd28 f   LIBCMT:onexit.obj
 0001:0001cd6c       _onexit                    000000018001dd6c f   LIBCMT:onexit.obj
 0001:0001ce78       atexit                     000000018001de78 f   LIBCMT:onexit.obj
 0001:0001ce90       atoll                      000000018001de90 f   LIBCMT:atox.obj
 0001:0001ce9c       _get_printf_count_output   000000018001de9c f   LIBCMT:printf.obj
 0001:0001ceb4       printf                     000000018001deb4 f   LIBCMT:printf.obj
 0001:0001cf60       ??_V@YAXPEAX@Z             000000018001df60 f   LIBCMT:delete2.obj
 0001:0001cf68       _purecall                  000000018001df68 f   LIBCMT:purevirt.obj
 0001:0001cf94       ??3@YAXPEAX@Z              000000018001df94 f   LIBCMT:delete.obj
 0001:0001cf9c       ??2@YAPEAX_K@Z             000000018001df9c f   LIBCMT:new.obj
 0001:0001d008       _set_abort_behavior        000000018001e008 f   LIBCMT:abort.obj
 0001:0001d024       abort                      000000018001e024 f   LIBCMT:abort.obj
 0001:0001d07c       _call_reportfault          000000018001e07c f   LIBCMT:invarg.obj
 0001:0001d170       _initp_misc_invarg         000000018001e170 f   LIBCMT:invarg.obj
 0001:0001d178       _invalid_parameter         000000018001e178 f   LIBCMT:invarg.obj
 0001:0001d1e0       _invalid_parameter_noinfo  000000018001e1e0 f   LIBCMT:invarg.obj
 0001:0001d200       _invoke_watson             000000018001e200 f   LIBCMT:invarg.obj
 0001:0001d23c       fputc                      000000018001e23c f   LIBCMT:fputc.obj
 0001:0001d34c       free                       000000018001e34c f   LIBCMT:free.obj
 0001:0001d38c       __initstdio                000000018001e38c f   LIBCMT:_file.obj
 0001:0001d424       __endstdio                 000000018001e424 f   LIBCMT:_file.obj
 0001:0001d454       __iob_func                 000000018001e454 f   LIBCMT:_file.obj
 0001:0001d45c       _lock_file                 000000018001e45c f   LIBCMT:_file.obj
 0001:0001d4c4       _lock_file2                000000018001e4c4 f   LIBCMT:_file.obj
 0001:0001d4f8       _unlock_file               000000018001e4f8 f   LIBCMT:_file.obj
 0001:0001d548       _unlock_file2              000000018001e548 f   LIBCMT:_file.obj
 0001:0001d568       _ungetc_nolock             000000018001e568 f   LIBCMT:ungetc.obj
 0001:0001d670       ungetc                     000000018001e670 f   LIBCMT:ungetc.obj
 0001:0001d6d0       fgetpos                    000000018001e6d0 f   LIBCMT:fgetpos.obj
 0001:0001d71c       _fseeki64                  000000018001e71c f   LIBCMT:fseeki64.obj
 0001:0001d790       _fseeki64_nolock           000000018001e790 f   LIBCMT:fseeki64.obj
 0001:0001d844       _fflush_nolock             000000018001e844 f   LIBCMT:fflush.obj
 0001:0001d890       _flush                     000000018001e890 f   LIBCMT:fflush.obj
 0001:0001d90c       _flushall                  000000018001e90c f   LIBCMT:fflush.obj
 0001:0001d918       fflush                     000000018001e918 f   LIBCMT:fflush.obj
 0001:0001da44       fgetc                      000000018001ea44 f   LIBCMT:fgetc.obj
 0001:0001db44       fsetpos                    000000018001eb44 f   LIBCMT:fsetpos.obj
 0001:0001db7c       setvbuf                    000000018001eb7c f   LIBCMT:setvbuf.obj
 0001:0001dc94       memcpy_s                   000000018001ec94 f   LIBCMT:memcpy_s.obj
 0001:0001dd1c       _fwrite_nolock             000000018001ed1c f   LIBCMT:fwrite.obj
 0001:0001deac       fwrite                     000000018001eeac f   LIBCMT:fwrite.obj
 0001:0001df3c       _fclose_nolock             000000018001ef3c f   LIBCMT:fclose.obj
 0001:0001dfb8       fclose                     000000018001efb8 f   LIBCMT:fclose.obj
 0001:0001e020       _beginthreadex             000000018001f020 f   LIBCMT:threadex.obj
 0001:0001e13c       _endthreadex               000000018001f13c f   LIBCMT:threadex.obj
 0001:0001e2d0       sprintf                    000000018001f2d0 f   LIBCMT:sprintf.obj
 0001:0001e370       ??0_LocaleUpdate@@QEAA@PEAUlocaleinfo_struct@@@Z 000000018001f370 f i LIBCMT:stricmp.obj
 0001:0001e418       __ascii_stricmp            000000018001f418 f   LIBCMT:stricmp.obj
 0001:0001e454       _stricmp                   000000018001f454 f   LIBCMT:stricmp.obj
 0001:0001e49c       _stricmp_l                 000000018001f49c f   LIBCMT:stricmp.obj
 0001:0001e550       _CRT_INIT                  000000018001f550 f   LIBCMT:dllcrt0.obj
 0001:0001e6b0       _DllMainCRTStartup         000000018001f6b0 f   LIBCMT:dllcrt0.obj
 0001:0001e820       strlen                     000000018001f820 f   LIBCMT:strlen.obj
 0001:0001e8c8       _CxxThrowException         000000018001f8c8 f   LIBCMT:throw.obj
 0001:0001e990       ?_GetEstablisherFrame@@YAPEA_KPEA_KPEAU_xDISPATCHER_CONTEXT@@PEBU_s_FuncInfo@@0@Z 000000018001f990 f   LIBCMT:trnsctrl.obj
 0001:0001ea5c       ?_GetRangeOfTrysToCheck@@YAPEBU_s_TryBlockMapEntry@@PEA_KPEBU_s_FuncInfo@@HHPEAI2PEAU_xDISPATCHER_CONTEXT@@@Z 000000018001fa5c f   LIBCMT:trnsctrl.obj
 0001:0001eb88       ?__FrameUnwindToEmptyState@@YAXPEA_KPEAU_xDISPATCHER_CONTEXT@@PEBU_s_FuncInfo@@@Z 000000018001fb88 f   LIBCMT:trnsctrl.obj
 0001:0001ec1c       ?__SehTransFilter@@YAHPEAU_EXCEPTION_POINTERS@@PEAUEHExceptionRecord@@PEA_KPEAU_CONTEXT@@PEAU_xDISPATCHER_CONTEXT@@PEBU_s_FuncInfo@@PEAH@Z 000000018001fc1c f   LIBCMT:trnsctrl.obj
 0001:0001ecc0       _CallSETranslator          000000018001fcc0 f   LIBCMT:trnsctrl.obj
 0001:0001ed14       _CreateFrameInfo           000000018001fd14 f   LIBCMT:trnsctrl.obj
 0001:0001ed58       _FindAndUnlinkFrame        000000018001fd58 f   LIBCMT:trnsctrl.obj
 0001:0001edb8       _GetImageBase              000000018001fdb8 f   LIBCMT:trnsctrl.obj
 0001:0001edd0       _GetThrowImageBase         000000018001fdd0 f   LIBCMT:trnsctrl.obj
 0001:0001ede8       _IsExceptionObjectToBeDestroyed 000000018001fde8 f   LIBCMT:trnsctrl.obj
 0001:0001ee1c       _SetImageBase              000000018001fe1c f   LIBCMT:trnsctrl.obj
 0001:0001ee38       _SetThrowImageBase         000000018001fe38 f   LIBCMT:trnsctrl.obj
 0001:0001ee54       _UnwindNestedFrames        000000018001fe54 f   LIBCMT:trnsctrl.obj
 0001:0001ef78       __CxxFrameHandler3         000000018001ff78 f   LIBCMT:trnsctrl.obj
 0001:0001f000       ??8type_info@@QEBA_NAEBV0@@Z 0000000180020000 f   LIBCMT:typinfo.obj
 0001:0001f020       ??_Gtype_info@@UEAAPEAXI@Z 0000000180020020 f i LIBCMT:typinfo.obj
 0001:0001f020       ??_Etype_info@@UEAAPEAXI@Z 0000000180020020 f i LIBCMT:typinfo.obj
 0001:0001f05c       _fpmath                    000000018002005c f   LIBCMT:fpinit.obj
 0001:0001f064       _cfltcvt_init              0000000180020064 f   LIBCMT:fpinit.obj
 0001:0001f0ec       ??0exception@std@@QEAA@AEBQEBD@Z 00000001800200ec f   LIBCMT:stdexcpt.obj
 0001:0001f11c       ??0exception@std@@QEAA@AEBQEBDH@Z 000000018002011c f   LIBCMT:stdexcpt.obj
 0001:0001f138       ??0exception@std@@QEAA@AEBV01@@Z 0000000180020138 f   LIBCMT:stdexcpt.obj
 0001:0001f164       ??1exception@std@@UEAA@XZ  0000000180020164 f   LIBCMT:stdexcpt.obj
 0001:0001f174       ??4exception@std@@QEAAAEAV01@AEBV01@@Z 0000000180020174 f   LIBCMT:stdexcpt.obj
 0001:0001f1b8       ??_Eexception@std@@UEAAPEAXI@Z 00000001800201b8 f i LIBCMT:stdexcpt.obj
 0001:0001f1b8       ??_Gexception@std@@UEAAPEAXI@Z 00000001800201b8 f i LIBCMT:stdexcpt.obj
 0001:0001f1f4       ?_Copy_str@exception@std@@AEAAXPEBD@Z 00000001800201f4 f   LIBCMT:stdexcpt.obj
 0001:0001f250       ?_Tidy@exception@std@@AEAAXXZ 0000000180020250 f   LIBCMT:stdexcpt.obj
 0001:0001f278       ?what@exception@std@@UEBAPEBDXZ 0000000180020278 f   LIBCMT:stdexcpt.obj
 0001:0001f28c       malloc                     000000018002028c f   LIBCMT:malloc.obj
 0001:0001f344       setlocale                  0000000180020344 f   LIBCMT:setlocal.obj
 0001:0001f5b4       _lock                      00000001800205b4 f   LIBCMT:mlock.obj
 0001:0001f5f8       _mtdeletelocks             00000001800205f8 f   LIBCMT:mlock.obj
 0001:0001f680       _mtinitlocknum             0000000180020680 f   LIBCMT:mlock.obj
 0001:0001f740       _mtinitlocks               0000000180020740 f   LIBCMT:mlock.obj
 0001:0001f7a4       _unlock                    00000001800207a4 f   LIBCMT:mlock.obj
 0001:0001f7bc       _fsopen                    00000001800207bc f   LIBCMT:fopen.obj
 0001:0001f894       _fseek_nolock              0000000180020894 f   LIBCMT:fseek.obj
 0001:0001f940       fseek                      0000000180020940 f   LIBCMT:fseek.obj
 0001:0001f9b4       _wfsopen                   00000001800209b4 f   LIBCMT:wfopen.obj
 0001:0001fa94       __pctype_func              0000000180020a94 f   LIBCMT:ctype.obj
 0001:0001fad0       isdigit                    0000000180020ad0 f i LIBCMT:_ctype.obj
 0001:0001fb4c       islower                    0000000180020b4c f i LIBCMT:_ctype.obj
 0001:0001fbc8       isupper                    0000000180020bc8 f i LIBCMT:_ctype.obj
 0001:0001fc44       _wcsdup                    0000000180020c44 f   LIBCMT:wcsdup.obj
 0001:0001fcbc       ___lc_codepage_func        0000000180020cbc f   LIBCMT:initctyp.obj
 0001:0001fcf4       ___lc_locale_name_func     0000000180020cf4 f   LIBCMT:initctyp.obj
 0001:0001fd30       __init_ctype               0000000180020d30 f   LIBCMT:initctyp.obj
 0001:00020440       __crtLCMapStringA          0000000180021440 f   LIBCMT:a_map.obj
 0001:000204d8       _calloc_crt                00000001800214d8 f   LIBCMT:crtheap.obj
 0001:00020558       _malloc_crt                0000000180021558 f   LIBCMT:crtheap.obj
 0001:000205d4       _realloc_crt               00000001800215d4 f   LIBCMT:crtheap.obj
 0001:00020670       memset                     0000000180021670 f   LIBCMT:memset.obj
 0001:000208b0       strcmp                     00000001800218b0 f   LIBCMT:strcmp.obj
 0001:00020918       __GSHandlerCheck           0000000180021918 f   LIBCMT:gshandler.obj
 0001:00020938       __GSHandlerCheckCommon     0000000180021938 f   LIBCMT:gshandler.obj
 0001:0002099c       __crtCaptureCurrentContext 000000018002199c f   LIBCMT:winapisupp.obj
 0001:00020a0c       __crtCapturePreviousContext 0000000180021a0c f   LIBCMT:winapisupp.obj
 0001:00020a80       __crtFlsAlloc              0000000180021a80 f   LIBCMT:winapisupp.obj
 0001:00020a9c       __crtFlsFree               0000000180021a9c f   LIBCMT:winapisupp.obj
 0001:00020ab8       __crtFlsGetValue           0000000180021ab8 f   LIBCMT:winapisupp.obj
 0001:00020ad4       __crtFlsSetValue           0000000180021ad4 f   LIBCMT:winapisupp.obj
 0001:00020af0       __crtInitializeCriticalSectionEx 0000000180021af0 f   LIBCMT:winapisupp.obj
 0001:00020b1c       __crtIsPackagedApp         0000000180021b1c f   LIBCMT:winapisupp.obj
 0001:00020b68       __crtLoadWinApiPointers    0000000180021b68 f   LIBCMT:winapisupp.obj
 0001:00020f64       __crtSleep                 0000000180021f64 f   LIBCMT:winapisupp.obj
 0001:00020f6c       __crtTerminateProcess      0000000180021f6c f   LIBCMT:winapisupp.obj
 0001:00020f8c       __crtUnhandledException    0000000180021f8c f   LIBCMT:winapisupp.obj
 0001:00020fac       __doserrno                 0000000180021fac f   LIBCMT:dosmap.obj
 0001:00020fcc       _dosmaperr                 0000000180021fcc f   LIBCMT:dosmap.obj
 0001:0002101c       _errno                     000000018002201c f   LIBCMT:dosmap.obj
 0001:0002103c       _get_errno_from_oserr      000000018002203c f   LIBCMT:dosmap.obj
 0001:00021108       _ismbblead                 0000000180022108 f   LIBCMT:ismbbyte.obj
 0001:0002111c       wcslen                     000000018002211c f   LIBCMT:wcslen.obj
 0001:00021138       _tolower_l                 0000000180022138 f   LIBCMT:tolower.obj
 0001:0002128c       tolower                    000000018002228c f   LIBCMT:tolower.obj
 0001:000212c0       memcmp                     00000001800222c0 f   LIBCMT:memcmp.obj
 0001:00021388       GetTableIndexFromLcid      0000000180022388 f   LIBCMT:winapinls.obj
 0001:000213cc       GetTableIndexFromLocaleName 00000001800223cc f   LIBCMT:winapinls.obj
 0001:00021458       __crtDownlevelLCIDToLocaleName 0000000180022458 f   LIBCMT:winapinls.obj
 0001:00021508       __crtDownlevelLocaleNameToLCID 0000000180022508 f   LIBCMT:winapinls.obj
 0001:00021548       __crtEnumSystemLocalesEx   0000000180022548 f   LIBCMT:winapinls.obj
 0001:0002158c       __crtGetLocaleInfoEx       000000018002258c f   LIBCMT:winapinls.obj
 0001:000215dc       __crtGetUserDefaultLocaleName 00000001800225dc f   LIBCMT:winapinls.obj
 0001:00021620       __crtIsValidLocaleName     0000000180022620 f   LIBCMT:winapinls.obj
 0001:00021654       __crtLCMapStringEx         0000000180022654 f   LIBCMT:winapinls.obj
 0001:000216e4       __wcsnicmp_ascii           00000001800226e4 f   LIBCMT:winapinls.obj
 0001:0002173c       __crtLCMapStringW          000000018002273c f   LIBCMT:w_map.obj
 0001:00021788       __raise_securityfailure    0000000180022788 f   LIBCMT:gs_report.obj
 0001:000217d4       __report_gsfailure         00000001800227d4 f   LIBCMT:gs_report.obj
 0001:000218a8       __report_rangecheckfailure 00000001800228a8 f   LIBCMT:gs_report.obj
 0001:000218bc       __report_securityfailure   00000001800228bc f   LIBCMT:gs_report.obj
 0001:00021958       __isa_available_init       0000000180022958 f   LIBCMT:cpu_disp.obj
 0001:00021afc       _flsbuf                    0000000180022afc f   LIBCMT:_flsbuf.obj
 0001:00021c88       _output_l                  0000000180022c88 f   LIBCMT:output.obj
 0001:0002272c       _output_s_l                000000018002372c f   LIBCMT:outputs.obj
 0001:000231f0       __copy_path_to_wide_string 00000001800241f0 f   LIBCMT:crt0dat.obj
 0001:000232f0       __crtCorExitProcess        00000001800242f0 f   LIBCMT:crt0dat.obj
 0001:00023334       __crtExitProcess           0000000180024334 f   LIBCMT:crt0dat.obj
 0001:0002334c       __freeCrtMemory            000000018002434c f   LIBCMT:crt0dat.obj
 0001:00023494       _amsg_exit                 0000000180024494 f   LIBCMT:crt0dat.obj
 0001:000234bc       _cexit                     00000001800244bc f   LIBCMT:crt0dat.obj
 0001:000234cc       _cinit                     00000001800244cc f   LIBCMT:crt0dat.obj
 0001:00023564       _exit                      0000000180024564 f   LIBCMT:crt0dat.obj
 0001:00023570       _init_pointers             0000000180024570 f   LIBCMT:crt0dat.obj
 0001:0002361c       _initterm_e                000000018002461c f   LIBCMT:crt0dat.obj
 0001:00023658       _lockexit                  0000000180024658 f   LIBCMT:crt0dat.obj
 0001:00023664       _unlockexit                0000000180024664 f   LIBCMT:crt0dat.obj
 0001:00023808       _msize                     0000000180024808 f   LIBCMT:msize.obj
 0001:00023844       __C_specific_handler       0000000180024844 f   LIBCMT:chandler.obj
 0001:00023c78       _strtoi64                  0000000180024c78 f   LIBCMT:strtoq.obj
 0001:00023ca8       _ftbuf                     0000000180024ca8 f   LIBCMT:_sftbuf.obj
 0001:00023ce0       _stbuf                     0000000180024ce0 f   LIBCMT:_sftbuf.obj
 0001:00023db0       __getlocaleinfo            0000000180024db0 f   LIBCMT:inithelp.obj
 0001:00023f98       _initp_misc_purevirt       0000000180024f98 f   LIBCMT:inithelp.obj
 0001:00023fa0       _callnewh                  0000000180024fa0 f   LIBCMT:handler.obj
 0001:00023fd4       _initp_heap_handler        0000000180024fd4 f   LIBCMT:handler.obj
 0001:00023fdc       __get_sigabrt              0000000180024fdc f   LIBCMT:winsig.obj
 0001:00023fec       _initp_misc_winsig         0000000180024fec f   LIBCMT:winsig.obj
 0001:0002400c       raise                      000000018002500c f   LIBCMT:winsig.obj
 0001:00024240       __crt_debugger_hook        0000000180025240 f   LIBCMT:dbghook.obj
 0001:00024248       _fileno                    0000000180025248 f   LIBCMT:fileno.obj
 0001:00024270       _ioinit                    0000000180025270 f   LIBCMT:ioinit.obj
 0001:000245a0       _ioterm                    00000001800255a0 f   LIBCMT:ioinit.obj
 0001:00024614       _heap_init                 0000000180025614 f   LIBCMT:heapinit.obj
 0001:00024634       _heap_term                 0000000180025634 f   LIBCMT:heapinit.obj
 0001:00024640       _fcloseall                 0000000180025640 f   LIBCMT:closeall.obj
 0001:000246e8       _getbuf                    00000001800256e8 f   LIBCMT:_getbuf.obj
 0001:0002473c       _ftelli64                  000000018002573c f   LIBCMT:ftelli64.obj
 0001:00024798       _ftelli64_nolock           0000000180025798 f   LIBCMT:ftelli64.obj
 0001:00024aac       _lseeki64                  0000000180025aac f   LIBCMT:lseeki64.obj
 0001:00024b94       _lseeki64_nolock           0000000180025b94 f   LIBCMT:lseeki64.obj
 0001:00024c28       _commit                    0000000180025c28 f   LIBCMT:commit.obj
 0001:00024d00       _write                     0000000180025d00 f   LIBCMT:write.obj
 0001:00024de4       _write_nolock              0000000180025de4 f   LIBCMT:write.obj
 0001:000255d8       _filbuf                    00000001800265d8 f   LIBCMT:_filbuf.obj
 0001:0002571c       _freebuf                   000000018002671c f   LIBCMT:_freebuf.obj
 0001:00025754       _close                     0000000180026754 f   LIBCMT:close.obj
 0001:00025818       _close_nolock              0000000180026818 f   LIBCMT:close.obj
 0001:000258d4       _XcptFilter                00000001800268d4 f   LIBCMT:winxfltr.obj
 0001:00025aa0       __CppXcptFilter            0000000180026aa0 f   LIBCMT:winxfltr.obj
 0001:00025ab4       __get_flsindex             0000000180026ab4 f   LIBCMT:tidtable.obj
 0001:00025abc       _freefls                   0000000180026abc f   LIBCMT:tidtable.obj
 0001:00025bf0       _freeptd                   0000000180026bf0 f   LIBCMT:tidtable.obj
 0001:00025c2c       _getptd                    0000000180026c2c f   LIBCMT:tidtable.obj
 0001:00025c50       _getptd_noexit             0000000180026c50 f   LIBCMT:tidtable.obj
 0001:00025cd4       _initptd                   0000000180026cd4 f   LIBCMT:tidtable.obj
 0001:00025d98       _mtinit                    0000000180026d98 f   LIBCMT:tidtable.obj
 0001:00025e18       _mtterm                    0000000180026e18 f   LIBCMT:tidtable.obj
 0001:00025e3c       __addlocaleref             0000000180026e3c f   LIBCMT:localref.obj
 0001:00025ec8       __freetlocinfo             0000000180026ec8 f   LIBCMT:localref.obj
 0001:00026060       __removelocaleref          0000000180027060 f   LIBCMT:localref.obj
 0001:00026104       __updatetlocinfo           0000000180027104 f   LIBCMT:localref.obj
 0001:0002617c       _updatetlocinfoEx_nolock   000000018002717c f   LIBCMT:localref.obj
 0001:000261e0       __initmbctable             00000001800271e0 f   LIBCMT:mbctype.obj
 0001:000264fc       __updatetmbcinfo           00000001800274fc f   LIBCMT:mbctype.obj
 0001:000265b8       _setmbcp                   00000001800275b8 f   LIBCMT:mbctype.obj
 0001:000267fc       _setmbcp_nolock            00000001800277fc f   LIBCMT:mbctype.obj
 0001:00026aac       _locterm                   0000000180027aac f   LIBCMT:wsetloca.obj
 0001:00026af4       __copy_locale_name         0000000180027af4 f   LIBCMT:wsetloca.obj
 0001:00026b78       __lc_lctowcs               0000000180027b78 f   LIBCMT:wsetloca.obj
 0001:00026c1c       __lc_wcstolc               0000000180027c1c f   LIBCMT:wsetloca.obj
 0001:00026e90       _expandlocale              0000000180027e90 f   LIBCMT:wsetloca.obj
 0001:00027264       _wcscats                   0000000180028264 f   LIBCMT:wsetloca.obj
 0001:000272cc       _wsetlocale                00000001800282cc f   LIBCMT:wsetloca.obj
 0001:00027bb8       _setargv                   0000000180028bb8 f   LIBCMT:stdargv.obj
 0001:00027e74       _setenvp                   0000000180028e74 f   LIBCMT:stdenvp.obj
 0001:00027fa8       __security_init_cookie     0000000180028fa8 f   LIBCMT:gs_support.obj
 0001:00028054       __crtGetEnvironmentStringsA 0000000180029054 f   LIBCMT:a_env.obj
 0001:00028148       _RTC_Initialize            0000000180029148 f   LIBCMT:initsect.obj
 0001:00028180       _RTC_Terminate             0000000180029180 f   LIBCMT:initsect.obj
 0001:000281b8       __DestructExceptionObject  00000001800291b8 f   LIBCMT:frame.obj
 0001:00028228       ??0bad_exception@std@@QEAA@AEBV01@@Z 0000000180029228 f i LIBCMT:frame.obj
 0001:0002824c       ??1bad_exception@std@@UEAA@XZ 000000018002924c f i LIBCMT:frame.obj
 0001:0002825c       ??_Gbad_exception@std@@UEAAPEAXI@Z 000000018002925c f i LIBCMT:frame.obj
 0001:0002825c       ??_Ebad_exception@std@@UEAAPEAXI@Z 000000018002925c f i LIBCMT:frame.obj
 0001:00028b50       __AdjustPointer            0000000180029b50 f   LIBCMT:frame.obj
 0001:00028b74       __BuildCatchObject         0000000180029b74 f   LIBCMT:frame.obj
 0001:00028c2c       __BuildCatchObjectHelper   0000000180029c2c f   LIBCMT:frame.obj
 0001:00028e7c       __CxxCallCatchBlock        0000000180029e7c f   LIBCMT:frame.obj
 0001:00029080       __FrameUnwindFilter        000000018002a080 f   LIBCMT:frame.obj
 0001:000290d4       __FrameUnwindToState       000000018002a0d4 f   LIBCMT:frame.obj
 0001:00029268       __InternalCxxFrameHandler  000000018002a268 f   LIBCMT:frame.obj
 0001:0002948c       __TypeMatch                000000018002a48c f   LIBCMT:frame.obj
 0001:000295bc       ?__GetCurrentState@@YAHPEA_KPEAU_xDISPATCHER_CONTEXT@@PEBU_s_FuncInfo@@@Z 000000018002a5bc f   LIBCMT:ehstate.obj
 0001:000295e4       ?__GetUnwindTryBlock@@YAHPEA_KPEAU_xDISPATCHER_CONTEXT@@PEBU_s_FuncInfo@@@Z 000000018002a5e4 f   LIBCMT:ehstate.obj
 0001:00029610       ?__SetState@@YAXPEA_KPEAU_xDISPATCHER_CONTEXT@@PEBU_s_FuncInfo@@H@Z 000000018002a610 f   LIBCMT:ehstate.obj
 0001:0002961c       ?__SetUnwindTryBlock@@YAXPEA_KPEAU_xDISPATCHER_CONTEXT@@PEBU_s_FuncInfo@@H@Z 000000018002a61c f   LIBCMT:ehstate.obj
 0001:00029658       ?__StateFromControlPc@@YAHPEBU_s_FuncInfo@@PEAU_xDISPATCHER_CONTEXT@@@Z 000000018002a658 f   LIBCMT:ehstate.obj
 0001:00029660       ?__StateFromIp@@YAHPEBU_s_FuncInfo@@PEAU_xDISPATCHER_CONTEXT@@_J@Z 000000018002a660 f   LIBCMT:ehstate.obj
 0001:000296ec       ?_inconsistency@@YAXXZ     000000018002a6ec f   LIBCMT:hooks.obj
 0001:0002970c       ?terminate@@YAXXZ          000000018002a70c f   LIBCMT:hooks.obj
 0001:0002972c       _initp_eh_hooks            000000018002a72c f   LIBCMT:hooks.obj
 0001:0002974c       ?_Type_info_dtor@type_info@@CAXPEAV1@@Z 000000018002a74c f   LIBCMT:typname.obj
 0001:000297b8       _cfltcvt                   000000018002a7b8 f   LIBCMT:cvt.obj
 0001:000297dc       _cfltcvt_l                 000000018002a7dc f   LIBCMT:cvt.obj
 0001:0002985c       _cftoa_l                   000000018002a85c f   LIBCMT:cvt.obj
 0001:00029e08       _cftoe_l                   000000018002ae08 f   LIBCMT:cvt.obj
 0001:0002a064       _cftof_l                   000000018002b064 f   LIBCMT:cvt.obj
 0001:0002a138       _cftog_l                   000000018002b138 f   LIBCMT:cvt.obj
 0001:0002a26c       _cropzeros                 000000018002b26c f   LIBCMT:cvt.obj
 0001:0002a274       _cropzeros_l               000000018002b274 f   LIBCMT:cvt.obj
 0001:0002a30c       _fassign                   000000018002b30c f   LIBCMT:cvt.obj
 0001:0002a314       _fassign_l                 000000018002b314 f   LIBCMT:cvt.obj
 0001:0002a354       _forcdecpt                 000000018002b354 f   LIBCMT:cvt.obj
 0001:0002a35c       _forcdecpt_l               000000018002b35c f   LIBCMT:cvt.obj
 0001:0002a3dc       _positive                  000000018002b3dc f   LIBCMT:cvt.obj
 0001:0002a3f0       _initp_misc_cfltcvt_tab    000000018002b3f0 f   LIBCMT:cmiscdat.obj
 0001:0002a42c       strcpy_s                   000000018002b42c f   LIBCMT:strcpy_s.obj
 0001:0002a490       _FF_MSGBANNER              000000018002b490 f   LIBCMT:crt0msg.obj
 0001:0002a4d4       _GET_RTERRMSG              000000018002b4d4 f   LIBCMT:crt0msg.obj
 0001:0002a504       _NMSG_WRITE                000000018002b504 f   LIBCMT:crt0msg.obj
 0001:0002a774       _mbstowcs_l_helper         000000018002b774 f   LIBCMT:mbstowcs.obj
 0001:0002a950       _mbstowcs_s_l              000000018002b950 f   LIBCMT:mbstowcs.obj
 0001:0002aa80       mbstowcs_s                 000000018002ba80 f   LIBCMT:mbstowcs.obj
 0001:0002aaa0       _wcstombs_l_helper         000000018002baa0 f   LIBCMT:wcstombs.obj
 0001:0002add0       _wcstombs_s_l              000000018002bdd0 f   LIBCMT:wcstombs.obj
 0001:0002aebc       _getstream                 000000018002bebc f   LIBCMT:stream.obj
 0001:0002aff4       _openfile                  000000018002bff4 f   LIBCMT:_open.obj
 0001:0002b2c0       _local_unwind              000000018002c2c0 f   LIBCMT:jmpuwind.obj
 0001:0002b2f0       _NLG_Notify                000000018002c2f0 f   LIBCMT:jmpuwind.obj
 0001:0002b310       __NLG_Dispatch2            000000018002c310 f   LIBCMT:jmpuwind.obj
 0001:0002b320       __NLG_Return2              000000018002c320 f   LIBCMT:jmpuwind.obj
 0001:0002b324       _ftell_nolock              000000018002c324 f   LIBCMT:ftell.obj
 0001:0002b638       _lseek                     000000018002c638 f   LIBCMT:lseek.obj
 0001:0002b71c       _lseek_nolock              000000018002c71c f   LIBCMT:lseek.obj
 0001:0002b800       _wopenfile                 000000018002c800 f   LIBCMT:_wopen.obj
 0001:0002bae0       _isctype_l                 000000018002cae0 f   LIBCMT:isctype.obj
 0001:0002bbbc       calloc                     000000018002cbbc f   LIBCMT:calloc.obj
 0001:0002bc00       wcscpy_s                   000000018002cc00 f   LIBCMT:wcscpy_s.obj
 0001:0002bde4       __crtGetStringTypeA        000000018002cde4 f   LIBCMT:a_str.obj
 0001:0002be70       __chkstk                   000000018002ce70 f   LIBCMT:chkstk.obj
 0001:0002be70       _alloca_probe              000000018002ce70 f   LIBCMT:chkstk.obj
 0001:0002bec0       realloc                    000000018002cec0 f   LIBCMT:realloc.obj
 0001:0002bf94       _calloc_impl               000000018002cf94 f   LIBCMT:calloc_impl.obj
 0001:0002c030       _wcsicmp                   000000018002d030 f   LIBCMT:wcsicmp.obj
 0001:0002c0b4       _wcsicmp_l                 000000018002d0b4 f   LIBCMT:wcsicmp.obj
 0001:0002c1a4       _isleadbyte_l              000000018002d1a4 f i LIBCMT:_wctype.obj
 0001:0002c1e8       isleadbyte                 000000018002d1e8 f i LIBCMT:_wctype.obj
 0001:0002c230       wcsnlen                    000000018002d230 f   LIBCMT:wcslen_s.obj
 0001:0002c250       _isatty                    000000018002d250 f   LIBCMT:isatty.obj
 0001:0002c2b0       _wctomb_s_l                000000018002d2b0 f   LIBCMT:wctomb.obj
 0001:0002c43c       wctomb_s                   000000018002d43c f   LIBCMT:wctomb.obj
 0001:0002c450       _FindPESection             000000018002d450 f   LIBCMT:pesect.obj
 0001:0002c4a0       _IsNonwritableInCurrentImage 000000018002d4a0 f   LIBCMT:pesect.obj
 0001:0002c4f0       _ValidateImageBase         000000018002d4f0 f   LIBCMT:pesect.obj
 0001:0002c520       _initp_misc_rand_s         000000018002d520 f   LIBCMT:rand_s.obj
 0001:0002c528       __crt_atoflt_l             000000018002d528 f   LIBCMT:atodbl.obj
 0001:0002c5f8       _atodbl_l                  000000018002d5f8 f   LIBCMT:atodbl.obj
 0001:0002c6c0       _atoflt_l                  000000018002d6c0 f   LIBCMT:atodbl.obj
 0001:0002c6c8       strncpy_s                  000000018002d6c8 f   LIBCMT:strncpy_s.obj
 0001:0002c8f0       __crtGetLocaleInfoA        000000018002d8f0 f   LIBCMT:a_loc.obj
 0001:0002c970       _get_fpsr                  000000018002d970 f   LIBCMT:fpsr.obj
 0001:0002c980       _set_fpsr                  000000018002d980 f   LIBCMT:fpsr.obj
 0001:0002c98a       _fclrf                     000000018002d98a f   LIBCMT:fpsr.obj
 0001:0002c99e       _frnd                      000000018002d99e f   LIBCMT:fpsr.obj
 0001:0002c9c0       _read                      000000018002d9c0 f   LIBCMT:read.obj
 0001:0002cadc       _read_nolock               000000018002dadc f   LIBCMT:read.obj
 0001:0002d34c       __lock_fhandle             000000018002e34c f   LIBCMT:osfinfo.obj
 0001:0002d3e4       _alloc_osfhnd              000000018002e3e4 f   LIBCMT:osfinfo.obj
 0001:0002d5dc       _free_osfhnd               000000018002e5dc f   LIBCMT:osfinfo.obj
 0001:0002d688       _get_osfhandle             000000018002e688 f   LIBCMT:osfinfo.obj
 0001:0002d6fc       _set_osfhnd                000000018002e6fc f   LIBCMT:osfinfo.obj
 0001:0002d7ac       _unlock_fhandle            000000018002e7ac f   LIBCMT:osfinfo.obj
 0001:0002d7d8       _mbtowc_l                  000000018002e7d8 f   LIBCMT:mbtowc.obj
 0001:0002d92c       mbtowc                     000000018002e92c f   LIBCMT:mbtowc.obj
 0001:0002d934       _putwch_nolock             000000018002e934 f   LIBCMT:putwch.obj
 0001:0002d990       __free_lconv_mon           000000018002e990 f   LIBCMT:initmon.obj
 0001:0002da9c       __init_monetary            000000018002ea9c f   LIBCMT:initmon.obj
 0001:0002df9c       __free_lconv_num           000000018002ef9c f   LIBCMT:initnum.obj
 0001:0002e008       __init_numeric             000000018002f008 f   LIBCMT:initnum.obj
 0001:0002e2d0       __free_lc_time             000000018002f2d0 f   LIBCMT:inittime.obj
 0001:0002e6cc       __init_time                000000018002f6cc f   LIBCMT:inittime.obj
 0001:0002f2e8       wcscat_s                   00000001800302e8 f   LIBCMT:wcscat_s.obj
 0001:0002f370       wcscmp                     0000000180030370 f   LIBCMT:wcscmp.obj
 0001:0002f3ac       wcscspn                    00000001800303ac f   LIBCMT:wcscspn.obj
 0001:0002f3ec       wcsncmp                    00000001800303ec f   LIBCMT:wcsncmp.obj
 0001:0002f418       wcsncpy_s                  0000000180030418 f   LIBCMT:wcsncpy_s.obj
 0001:0002f4e4       wcspbrk                    00000001800304e4 f   LIBCMT:wcspbrk.obj
 0001:0002fc78       __get_qualified_locale     0000000180030c78 f   LIBCMT:getqloc.obj
 0001:0003060c       __get_qualified_locale_downlevel 000000018003160c f   LIBCMT:getqloc_downlevel.obj
 0001:000308a4       ?_ValidateWrite@@YAHPEAXI@Z 00000001800318a4 f   LIBCMT:validate.obj
 0001:000308a4       ?_ValidateExecute@@YAHP6A_JXZ@Z 00000001800318a4 f   LIBCMT:validate.obj
 0001:000308a4       ?_ValidateRead@@YAHPEBXI@Z 00000001800318a4 f   LIBCMT:validate.obj
 0001:000308c0       _CallSettingFrame          00000001800318c0 f   LIBCMT:handlers.obj
 0001:00030900       _GetNextInstrOffset        0000000180031900 f   LIBCMT:handlers.obj
 0001:00030908       strrchr                    0000000180031908 f   LIBCMT:strrchr.obj
 0001:00030a4c       _fptostr                   0000000180031a4c f   LIBCMT:_fptostr.obj
 0001:00030b18       __dtold                    0000000180031b18 f   LIBCMT:cfout.obj
 0001:00030be8       _fltout2                   0000000180031be8 f   LIBCMT:cfout.obj
 0001:00030ca0       _fptrap                    0000000180031ca0 f   LIBCMT:crt0fp.obj
 0001:00030cac       _set_error_mode            0000000180031cac f   LIBCMT:errmode.obj
 0001:00030cec       __crtMessageBoxW           0000000180031cec f   LIBCMT:crtmboxw.obj
 0001:00030f60       _sopen_helper              0000000180031f60 f   LIBCMT:open.obj
 0001:00031040       _sopen_nolock              0000000180032040 f   LIBCMT:open.obj
 0001:000310c8       _sopen_s                   00000001800320c8 f   LIBCMT:open.obj
 0001:000310fc       _mbsnbcmp                  00000001800320fc f   LIBCMT:mbsnbcmp.obj
 0001:00031104       _mbsnbcmp_l                0000000180032104 f   LIBCMT:mbsnbcmp.obj
 0001:00031230       _mbsnbicmp                 0000000180032230 f   LIBCMT:mbsnbicm.obj
 0001:00031238       _mbsnbicmp_l               0000000180032238 f   LIBCMT:mbsnbicm.obj
 0001:000314d8       _wsopen_helper             00000001800324d8 f   LIBCMT:wopen.obj
 0001:000315b8       _wsopen_nolock             00000001800325b8 f   LIBCMT:wopen.obj
 0001:00031d70       _wsopen_s                  0000000180032d70 f   LIBCMT:wopen.obj
 0001:00031da4       _wcsnicmp                  0000000180032da4 f   LIBCMT:wcsnicmp.obj
 0001:00031e3c       _wcsnicmp_l                0000000180032e3c f   LIBCMT:wcsnicmp.obj
 0001:00031f54       _towlower_l                0000000180032f54 f   LIBCMT:towlower.obj
 0001:00032020       iswctype                   0000000180033020 f   LIBCMT:iswctype.obj
 0001:00032090       _ld12tod                   0000000180033090 f   LIBCMT:intrncvt.obj
 0001:00032648       _ld12tof                   0000000180033648 f   LIBCMT:intrncvt.obj
 0001:00032c00       __strgtold12_l             0000000180033c00 f   LIBCMT:strgtold.obj
 0001:00033464       __termconout               0000000180034464 f   LIBCMT:initcon.obj
 0001:00033484       __initconout               0000000180034484 f   LIBCMT:initcon.obj
 0001:000334c0       _itow_s                    00000001800344c0 f   LIBCMT:xtows.obj
 0001:000335f8       _wtol                      00000001800345f8 f   LIBCMT:wtox.obj
 0001:00033604       wcschr                     0000000180034604 f   LIBCMT:wcschr.obj
 0001:00033690       $I10_OUTPUT                0000000180034690 f   LIBCMT:x10fout.obj
 0001:00034180       strncmp                    0000000180035180 f   LIBCMT:strncmp.obj
 0001:00034200       __ascii_strnicmp           0000000180035200 f   LIBCMT:strnicmp.obj
 0001:00034248       _strnicmp                  0000000180035248 f   LIBCMT:strnicmp.obj
 0001:00034298       _strnicmp_l                0000000180035298 f   LIBCMT:strnicmp.obj
 0001:00034374       _chsize_nolock             0000000180035374 f   LIBCMT:chsize.obj
 0001:0003450c       _get_fmode                 000000018003550c f   LIBCMT:setmode.obj
 0001:0003453c       _setmode_nolock            000000018003553c f   LIBCMT:setmode.obj
 0001:00034618       __mtold12                  0000000180035618 f   LIBCMT:mantold.obj
 0001:00034a24       wcstol                     0000000180035a24 f   LIBCMT:wcstol.obj
 0001:00034a2c       _wchartodigit              0000000180035a2c f   LIBCMT:wchtodig.obj
 0001:00034bc2       IsProcessorFeaturePresent  0000000180035bc2 f   kernel32:KERNEL32.dll
 0001:00034bc8       RtlUnwindEx                0000000180035bc8 f   kernel32:KERNEL32.dll
 0001:00034bd0       __delayLoadHelper2         0000000180035bd0 f   DelayImp:delayhlp.obj
 0002:00000000       __imp_??1_tagNetBroadcast@@QEAA@XZ 0000000180037000     AebellIpcastSdk:AebellIpcastSdk.dll
 0002:00000008       __imp_??1_tagTimingTask@@QEAA@XZ 0000000180037008     AebellIpcastSdk:AebellIpcastSdk.dll
 0002:00000010       __imp_??0_tagNetBroadcast@@QEAA@AEBU0@@Z 0000000180037010     AebellIpcastSdk:AebellIpcastSdk.dll
 0002:00000018       __imp_??1_tagNetSpeak@@QEAA@XZ 0000000180037018     AebellIpcastSdk:AebellIpcastSdk.dll
 0002:00000020       __imp_??0_tagNetSpeak@@QEAA@AEBU0@@Z 0000000180037020     AebellIpcastSdk:AebellIpcastSdk.dll
 0002:00000028       __imp_??1_tagDeviceVolume@@QEAA@XZ 0000000180037028     AebellIpcastSdk:AebellIpcastSdk.dll
 0002:00000030       __imp_??0_tagDeviceVolume@@QEAA@AEBU0@@Z 0000000180037030     AebellIpcastSdk:AebellIpcastSdk.dll
 0002:00000038       __imp_??1_tagNetDevice@@QEAA@XZ 0000000180037038     AebellIpcastSdk:AebellIpcastSdk.dll
 0002:00000040       __imp_??0_tagNetDevice@@QEAA@AEBU0@@Z 0000000180037040     AebellIpcastSdk:AebellIpcastSdk.dll
 0002:00000048       __imp_??1_tagNetDeviceAttach@@QEAA@XZ 0000000180037048     AebellIpcastSdk:AebellIpcastSdk.dll
 0002:00000050       __imp_??0_tagNetDeviceAttach@@QEAA@AEBU0@@Z 0000000180037050     AebellIpcastSdk:AebellIpcastSdk.dll
 0002:00000058       __imp_??1_tagOperateDevice@@QEAA@XZ 0000000180037058     AebellIpcastSdk:AebellIpcastSdk.dll
 0002:00000060       __imp_??0_tagOperateDevice@@QEAA@AEBU0@@Z 0000000180037060     AebellIpcastSdk:AebellIpcastSdk.dll
 0002:00000068       __imp_??1_tagBaseTask@@QEAA@XZ 0000000180037068     AebellIpcastSdk:AebellIpcastSdk.dll
 0002:00000070       __imp_??0_tagDeviceForTask@@QEAA@XZ 0000000180037070     AebellIpcastSdk:AebellIpcastSdk.dll
 0002:00000078       __imp_??1_tagDeviceForTask@@QEAA@XZ 0000000180037078     AebellIpcastSdk:AebellIpcastSdk.dll
 0002:00000080       __imp_??1_tagPlayTaskAttach@@QEAA@XZ 0000000180037080     AebellIpcastSdk:AebellIpcastSdk.dll
 0002:00000088       __imp_??0_tagFileForTask@@QEAA@XZ 0000000180037088     AebellIpcastSdk:AebellIpcastSdk.dll
 0002:00000090       __imp_??1_tagFileForTask@@QEAA@XZ 0000000180037090     AebellIpcastSdk:AebellIpcastSdk.dll
 0002:00000098       __imp_??1_tagPlayTaskFile@@QEAA@XZ 0000000180037098     AebellIpcastSdk:AebellIpcastSdk.dll
 0002:000000a0       __imp_??0_tagTimingTask@@QEAA@AEBU0@@Z 00000001800370a0     AebellIpcastSdk:AebellIpcastSdk.dll
 0002:000000a8       __imp_??0_tagFileForTask@@QEAA@AEBU0@@Z 00000001800370a8     AebellIpcastSdk:AebellIpcastSdk.dll
 0002:000000b0       __imp_??0_tagPlayTaskAttach@@QEAA@AEBU0@@Z 00000001800370b0     AebellIpcastSdk:AebellIpcastSdk.dll
 0002:000000b8       __imp_??0_tagDeviceForTask@@QEAA@AEBU0@@Z 00000001800370b8     AebellIpcastSdk:AebellIpcastSdk.dll
 0002:000000c0       __imp_??0_tagBaseTask@@QEAA@AEBU0@@Z 00000001800370c0     AebellIpcastSdk:AebellIpcastSdk.dll
 0002:000000c8       __imp_??1_tagTaskPolicy@@QEAA@XZ 00000001800370c8     AebellIpcastSdk:AebellIpcastSdk.dll
 0002:000000d0       __imp_??0_tagLoginRequest@@QEAA@XZ 00000001800370d0     AebellIpcastSdk:AebellIpcastSdk.dll
 0002:000000d8       __imp_??0_tagPolicyStatus@@QEAA@AEBU0@@Z 00000001800370d8     AebellIpcastSdk:AebellIpcastSdk.dll
 0002:000000e0       __imp_??1_tagPolicyStatus@@QEAA@XZ 00000001800370e0     AebellIpcastSdk:AebellIpcastSdk.dll
 0002:000000e8       __imp_??0_tagDeviceStatus@@QEAA@AEBU0@@Z 00000001800370e8     AebellIpcastSdk:AebellIpcastSdk.dll
 0002:000000f0       __imp_??1_tagDeviceStatus@@QEAA@XZ 00000001800370f0     AebellIpcastSdk:AebellIpcastSdk.dll
 0002:000000f8       __imp_??1_tagNetFile@@QEAA@XZ 00000001800370f8     AebellIpcastSdk:AebellIpcastSdk.dll
 0002:00000100       __imp_??0_tagNetFile@@QEAA@AEBU0@@Z 0000000180037100     AebellIpcastSdk:AebellIpcastSdk.dll
 0002:00000108       __imp_??1_tagLoginRequest@@QEAA@XZ 0000000180037108     AebellIpcastSdk:AebellIpcastSdk.dll
 0002:00000110       __imp_??0_tagNetResource@@QEAA@XZ 0000000180037110     AebellIpcastSdk:AebellIpcastSdk.dll
 0002:00000118       __imp_??0_tagNetResource@@QEAA@AEBU0@@Z 0000000180037118     AebellIpcastSdk:AebellIpcastSdk.dll
 0002:00000120       __imp_??1_tagNetResource@@QEAA@XZ 0000000180037120     AebellIpcastSdk:AebellIpcastSdk.dll
 0002:00000128       __imp_??0_tagTimingTask@@QEAA@XZ 0000000180037128     AebellIpcastSdk:AebellIpcastSdk.dll
 0002:00000130       __imp_??0_tagNetBroadcast@@QEAA@XZ 0000000180037130     AebellIpcastSdk:AebellIpcastSdk.dll
 0002:00000138       __imp_??0_tagBaseTask@@QEAA@XZ 0000000180037138     AebellIpcastSdk:AebellIpcastSdk.dll
 0002:00000140       __imp_??0_tagNetDevice@@QEAA@XZ 0000000180037140     AebellIpcastSdk:AebellIpcastSdk.dll
 0002:00000148       __imp_??0_tagNetDeviceAttach@@QEAA@XZ 0000000180037148     AebellIpcastSdk:AebellIpcastSdk.dll
 0002:00000150       __imp_??0_tagTaskPolicy@@QEAA@XZ 0000000180037150     AebellIpcastSdk:AebellIpcastSdk.dll
 0002:00000158       __imp_??0_tagDeviceVolume@@QEAA@XZ 0000000180037158     AebellIpcastSdk:AebellIpcastSdk.dll
 0002:00000160       __imp_??0_tagPlayTaskAttach@@QEAA@XZ 0000000180037160     AebellIpcastSdk:AebellIpcastSdk.dll
 0002:00000168       __imp_??0_tagOperateDevice@@QEAA@XZ 0000000180037168     AebellIpcastSdk:AebellIpcastSdk.dll
 0002:00000170       __imp_??0_tagNetSpeak@@QEAA@XZ 0000000180037170     AebellIpcastSdk:AebellIpcastSdk.dll
 0002:00000178       __imp_??0_tagPlayTaskFile@@QEAA@XZ 0000000180037178     AebellIpcastSdk:AebellIpcastSdk.dll
 0002:00000180       __imp_??0_tagPlayTaskFile@@QEAA@AEBU0@@Z 0000000180037180     AebellIpcastSdk:AebellIpcastSdk.dll
 0002:00000188       __imp_??0_tagLoginRequest@@QEAA@AEBU0@@Z 0000000180037188     AebellIpcastSdk:AebellIpcastSdk.dll
 0002:00000190       __imp_??0_tagDeviceIDWrapper@@QEAA@AEBU0@@Z 0000000180037190     AebellIpcastSdk:AebellIpcastSdk.dll
 0002:00000198       __imp_??1_tagDeviceIDWrapper@@QEAA@XZ 0000000180037198     AebellIpcastSdk:AebellIpcastSdk.dll
 0002:000001a0       __imp_??0_tagDeviceIDWrapper@@QEAA@XZ 00000001800371a0     AebellIpcastSdk:AebellIpcastSdk.dll
 0002:000001a8       __imp_??0_tagTaskPolicy@@QEAA@AEBU0@@Z 00000001800371a8     AebellIpcastSdk:AebellIpcastSdk.dll
 0002:000001b0       \177AebellIpcastSdk_NULL_THUNK_DATA 00000001800371b0     AebellIpcastSdk:AebellIpcastSdk.dll
 0002:000001b8       __imp_CreateFileW          00000001800371b8     kernel32:KERNEL32.dll
 0002:000001c0       __imp_SetEndOfFile         00000001800371c0     kernel32:KERNEL32.dll
 0002:000001c8       __imp_GetModuleHandleA     00000001800371c8     kernel32:KERNEL32.dll
 0002:000001d0       __imp_LoadLibraryA         00000001800371d0     kernel32:KERNEL32.dll
 0002:000001d8       __imp_ResetEvent           00000001800371d8     kernel32:KERNEL32.dll
 0002:000001e0       __imp_GetLastError         00000001800371e0     kernel32:KERNEL32.dll
 0002:000001e8       __imp_CreateEventA         00000001800371e8     kernel32:KERNEL32.dll
 0002:000001f0       __imp_SetEvent             00000001800371f0     kernel32:KERNEL32.dll
 0002:000001f8       __imp_FreeLibrary          00000001800371f8     kernel32:KERNEL32.dll
 0002:00000200       __imp_TerminateThread      0000000180037200     kernel32:KERNEL32.dll
 0002:00000208       __imp_GetProcAddress       0000000180037208     kernel32:KERNEL32.dll
 0002:00000210       __imp_GetTickCount         0000000180037210     kernel32:KERNEL32.dll
 0002:00000218       __imp_CloseHandle          0000000180037218     kernel32:KERNEL32.dll
 0002:00000220       __imp_ReleaseMutex         0000000180037220     kernel32:KERNEL32.dll
 0002:00000228       __imp_CreateMutexA         0000000180037228     kernel32:KERNEL32.dll
 0002:00000230       __imp_WaitForSingleObject  0000000180037230     kernel32:KERNEL32.dll
 0002:00000238       __imp_DeleteCriticalSection 0000000180037238     kernel32:KERNEL32.dll
 0002:00000240       __imp_EnterCriticalSection 0000000180037240     kernel32:KERNEL32.dll
 0002:00000248       __imp_LeaveCriticalSection 0000000180037248     kernel32:KERNEL32.dll
 0002:00000250       __imp_InitializeCriticalSection 0000000180037250     kernel32:KERNEL32.dll
 0002:00000258       __imp_MultiByteToWideChar  0000000180037258     kernel32:KERNEL32.dll
 0002:00000260       __imp_WideCharToMultiByte  0000000180037260     kernel32:KERNEL32.dll
 0002:00000268       __imp_Sleep                0000000180037268     kernel32:KERNEL32.dll
 0002:00000270       __imp_OutputDebugStringW   0000000180037270     kernel32:KERNEL32.dll
 0002:00000278       __imp_EncodePointer        0000000180037278     kernel32:KERNEL32.dll
 0002:00000280       __imp_DecodePointer        0000000180037280     kernel32:KERNEL32.dll
 0002:00000288       __imp_GetStringTypeW       0000000180037288     kernel32:KERNEL32.dll
 0002:00000290       __imp_IsProcessorFeaturePresent 0000000180037290     kernel32:KERNEL32.dll
 0002:00000298       __imp_IsDebuggerPresent    0000000180037298     kernel32:KERNEL32.dll
 0002:000002a0       __imp_HeapFree             00000001800372a0     kernel32:KERNEL32.dll
 0002:000002a8       __imp_CreateThread         00000001800372a8     kernel32:KERNEL32.dll
 0002:000002b0       __imp_GetCurrentThreadId   00000001800372b0     kernel32:KERNEL32.dll
 0002:000002b8       __imp_ExitThread           00000001800372b8     kernel32:KERNEL32.dll
 0002:000002c0       __imp_LoadLibraryExW       00000001800372c0     kernel32:KERNEL32.dll
 0002:000002c8       __imp_GetCommandLineA      00000001800372c8     kernel32:KERNEL32.dll
 0002:000002d0       __imp_RtlPcToFileHeader    00000001800372d0     kernel32:KERNEL32.dll
 0002:000002d8       __imp_RaiseException       00000001800372d8     kernel32:KERNEL32.dll
 0002:000002e0       __imp_RtlLookupFunctionEntry 00000001800372e0     kernel32:KERNEL32.dll
 0002:000002e8       __imp_RtlUnwindEx          00000001800372e8     kernel32:KERNEL32.dll
 0002:000002f0       __imp_HeapAlloc            00000001800372f0     kernel32:KERNEL32.dll
 0002:000002f8       __imp_GetCPInfo            00000001800372f8     kernel32:KERNEL32.dll
 0002:00000300       __imp_RtlCaptureContext    0000000180037300     kernel32:KERNEL32.dll
 0002:00000308       __imp_RtlVirtualUnwind     0000000180037308     kernel32:KERNEL32.dll
 0002:00000310       __imp_UnhandledExceptionFilter 0000000180037310     kernel32:KERNEL32.dll
 0002:00000318       __imp_SetUnhandledExceptionFilter 0000000180037318     kernel32:KERNEL32.dll
 0002:00000320       __imp_SetLastError         0000000180037320     kernel32:KERNEL32.dll
 0002:00000328       __imp_InitializeCriticalSectionAndSpinCount 0000000180037328     kernel32:KERNEL32.dll
 0002:00000330       __imp_GetCurrentProcess    0000000180037330     kernel32:KERNEL32.dll
 0002:00000338       __imp_TerminateProcess     0000000180037338     kernel32:KERNEL32.dll
 0002:00000340       __imp_TlsAlloc             0000000180037340     kernel32:KERNEL32.dll
 0002:00000348       __imp_TlsGetValue          0000000180037348     kernel32:KERNEL32.dll
 0002:00000350       __imp_TlsSetValue          0000000180037350     kernel32:KERNEL32.dll
 0002:00000358       __imp_TlsFree              0000000180037358     kernel32:KERNEL32.dll
 0002:00000360       __imp_GetStartupInfoW      0000000180037360     kernel32:KERNEL32.dll
 0002:00000368       __imp_GetModuleHandleW     0000000180037368     kernel32:KERNEL32.dll
 0002:00000370       __imp_LCMapStringW         0000000180037370     kernel32:KERNEL32.dll
 0002:00000378       __imp_GetLocaleInfoW       0000000180037378     kernel32:KERNEL32.dll
 0002:00000380       __imp_IsValidLocale        0000000180037380     kernel32:KERNEL32.dll
 0002:00000388       __imp_GetUserDefaultLCID   0000000180037388     kernel32:KERNEL32.dll
 0002:00000390       __imp_EnumSystemLocalesW   0000000180037390     kernel32:KERNEL32.dll
 0002:00000398       __imp_ExitProcess          0000000180037398     kernel32:KERNEL32.dll
 0002:000003a0       __imp_GetModuleHandleExW   00000001800373a0     kernel32:KERNEL32.dll
 0002:000003a8       __imp_AreFileApisANSI      00000001800373a8     kernel32:KERNEL32.dll
 0002:000003b0       __imp_HeapSize             00000001800373b0     kernel32:KERNEL32.dll
 0002:000003b8       __imp_GetStdHandle         00000001800373b8     kernel32:KERNEL32.dll
 0002:000003c0       __imp_GetFileType          00000001800373c0     kernel32:KERNEL32.dll
 0002:000003c8       __imp_GetProcessHeap       00000001800373c8     kernel32:KERNEL32.dll
 0002:000003d0       __imp_ReadFile             00000001800373d0     kernel32:KERNEL32.dll
 0002:000003d8       __imp_SetFilePointerEx     00000001800373d8     kernel32:KERNEL32.dll
 0002:000003e0       __imp_FlushFileBuffers     00000001800373e0     kernel32:KERNEL32.dll
 0002:000003e8       __imp_WriteFile            00000001800373e8     kernel32:KERNEL32.dll
 0002:000003f0       __imp_GetConsoleCP         00000001800373f0     kernel32:KERNEL32.dll
 0002:000003f8       __imp_GetConsoleMode       00000001800373f8     kernel32:KERNEL32.dll
 0002:00000400       __imp_IsValidCodePage      0000000180037400     kernel32:KERNEL32.dll
 0002:00000408       __imp_GetACP               0000000180037408     kernel32:KERNEL32.dll
 0002:00000410       __imp_GetOEMCP             0000000180037410     kernel32:KERNEL32.dll
 0002:00000418       __imp_GetModuleFileNameA   0000000180037418     kernel32:KERNEL32.dll
 0002:00000420       __imp_QueryPerformanceCounter 0000000180037420     kernel32:KERNEL32.dll
 0002:00000428       __imp_GetCurrentProcessId  0000000180037428     kernel32:KERNEL32.dll
 0002:00000430       __imp_GetSystemTimeAsFileTime 0000000180037430     kernel32:KERNEL32.dll
 0002:00000438       __imp_GetEnvironmentStringsW 0000000180037438     kernel32:KERNEL32.dll
 0002:00000440       __imp_FreeEnvironmentStringsW 0000000180037440     kernel32:KERNEL32.dll
 0002:00000448       __imp_GetModuleFileNameW   0000000180037448     kernel32:KERNEL32.dll
 0002:00000450       __imp_HeapReAlloc          0000000180037450     kernel32:KERNEL32.dll
 0002:00000458       __imp_ReadConsoleW         0000000180037458     kernel32:KERNEL32.dll
 0002:00000460       __imp_SetStdHandle         0000000180037460     kernel32:KERNEL32.dll
 0002:00000468       __imp_WriteConsoleW        0000000180037468     kernel32:KERNEL32.dll
 0002:00000470       __imp_LoadLibraryExA       0000000180037470     kernel32:KERNEL32.dll
 0002:00000478       \177KERNEL32_NULL_THUNK_DATA 0000000180037478     kernel32:KERNEL32.dll
 0002:00000480       __imp_CoInitialize         0000000180037480     ole32:ole32.dll
 0002:00000488       __imp_CoUninitialize       0000000180037488     ole32:ole32.dll
 0002:00000490       __imp_CoCreateGuid         0000000180037490     ole32:ole32.dll
 0002:00000498       \177ole32_NULL_THUNK_DATA  0000000180037498     ole32:ole32.dll
 0002:000004a0       __xc_a                     00000001800374a0     LIBCMT:crt0init.obj
 0002:000004d0       _register_aebellBroadcast_ 00000001800374d0     AebellBroadcast.obj
 0002:00000568       __xc_z                     0000000180037568     LIBCMT:crt0init.obj
 0002:00000570       __xi_a                     0000000180037570     LIBCMT:crt0init.obj
 0002:00000598       __xi_z                     0000000180037598     LIBCMT:crt0init.obj
 0002:000005a0       __xp_a                     00000001800375a0     LIBCMT:crt0init.obj
 0002:000005c0       __xp_z                     00000001800375c0     LIBCMT:crt0init.obj
 0002:000005c8       __xt_a                     00000001800375c8     LIBCMT:crt0init.obj
 0002:000005d0       __xt_z                     00000001800375d0     LIBCMT:crt0init.obj
 0002:00000620       __sz_node_exe              0000000180037620     node:node.exe
 0002:00000fd0       ??_C@_0BC@CIJDGCDI@permission?5denied?$AA@ 0000000180037fd0     libcpmt:syserror.obj
 0002:00000fe8       ??_C@_0M@MIDIAGJP@file?5exists?$AA@ 0000000180037fe8     libcpmt:syserror.obj
 0002:00000ff8       ??_C@_0P@FDINDDOK@no?5such?5device?$AA@ 0000000180037ff8     libcpmt:syserror.obj
 0002:00001008       ??_C@_0BC@EJHOMAAK@filename?5too?5long?$AA@ 0000000180038008     libcpmt:syserror.obj
 0002:00001020       ??_C@_0BI@NGCEHDD@device?5or?5resource?5busy?$AA@ 0000000180038020     libcpmt:syserror.obj
 0002:00001038       ??_C@_08GLNPIFBN@io?5error?$AA@ 0000000180038038     libcpmt:syserror.obj
 0002:00001048       ??_C@_0BE@JIDOCPHM@directory?5not?5empty?$AA@ 0000000180038048     libcpmt:syserror.obj
 0002:00001060       ??_C@_0BB@FCMFBGOM@invalid?5argument?$AA@ 0000000180038060     libcpmt:syserror.obj
 0002:00001078       ??_C@_0BD@IJDJKDEA@no?5space?5on?5device?$AA@ 0000000180038078     libcpmt:syserror.obj
 0002:00001090       ??_C@_0BK@NDOCBPGE@no?5such?5file?5or?5directory?$AA@ 0000000180038090     libcpmt:syserror.obj
 0002:000010b0       ??_C@_0BH@KEFGLDAF@function?5not?5supported?$AA@ 00000001800380b0     libcpmt:syserror.obj
 0002:000010c8       ??_C@_0BC@NJECKMKE@no?5lock?5available?$AA@ 00000001800380c8     libcpmt:syserror.obj
 0002:000010e0       ??_C@_0BC@ENOOLCNF@not?5enough?5memory?$AA@ 00000001800380e0     libcpmt:syserror.obj
 0002:000010f8       ??_C@_0BP@LKNGHENJ@resource?5unavailable?5try?5again?$AA@ 00000001800380f8     libcpmt:syserror.obj
 0002:00001118       ??_C@_0BC@PPHBOELF@cross?5device?5link?$AA@ 0000000180038118     libcpmt:syserror.obj
 0002:00001130       ??_C@_0BD@MOLBPMEA@operation?5canceled?$AA@ 0000000180038130     libcpmt:syserror.obj
 0002:00001148       ??_C@_0BE@GHAFMPAH@too?5many?5files?5open?$AA@ 0000000180038148     libcpmt:syserror.obj
 0002:00001160       ??_C@_0BC@FNODOBAE@permission_denied?$AA@ 0000000180038160     libcpmt:syserror.obj
 0002:00001178       ??_C@_0P@LNDJPBFK@address_in_use?$AA@ 0000000180038178     libcpmt:syserror.obj
 0002:00001188       ??_C@_0BG@IPMGOJF@address_not_available?$AA@ 0000000180038188     libcpmt:syserror.obj
 0002:000011a0       ??_C@_0BN@LCBDHODA@address_family_not_supported?$AA@ 00000001800381a0     libcpmt:syserror.obj
 0002:000011c0       ??_C@_0BP@FOJJHMCC@connection_already_in_progress?$AA@ 00000001800381c0     libcpmt:syserror.obj
 0002:000011e0       ??_C@_0BE@DLHHIBGN@bad_file_descriptor?$AA@ 00000001800381e0     libcpmt:syserror.obj
 0002:000011f8       ??_C@_0BD@OJMJDIGI@connection_aborted?$AA@ 00000001800381f8     libcpmt:syserror.obj
 0002:00001210       ??_C@_0BD@NGKCIFEP@connection_refused?$AA@ 0000000180038210     libcpmt:syserror.obj
 0002:00001228       ??_C@_0BB@JOANDNCK@connection_reset?$AA@ 0000000180038228     libcpmt:syserror.obj
 0002:00001240       ??_C@_0BN@JLJNLKLK@destination_address_required?$AA@ 0000000180038240     libcpmt:syserror.obj
 0002:00001260       ??_C@_0M@IJGMGFGP@bad_address?$AA@ 0000000180038260     libcpmt:syserror.obj
 0002:00001270       ??_C@_0BB@KKNHPPIN@host_unreachable?$AA@ 0000000180038270     libcpmt:syserror.obj
 0002:00001288       ??_C@_0BG@DJGBJIIK@operation_in_progress?$AA@ 0000000180038288     libcpmt:syserror.obj
 0002:000012a0       ??_C@_0M@EGEKIIMP@interrupted?$AA@ 00000001800382a0     libcpmt:syserror.obj
 0002:000012b0       ??_C@_0BB@FFIHMIPJ@invalid_argument?$AA@ 00000001800382b0     libcpmt:syserror.obj
 0002:000012c8       ??_C@_0BC@FIFLCHLO@already_connected?$AA@ 00000001800382c8     libcpmt:syserror.obj
 0002:000012e0       ??_C@_0BE@GJJJJDDA@too_many_files_open?$AA@ 00000001800382e0     libcpmt:syserror.obj
 0002:000012f8       ??_C@_0N@HPMLKHPL@message_size?$AA@ 00000001800382f8     libcpmt:syserror.obj
 0002:00001308       ??_C@_0BC@LEEIKBAL@filename_too_long?$AA@ 0000000180038308     libcpmt:syserror.obj
 0002:00001320       ??_C@_0N@FCPALPJK@network_down?$AA@ 0000000180038320     libcpmt:syserror.obj
 0002:00001330       ??_C@_0O@EHNDLHIG@network_reset?$AA@ 0000000180038330     libcpmt:syserror.obj
 0002:00001340       ??_C@_0BE@JFNJIDNF@network_unreachable?$AA@ 0000000180038340     libcpmt:syserror.obj
 0002:00001358       ??_C@_0BA@FDIJKJCL@no_buffer_space?$AA@ 0000000180038358     libcpmt:syserror.obj
 0002:00001368       ??_C@_0BD@JHIHCGKP@no_protocol_option?$AA@ 0000000180038368     libcpmt:syserror.obj
 0002:00001380       ??_C@_0O@GBCLHHD@not_connected?$AA@ 0000000180038380     libcpmt:syserror.obj
 0002:00001390       ??_C@_0N@IMHKKLEM@not_a_socket?$AA@ 0000000180038390     libcpmt:syserror.obj
 0002:000013a0       ??_C@_0BI@ICEIDKLJ@operation_not_supported?$AA@ 00000001800383a0     libcpmt:syserror.obj
 0002:000013b8       ??_C@_0BH@KAPBAIJF@protocol_not_supported?$AA@ 00000001800383b8     libcpmt:syserror.obj
 0002:000013d0       ??_C@_0BE@GAOJJFPC@wrong_protocol_type?$AA@ 00000001800383d0     libcpmt:syserror.obj
 0002:000013e8       ??_C@_09NCHNLHPG@timed_out?$AA@ 00000001800383e8     libcpmt:syserror.obj
 0002:000013f8       ??_C@_0BG@GDGHKFDH@operation_would_block?$AA@ 00000001800383f8     libcpmt:syserror.obj
 0002:00001410       ??_C@_0BN@LKKBCCDB@address?5family?5not?5supported?$AA@ 0000000180038410     libcpmt:syserror.obj
 0002:00001430       ??_C@_0P@LDMLAFHI@address?5in?5use?$AA@ 0000000180038430     libcpmt:syserror.obj
 0002:00001440       ??_C@_0BG@DHPCNBJB@address?5not?5available?$AA@ 0000000180038440     libcpmt:syserror.obj
 0002:00001458       ??_C@_0BC@DFIBIBIL@already?5connected?$AA@ 0000000180038458     libcpmt:syserror.obj
 0002:00001470       ??_C@_0BH@CAKOHOMI@argument?5list?5too?5long?$AA@ 0000000180038470     libcpmt:syserror.obj
 0002:00001488       ??_C@_0BH@CGIMPKIM@argument?5out?5of?5domain?$AA@ 0000000180038488     libcpmt:syserror.obj
 0002:000014a0       ??_C@_0M@KGHGGJGL@bad?5address?$AA@ 00000001800384a0     libcpmt:syserror.obj
 0002:000014b0       ??_C@_0BE@MPJPGCEO@bad?5file?5descriptor?$AA@ 00000001800384b0     libcpmt:syserror.obj
 0002:000014c8       ??_C@_0M@PMMIEFCP@bad?5message?$AA@ 00000001800384c8     libcpmt:syserror.obj
 0002:000014d8       ??_C@_0M@KPHOFDBE@broken?5pipe?$AA@ 00000001800384d8     libcpmt:syserror.obj
 0002:000014e8       ??_C@_0BD@MGNDDEGM@connection?5aborted?$AA@ 00000001800384e8     libcpmt:syserror.obj
 0002:00001500       ??_C@_0BP@KAIHPOGN@connection?5already?5in?5progress?$AA@ 0000000180038500     libcpmt:syserror.obj
 0002:00001520       ??_C@_0BD@PJLIIJEL@connection?5refused?$AA@ 0000000180038520     libcpmt:syserror.obj
 0002:00001538       ??_C@_0BB@IECNJNOI@connection?5reset?$AA@ 0000000180038538     libcpmt:syserror.obj
 0002:00001550       ??_C@_0BN@KDMIFEIP@destination?5address?5required?$AA@ 0000000180038550     libcpmt:syserror.obj
 0002:00001570       ??_C@_0BI@BNCLIGPB@executable?5format?5error?$AA@ 0000000180038570     libcpmt:syserror.obj
 0002:00001588       ??_C@_0P@DNAJLBJK@file?5too?5large?$AA@ 0000000180038588     libcpmt:syserror.obj
 0002:00001598       ??_C@_0BB@DHFDFGDM@host?5unreachable?$AA@ 0000000180038598     libcpmt:syserror.obj
 0002:000015b0       ??_C@_0BD@JPHBMONG@identifier?5removed?$AA@ 00000001800385b0     libcpmt:syserror.obj
 0002:000015c8       ??_C@_0BG@CDNPAGJK@illegal?5byte?5sequence?$AA@ 00000001800385c8     libcpmt:syserror.obj
 0002:000015e0       ??_C@_0CD@BNPLBMNA@inappropriate?5io?5control?5operati@ 00000001800385e0     libcpmt:syserror.obj
 0002:00001608       ??_C@_0N@OHAFKDEK@invalid?5seek?$AA@ 0000000180038608     libcpmt:syserror.obj
 0002:00001618       ??_C@_0P@FLLDBIDK@is?5a?5directory?$AA@ 0000000180038618     libcpmt:syserror.obj
 0002:00001628       ??_C@_0N@IFLPBIOP@message?5size?$AA@ 0000000180038628     libcpmt:syserror.obj
 0002:00001638       ??_C@_0N@KIIEAAIO@network?5down?$AA@ 0000000180038638     libcpmt:syserror.obj
 0002:00001648       ??_C@_0O@FNPDBHEE@network?5reset?$AA@ 0000000180038648     libcpmt:syserror.obj
 0002:00001658       ??_C@_0BE@IFNCKGE@network?5unreachable?$AA@ 0000000180038658     libcpmt:syserror.obj
 0002:00001670       ??_C@_0BA@PFFCAOFK@no?5buffer?5space?$AA@ 0000000180038670     libcpmt:syserror.obj
 0002:00001680       ??_C@_0BB@IEPBLJHK@no?5child?5process?$AA@ 0000000180038680     libcpmt:syserror.obj
 0002:00001698       ??_C@_07PLECNNKG@no?5link?$AA@ 0000000180038698     libcpmt:syserror.obj
 0002:000016a0       ??_C@_0BF@PBGGPKKE@no?5message?5available?$AA@ 00000001800386a0     libcpmt:syserror.obj
 0002:000016b8       ??_C@_0L@EDOLMPAK@no?5message?$AA@ 00000001800386b8     libcpmt:syserror.obj
 0002:000016c8       ??_C@_0BD@EAMBFIDF@no?5protocol?5option?$AA@ 00000001800386c8     libcpmt:syserror.obj
 0002:000016e0       ??_C@_0BE@MKFDAFMP@no?5stream?5resources?$AA@ 00000001800386e0     libcpmt:syserror.obj
 0002:000016f8       ??_C@_0BK@IMCPHCBI@no?5such?5device?5or?5address?$AA@ 00000001800386f8     libcpmt:syserror.obj
 0002:00001718       ??_C@_0BA@ENLPPKBN@no?5such?5process?$AA@ 0000000180038718     libcpmt:syserror.obj
 0002:00001728       ??_C@_0BA@DOCPFFJG@not?5a?5directory?$AA@ 0000000180038728     libcpmt:syserror.obj
 0002:00001738       ??_C@_0N@POEIPGGF@not?5a?5socket?$AA@ 0000000180038738     libcpmt:syserror.obj
 0002:00001748       ??_C@_0N@LGAPMMPI@not?5a?5stream?$AA@ 0000000180038748     libcpmt:syserror.obj
 0002:00001758       ??_C@_0O@GLMIBBEG@not?5connected?$AA@ 0000000180038758     libcpmt:syserror.obj
 0002:00001768       ??_C@_0O@NHEDABJP@not?5supported?$AA@ 0000000180038768     libcpmt:syserror.obj
 0002:00001778       ??_C@_0BG@KDKHOPCO@operation?5in?5progress?$AA@ 0000000180038778     libcpmt:syserror.obj
 0002:00001790       ??_C@_0BI@OHIEJAAB@operation?5not?5permitted?$AA@ 0000000180038790     libcpmt:syserror.obj
 0002:000017a8       ??_C@_0BI@LNEGIFLN@operation?5not?5supported?$AA@ 00000001800387a8     libcpmt:syserror.obj
 0002:000017c0       ??_C@_0BG@OEMDKMEE@operation?5would?5block?$AA@ 00000001800387c0     libcpmt:syserror.obj
 0002:000017d8       ??_C@_0L@BLPOFLNJ@owner?5dead?$AA@ 00000001800387d8     libcpmt:syserror.obj
 0002:000017e8       ??_C@_0P@FNPOCJBE@protocol?5error?$AA@ 00000001800387e8     libcpmt:syserror.obj
 0002:000017f8       ??_C@_0BH@JPPPLHJB@protocol?5not?5supported?$AA@ 00000001800387f8     libcpmt:syserror.obj
 0002:00001810       ??_C@_0BG@EICBIHDP@read?5only?5file?5system?$AA@ 0000000180038810     libcpmt:syserror.obj
 0002:00001828       ??_C@_0BO@BJBOMOEJ@resource?5deadlock?5would?5occur?$AA@ 0000000180038828     libcpmt:syserror.obj
 0002:00001848       ??_C@_0BE@GOIPJJHG@result?5out?5of?5range?$AA@ 0000000180038848     libcpmt:syserror.obj
 0002:00001860       ??_C@_0BG@MPLKFPAE@state?5not?5recoverable?$AA@ 0000000180038860     libcpmt:syserror.obj
 0002:00001878       ??_C@_0P@DIIFGFCG@stream?5timeout?$AA@ 0000000180038878     libcpmt:syserror.obj
 0002:00001888       ??_C@_0P@IPFDMIFL@text?5file?5busy?$AA@ 0000000180038888     libcpmt:syserror.obj
 0002:00001898       ??_C@_09KJPPMAOI@timed?5out?$AA@ 0000000180038898     libcpmt:syserror.obj
 0002:000018a8       ??_C@_0BO@HACHBEKI@too?5many?5files?5open?5in?5system?$AA@ 00000001800388a8     libcpmt:syserror.obj
 0002:000018c8       ??_C@_0P@HCOMKFCC@too?5many?5links?$AA@ 00000001800388c8     libcpmt:syserror.obj
 0002:000018d8       ??_C@_0BO@EFGOJEF@too?5many?5symbolic?5link?5levels?$AA@ 00000001800388d8     libcpmt:syserror.obj
 0002:000018f8       ??_C@_0BA@KGKGOOJA@value?5too?5large?$AA@ 00000001800388f8     libcpmt:syserror.obj
 0002:00001908       ??_C@_0BE@MIEJDDNH@wrong?5protocol?5type?$AA@ 0000000180038908     libcpmt:syserror.obj
 0002:0000191c       ??_C@_01NOFIACDB@w?$AA@    000000018003891c     libcpmt:xthrow.obj
 0002:00001920       ??_C@_13CIFDLIMG@?$AAw?$AA?$AA@ 0000000180038920     libcpmt:xthrow.obj
 0002:00001930       ??_7bad_alloc@std@@6B@     0000000180038930     libcpmt:xthrow.obj
 0002:00001940       ??_C@_0P@GHFPNOJB@bad?5allocation?$AA@ 0000000180038940     libcpmt:xthrow.obj
 0002:00001958       ??_7logic_error@std@@6B@   0000000180038958     libcpmt:xthrow.obj
 0002:00001970       ??_7length_error@std@@6B@  0000000180038970     libcpmt:xthrow.obj
 0002:00001988       ??_7out_of_range@std@@6B@  0000000180038988     libcpmt:xthrow.obj
 0002:000019a0       ??_7runtime_error@std@@6B@ 00000001800389a0     libcpmt:xthrow.obj
 0002:00001a08       ??_7_Facet_base@std@@6B@   0000000180038a08     libcpmt:locale0.obj
 0002:00001a28       ??_7_Locimp@locale@std@@6B@ 0000000180038a28     libcpmt:locale0.obj
 0002:00001a40       ??_C@_01NBENCBCI@?$CK?$AA@ 0000000180038a40     libcpmt:locale0.obj
 0002:00001a44       ??_C@_01GFHCPBMG@C?$AA@    0000000180038a44     libcpmt:locale0.obj
 0002:00001a48       ?_BADOFF@std@@3_JB         0000000180038a48     libcpmt:ios.obj
 0002:00001ac8       ??_C@_01KDCPPGHE@r?$AA@    0000000180038ac8     libcpmt:fiopen.obj
 0002:00001acc       ??_C@_01MCMALHOG@a?$AA@    0000000180038acc     libcpmt:fiopen.obj
 0002:00001ad0       ??_C@_02JDPG@rb?$AA@       0000000180038ad0     libcpmt:fiopen.obj
 0002:00001ad4       ??_C@_02GMLFBBN@wb?$AA@    0000000180038ad4     libcpmt:fiopen.obj
 0002:00001ad8       ??_C@_02BOGAIONP@ab?$AA@   0000000180038ad8     libcpmt:fiopen.obj
 0002:00001adc       ??_C@_02CBLLGHLK@r?$CL?$AA@ 0000000180038adc     libcpmt:fiopen.obj
 0002:00001ae0       ??_C@_02CHHAKFFB@w?$CL?$AA@ 0000000180038ae0     libcpmt:fiopen.obj
 0002:00001ae4       ??_C@_02DPNLHKJD@a?$CL?$AA@ 0000000180038ae4     libcpmt:fiopen.obj
 0002:00001ae8       ??_C@_03HMFOOINA@r?$CLb?$AA@ 0000000180038ae8     libcpmt:fiopen.obj
 0002:00001aec       ??_C@_03ELIABIOC@w?$CLb?$AA@ 0000000180038aec     libcpmt:fiopen.obj
 0002:00001af0       ??_C@_03DOPCBAKB@a?$CLb?$AA@ 0000000180038af0     libcpmt:fiopen.obj
 0002:00001b78       ??_C@_13BPINEIPE@?$AAr?$AA?$AA@ 0000000180038b78     libcpmt:fiopen.obj
 0002:00001b7c       ??_C@_13FNCBLAIF@?$AAa?$AA?$AA@ 0000000180038b7c     libcpmt:fiopen.obj
 0002:00001b80       ??_C@_15JJPIMNBO@?$AAr?$AAb?$AA?$AA@ 0000000180038b80     libcpmt:fiopen.obj
 0002:00001b88       ??_C@_15MJDFFMKN@?$AAw?$AAb?$AA?$AA@ 0000000180038b88     libcpmt:fiopen.obj
 0002:00001b90       ??_C@_15BMLKLNCL@?$AAa?$AAb?$AA?$AA@ 0000000180038b90     libcpmt:fiopen.obj
 0002:00001b98       ??_C@_15HPOENKKJ@?$AAr?$AA?$CL?$AA?$AA@ 0000000180038b98     libcpmt:fiopen.obj
 0002:00001ba0       ??_C@_15CPCJELBK@?$AAw?$AA?$CL?$AA?$AA@ 0000000180038ba0     libcpmt:fiopen.obj
 0002:00001ba8       ??_C@_15PKKGKKJM@?$AAa?$AA?$CL?$AA?$AA@ 0000000180038ba8     libcpmt:fiopen.obj
 0002:00001bb0       ??_C@_17IIOMHMAG@?$AAr?$AA?$CL?$AAb?$AA?$AA@ 0000000180038bb0     libcpmt:fiopen.obj
 0002:00001bb8       ??_C@_17MAAMHCGC@?$AAw?$AA?$CL?$AAb?$AA?$AA@ 0000000180038bb8     libcpmt:fiopen.obj
 0002:00001bc0       ??_C@_17HKNIEKMO@?$AAa?$AA?$CL?$AAb?$AA?$AA@ 0000000180038bc0     libcpmt:fiopen.obj
 0002:00001bc8       ?valid@?1???$_Xfiopen@D@std@@YAPEAU_iobuf@@PEBDHH@Z@4QBHB 0000000180038bc8     libcpmt:fiopen.obj
 0002:00001c08       ?valid@?1???$_Xfiopen@_W@std@@YAPEAU_iobuf@@PEB_WHH@Z@4QBHB 0000000180038c08     libcpmt:fiopen.obj
 0002:00001c50       ??_7?$ctype@D@std@@6B@     0000000180038c50     libcpmt:locale.obj
 0002:00001cb0       ??_7?$codecvt@DDH@std@@6B@ 0000000180038cb0     libcpmt:locale.obj
 0002:00001d00       ??_C@_11LOCGONAA@?$AA?$AA@ 0000000180038d00     libcpmt:wlocale.obj
 0002:00001d04       ??_C@_01JOAMLHOP@?9?$AA@   0000000180038d04     libcpmt:wlocale.obj
 0002:00001de8       __real@0000000000000000    0000000180038de8     libcpmt:xprec.obj
 0002:00001e90       ??_C@_06MEIMCGCF@_hypot?$AA@ 0000000180038e90     LIBCMT:hypot.obj
 0002:00001e98       ??_C@_0N@PPOMPGGK@RoInitialize?$AA@ 0000000180038e98     LIBCMT:threadex.obj
 0002:00001ea8       ??_C@_1BI@IDAOOPDH@?$AAc?$AAo?$AAm?$AAb?$AAa?$AAs?$AAe?$AA?4?$AAd?$AAl?$AAl?$AA?$AA@ 0000000180038ea8     LIBCMT:threadex.obj
 0002:00001ec0       ??_C@_0P@LLFHBIJD@RoUninitialize?$AA@ 0000000180038ec0     LIBCMT:threadex.obj
 0002:00001ed0       _pRawDllMain               0000000180038ed0     LIBCMT:dllcrt0.obj
 0002:00001ed0       _pDefaultRawDllMain        0000000180038ed0     LIBCMT:dllcrt0.obj
 0002:00001fc0       ??_7type_info@@6B@         0000000180038fc0     LIBCMT:typinfo.obj
 0002:00001fc8       _FPinit                    0000000180038fc8     LIBCMT:fpinit.obj
 0002:00001fd8       ??_7exception@std@@6B@     0000000180038fd8     LIBCMT:stdexcpt.obj
 0002:00001fe8       ??_C@_0BC@EOODALEL@Unknown?5exception?$AA@ 0000000180038fe8     LIBCMT:stdexcpt.obj
 0002:00002000       __newctype                 0000000180039000     LIBCMT:ctype.obj
 0002:00002300       _wctype                    0000000180039300     LIBCMT:ctype.obj
 0002:00002510       __newclmap                 0000000180039510     LIBCMT:ctype.obj
 0002:00002690       __newcumap                 0000000180039690     LIBCMT:ctype.obj
 0002:00002810       ??_C@_1BK@MGMFAEKH@?$AAk?$AAe?$AAr?$AAn?$AAe?$AAl?$AA3?$AA2?$AA?4?$AAd?$AAl?$AAl?$AA?$AA@ 0000000180039810     LIBCMT:winapisupp.obj
 0002:00002830       ??_C@_08KNHFBNJ@FlsAlloc?$AA@ 0000000180039830     LIBCMT:winapisupp.obj
 0002:00002840       ??_C@_07PEJMOBNF@FlsFree?$AA@ 0000000180039840     LIBCMT:winapisupp.obj
 0002:00002848       ??_C@_0M@GDNOONDI@FlsGetValue?$AA@ 0000000180039848     LIBCMT:winapisupp.obj
 0002:00002858       ??_C@_0M@JCPCPOEF@FlsSetValue?$AA@ 0000000180039858     LIBCMT:winapisupp.obj
 0002:00002868       ??_C@_0BM@HCFOFFN@InitializeCriticalSectionEx?$AA@ 0000000180039868     LIBCMT:winapisupp.obj
 0002:00002888       ??_C@_0P@DLHPPCNH@CreateEventExW?$AA@ 0000000180039888     LIBCMT:winapisupp.obj
 0002:00002898       ??_C@_0BD@KIEEOEEH@CreateSemaphoreExW?$AA@ 0000000180039898     LIBCMT:winapisupp.obj
 0002:000028b0       ??_C@_0BI@BKLFFAPO@SetThreadStackGuarantee?$AA@ 00000001800398b0     LIBCMT:winapisupp.obj
 0002:000028c8       ??_C@_0BG@OGFAJCKC@CreateThreadpoolTimer?$AA@ 00000001800398c8     LIBCMT:winapisupp.obj
 0002:000028e0       ??_C@_0BD@LPLEMMDI@SetThreadpoolTimer?$AA@ 00000001800398e0     LIBCMT:winapisupp.obj
 0002:000028f8       ??_C@_0CA@FMNJENH@WaitForThreadpoolTimerCallbacks?$AA@ 00000001800398f8     LIBCMT:winapisupp.obj
 0002:00002918       ??_C@_0BF@DCFCCNOC@CloseThreadpoolTimer?$AA@ 0000000180039918     LIBCMT:winapisupp.obj
 0002:00002930       ??_C@_0BF@FLABGKKM@CreateThreadpoolWait?$AA@ 0000000180039930     LIBCMT:winapisupp.obj
 0002:00002948       ??_C@_0BC@MGCOHNA@SetThreadpoolWait?$AA@ 0000000180039948     LIBCMT:winapisupp.obj
 0002:00002960       ??_C@_0BE@OCIOMIMP@CloseThreadpoolWait?$AA@ 0000000180039960     LIBCMT:winapisupp.obj
 0002:00002978       ??_C@_0BJ@LKGHFHBO@FlushProcessWriteBuffers?$AA@ 0000000180039978     LIBCMT:winapisupp.obj
 0002:00002998       ??_C@_0BP@KALKKPMO@FreeLibraryWhenCallbackReturns?$AA@ 0000000180039998     LIBCMT:winapisupp.obj
 0002:000029b8       ??_C@_0BK@DFNBACLA@GetCurrentProcessorNumber?$AA@ 00000001800399b8     LIBCMT:winapisupp.obj
 0002:000029d8       ??_C@_0BP@KHGALBC@GetLogicalProcessorInformation?$AA@ 00000001800399d8     LIBCMT:winapisupp.obj
 0002:000029f8       ??_C@_0BE@FKKLLFLM@CreateSymbolicLinkW?$AA@ 00000001800399f8     LIBCMT:winapisupp.obj
 0002:00002a10       ??_C@_0BJ@OHNKDLIJ@SetDefaultDllDirectories?$AA@ 0000000180039a10     LIBCMT:winapisupp.obj
 0002:00002a30       ??_C@_0BE@LJANKFHF@EnumSystemLocalesEx?$AA@ 0000000180039a30     LIBCMT:winapisupp.obj
 0002:00002a48       ??_C@_0BA@IHGNDAEB@CompareStringEx?$AA@ 0000000180039a48     LIBCMT:winapisupp.obj
 0002:00002a58       ??_C@_0BA@EPCJIIPD@GetDateFormatEx?$AA@ 0000000180039a58     LIBCMT:winapisupp.obj
 0002:00002a68       ??_C@_0BA@ONOKGCMP@GetLocaleInfoEx?$AA@ 0000000180039a68     LIBCMT:winapisupp.obj
 0002:00002a78       ??_C@_0BA@CIJJKCJJ@GetTimeFormatEx?$AA@ 0000000180039a78     LIBCMT:winapisupp.obj
 0002:00002a88       ??_C@_0BJ@PBCCBIPI@GetUserDefaultLocaleName?$AA@ 0000000180039a88     LIBCMT:winapisupp.obj
 0002:00002aa8       ??_C@_0BC@CELBKLLA@IsValidLocaleName?$AA@ 0000000180039aa8     LIBCMT:winapisupp.obj
 0002:00002ac0       ??_C@_0O@KKBNKAPF@LCMapStringEx?$AA@ 0000000180039ac0     LIBCMT:winapisupp.obj
 0002:00002ad0       ??_C@_0BE@JOGNEJCI@GetCurrentPackageId?$AA@ 0000000180039ad0     LIBCMT:winapisupp.obj
 0002:00002ae8       ??_C@_0P@CDHHOHKP@GetTickCount64?$AA@ 0000000180039ae8     LIBCMT:winapisupp.obj
 0002:00002af8       ??_C@_0BO@KPCLFDJJ@GetFileInformationByHandleExW?$AA@ 0000000180039af8     LIBCMT:winapisupp.obj
 0002:00002b18       ??_C@_0BM@MHIDLABK@SetFileInformationByHandleW?$AA@ 0000000180039b18     LIBCMT:winapisupp.obj
 0002:00002b40       LcidToLocaleNameTable      0000000180039b40     LIBCMT:winapinls.obj
 0002:00003980       LocaleNameToIndexTable     000000018003a980     LIBCMT:winapinls.obj
 0002:000047c0       ??_C@_15EMKDOKLE@?$AAa?$AAr?$AA?$AA@ 000000018003b7c0     LIBCMT:winapinls.obj
 0002:000047c8       ??_C@_15KNPADPLH@?$AAb?$AAg?$AA?$AA@ 000000018003b7c8     LIBCMT:winapinls.obj
 0002:000047d0       ??_C@_15EDMHLDMO@?$AAc?$AAa?$AA?$AA@ 000000018003b7d0     LIBCMT:winapinls.obj
 0002:000047d8       ??_C@_1O@BPEAJADD@?$AAz?$AAh?$AA?9?$AAC?$AAH?$AAS?$AA?$AA@ 000000018003b7d8     LIBCMT:winapinls.obj
 0002:000047e8       ??_C@_15LJNHCMNK@?$AAc?$AAs?$AA?$AA@ 000000018003b7e8     LIBCMT:winapinls.obj
 0002:000047f0       ??_C@_15FOMCIDHG@?$AAd?$AAa?$AA?$AA@ 000000018003b7f0     LIBCMT:winapinls.obj
 0002:000047f8       ??_C@_15NBKABECB@?$AAd?$AAe?$AA?$AA@ 000000018003b7f8     LIBCMT:winapinls.obj
 0002:00004800       ??_C@_15GHPEIIAO@?$AAe?$AAl?$AA?$AA@ 000000018003b800     LIBCMT:winapinls.obj
 0002:00004808       ??_C@_15MNPNEAIF@?$AAe?$AAn?$AA?$AA@ 000000018003b808     LIBCMT:winapinls.obj
 0002:00004810       ??_C@_15GPIOMPMH@?$AAe?$AAs?$AA?$AA@ 000000018003b810     LIBCMT:winapinls.obj
 0002:00004818       ??_C@_15NGLOAKJC@?$AAf?$AAi?$AA?$AA@ 000000018003b818     LIBCMT:winapinls.obj
 0002:00004820       ??_C@_15FBKGNKAM@?$AAf?$AAr?$AA?$AA@ 000000018003b820     LIBCMT:winapinls.obj
 0002:00004828       ??_C@_15KGGCNEFK@?$AAh?$AAe?$AA?$AA@ 000000018003b828     LIBCMT:winapinls.obj
 0002:00004830       ??_C@_15PGHLIDMF@?$AAh?$AAu?$AA?$AA@ 000000018003b830     LIBCMT:winapinls.obj
 0002:00004838       ??_C@_15BIEMAPLM@?$AAi?$AAs?$AA?$AA@ 000000018003b838     LIBCMT:winapinls.obj
 0002:00004840       ??_C@_15IFJLDHAF@?$AAi?$AAt?$AA?$AA@ 000000018003b840     LIBCMT:winapinls.obj
 0002:00004848       ??_C@_15GEMIOCAG@?$AAj?$AAa?$AA?$AA@ 000000018003b848     LIBCMT:winapinls.obj
 0002:00004850       ??_C@_15EPELEGJA@?$AAk?$AAo?$AA?$AA@ 000000018003b850     LIBCMT:winapinls.obj
 0002:00004858       ??_C@_15NDDHIMN@?$AAn?$AAl?$AA?$AA@ 000000018003b858     LIBCMT:winapinls.obj
 0002:00004860       ??_C@_15BPIGNHCD@?$AAn?$AAo?$AA?$AA@ 000000018003b860     LIBCMT:winapinls.obj
 0002:00004868       ??_C@_15DEOPBLCG@?$AAp?$AAl?$AA?$AA@ 000000018003b868     LIBCMT:winapinls.obj
 0002:00004870       ??_C@_15KBECGEFG@?$AAp?$AAt?$AA?$AA@ 000000018003b870     LIBCMT:winapinls.obj
 0002:00004878       ??_C@_15GLJCBFMD@?$AAr?$AAo?$AA?$AA@ 000000018003b878     LIBCMT:winapinls.obj
 0002:00004880       ??_C@_15FEDGKCDI@?$AAr?$AAu?$AA?$AA@ 000000018003b880     LIBCMT:winapinls.obj
 0002:00004888       ??_C@_15GLKMLLHM@?$AAh?$AAr?$AA?$AA@ 000000018003b888     LIBCMT:winapinls.obj
 0002:00004890       ??_C@_15CPKMFBDB@?$AAs?$AAk?$AA?$AA@ 000000018003b890     LIBCMT:winapinls.obj
 0002:00004898       ??_C@_15BAAIOGMK@?$AAs?$AAq?$AA?$AA@ 000000018003b898     LIBCMT:winapinls.obj
 0002:000048a0       ??_C@_15INNPNOHD@?$AAs?$AAv?$AA?$AA@ 000000018003b8a0     LIBCMT:winapinls.obj
 0002:000048a8       ??_C@_15CABMMOGH@?$AAt?$AAh?$AA?$AA@ 000000018003b8a8     LIBCMT:winapinls.obj
 0002:000048b0       ??_C@_15BPLIHJJM@?$AAt?$AAr?$AA?$AA@ 000000018003b8b0     LIBCMT:winapinls.obj
 0002:000048b8       ??_C@_15NEOEKKDJ@?$AAu?$AAr?$AA?$AA@ 000000018003b8b8     LIBCMT:winapinls.obj
 0002:000048c0       ??_C@_15NFICGAJK@?$AAi?$AAd?$AA?$AA@ 000000018003b8c0     LIBCMT:winapinls.obj
 0002:000048c8       ??_C@_15PJPFLCCM@?$AAu?$AAk?$AA?$AA@ 000000018003b8c8     LIBCMT:winapinls.obj
 0002:000048d0       ??_C@_15HPJPHDM@?$AAb?$AAe?$AA?$AA@ 000000018003b8d0     LIBCMT:winapinls.obj
 0002:000048d8       ??_C@_15LCHLGJII@?$AAs?$AAl?$AA?$AA@ 000000018003b8d8     LIBCMT:winapinls.obj
 0002:000048e0       ??_C@_15PCFJPHHO@?$AAe?$AAt?$AA?$AA@ 000000018003b8e0     LIBCMT:winapinls.obj
 0002:000048e8       ??_C@_15HPFPGODN@?$AAl?$AAv?$AA?$AA@ 000000018003b8e8     LIBCMT:winapinls.obj
 0002:000048f0       ??_C@_15NFFGKGLG@?$AAl?$AAt?$AA?$AA@ 000000018003b8f0     LIBCMT:winapinls.obj
 0002:000048f8       ??_C@_15BDAKCCHN@?$AAf?$AAa?$AA?$AA@ 000000018003b8f8     LIBCMT:winapinls.obj
 0002:00004900       ??_C@_15NFGIAIAJ@?$AAv?$AAi?$AA?$AA@ 000000018003b900     LIBCMT:winapinls.obj
 0002:00004908       ??_C@_15LMKNDMHN@?$AAh?$AAy?$AA?$AA@ 000000018003b908     LIBCMT:winapinls.obj
 0002:00004910       ??_C@_15IJBHMCFL@?$AAa?$AAz?$AA?$AA@ 000000018003b910     LIBCMT:winapinls.obj
 0002:00004918       ??_C@_15EKOFJABL@?$AAe?$AAu?$AA?$AA@ 000000018003b918     LIBCMT:winapinls.obj
 0002:00004920       ??_C@_15BGHADCNK@?$AAm?$AAk?$AA?$AA@ 000000018003b920     LIBCMT:winapinls.obj
 0002:00004928       ??_C@_15JDNICKHM@?$AAa?$AAf?$AA?$AA@ 000000018003b928     LIBCMT:winapinls.obj
 0002:00004930       ??_C@_15KPJEDBKD@?$AAk?$AAa?$AA?$AA@ 000000018003b930     LIBCMT:winapinls.obj
 0002:00004938       ??_C@_15PDNFFFEO@?$AAf?$AAo?$AA?$AA@ 000000018003b938     LIBCMT:winapinls.obj
 0002:00004940       ??_C@_15OMLEGLOC@?$AAh?$AAi?$AA?$AA@ 000000018003b940     LIBCMT:winapinls.obj
 0002:00004948       ??_C@_15IDNNENKK@?$AAm?$AAs?$AA?$AA@ 000000018003b948     LIBCMT:winapinls.obj
 0002:00004950       ??_C@_15MACJNBMH@?$AAk?$AAk?$AA?$AA@ 000000018003b950     LIBCMT:winapinls.obj
 0002:00004958       ??_C@_15DKDJEOND@?$AAk?$AAy?$AA?$AA@ 000000018003b958     LIBCMT:winapinls.obj
 0002:00004960       ??_C@_15DFGDLJBG@?$AAs?$AAw?$AA?$AA@ 000000018003b960     LIBCMT:winapinls.obj
 0002:00004968       ??_C@_15BBFAICNG@?$AAu?$AAz?$AA?$AA@ 000000018003b968     LIBCMT:winapinls.obj
 0002:00004970       ??_C@_15DKNDCGEA@?$AAt?$AAt?$AA?$AA@ 000000018003b970     LIBCMT:winapinls.obj
 0002:00004978       ??_C@_15MGIFMDPL@?$AAp?$AAa?$AA?$AA@ 000000018003b978     LIBCMT:winapinls.obj
 0002:00004980       ??_C@_15HCNDBBA@?$AAg?$AAu?$AA?$AA@ 000000018003b980     LIBCMT:winapinls.obj
 0002:00004988       ??_C@_15FNBEIBON@?$AAt?$AAa?$AA?$AA@ 000000018003b988     LIBCMT:winapinls.obj
 0002:00004990       ??_C@_15NCHGBGLK@?$AAt?$AAe?$AA?$AA@ 000000018003b990     LIBCMT:winapinls.obj
 0002:00004998       ??_C@_15PHPHCBPF@?$AAk?$AAn?$AA?$AA@ 000000018003b998     LIBCMT:winapinls.obj
 0002:000049a0       ??_C@_15DLGBCKMP@?$AAm?$AAr?$AA?$AA@ 000000018003b9a0     LIBCMT:winapinls.obj
 0002:000049a8       ??_C@_15EABBLBFF@?$AAs?$AAa?$AA?$AA@ 000000018003b9a8     LIBCMT:winapinls.obj
 0002:000049b0       ??_C@_15CBKOMCOI@?$AAm?$AAn?$AA?$AA@ 000000018003b9b0     LIBCMT:winapinls.obj
 0002:000049b8       ??_C@_15CKDMCJAF@?$AAg?$AAl?$AA?$AA@ 000000018003b9b8     LIBCMT:winapinls.obj
 0002:000049c0       ??_C@_17CNJFBPG@?$AAk?$AAo?$AAk?$AA?$AA@ 000000018003b9c0     LIBCMT:winapinls.obj
 0002:000049c8       ??_C@_17FFBJICPL@?$AAs?$AAy?$AAr?$AA?$AA@ 000000018003b9c8     LIBCMT:winapinls.obj
 0002:000049d0       ??_C@_17KPNDCPAF@?$AAd?$AAi?$AAv?$AA?$AA@ 000000018003b9d0     LIBCMT:winapinls.obj
 0002:000049d8       ??_C@_1M@OKAHONE@?$AAa?$AAr?$AA?9?$AAS?$AAA?$AA?$AA@ 000000018003b9d8     LIBCMT:winapinls.obj
 0002:000049e8       ??_C@_1M@FFFIGIGK@?$AAb?$AAg?$AA?9?$AAB?$AAG?$AA?$AA@ 000000018003b9e8     LIBCMT:winapinls.obj
 0002:000049f8       ??_C@_1M@BJNKEDC@?$AAc?$AAa?$AA?9?$AAE?$AAS?$AA?$AA@ 000000018003b9f8     LIBCMT:winapinls.obj
 0002:00004a08       ??_C@_1M@CLNBBOPM@?$AAz?$AAh?$AA?9?$AAT?$AAW?$AA?$AA@ 000000018003ba08     LIBCMT:winapinls.obj
 0002:00004a18       ??_C@_1M@IJJHFJHA@?$AAc?$AAs?$AA?9?$AAC?$AAZ?$AA?$AA@ 000000018003ba18     LIBCMT:winapinls.obj
 0002:00004a28       ??_C@_1M@CLPEOBGI@?$AAd?$AAa?$AA?9?$AAD?$AAK?$AA?$AA@ 000000018003ba28     LIBCMT:winapinls.obj
 0002:00004a38       ??_C@_1M@MCMADGCB@?$AAd?$AAe?$AA?9?$AAD?$AAE?$AA?$AA@ 000000018003ba38     LIBCMT:winapinls.obj
 0002:00004a48       ??_C@_1M@OOCKEMAM@?$AAe?$AAl?$AA?9?$AAG?$AAR?$AA?$AA@ 000000018003ba48     LIBCMT:winapinls.obj
 0002:00004a58       ??_C@_1M@BMHNFIME@?$AAe?$AAn?$AA?9?$AAU?$AAS?$AA?$AA@ 000000018003ba58     LIBCMT:winapinls.obj
 0002:00004a68       ??_C@_1M@DDNJFGID@?$AAf?$AAi?$AA?9?$AAF?$AAI?$AA?$AA@ 000000018003ba68     LIBCMT:winapinls.obj
 0002:00004a78       ??_C@_1M@GLIPPMAC@?$AAf?$AAr?$AA?9?$AAF?$AAR?$AA?$AA@ 000000018003ba78     LIBCMT:winapinls.obj
 0002:00004a88       ??_C@_1M@GFMCHPE@?$AAh?$AAe?$AA?9?$AAI?$AAL?$AA?$AA@ 000000018003ba88     LIBCMT:winapinls.obj
 0002:00004a98       ??_C@_1M@MHLPGNKM@?$AAh?$AAu?$AA?9?$AAH?$AAU?$AA?$AA@ 000000018003ba98     LIBCMT:winapinls.obj
 0002:00004aa8       ??_C@_1M@LPDDNNPN@?$AAi?$AAs?$AA?9?$AAI?$AAS?$AA?$AA@ 000000018003baa8     LIBCMT:winapinls.obj
 0002:00004ab8       ??_C@_1M@MADIPODN@?$AAi?$AAt?$AA?9?$AAI?$AAT?$AA?$AA@ 000000018003bab8     LIBCMT:winapinls.obj
 0002:00004ac8       ??_C@_1M@HPNHIDJI@?$AAj?$AAa?$AA?9?$AAJ?$AAP?$AA?$AA@ 000000018003bac8     LIBCMT:winapinls.obj
 0002:00004ad8       ??_C@_1M@JLOOOEGK@?$AAk?$AAo?$AA?9?$AAK?$AAR?$AA?$AA@ 000000018003bad8     LIBCMT:winapinls.obj
 0002:00004ae8       ??_C@_1M@IHBJJGG@?$AAn?$AAl?$AA?9?$AAN?$AAL?$AA?$AA@ 000000018003bae8     LIBCMT:winapinls.obj
 0002:00004af8       ??_C@_1M@EANAGDL@?$AAn?$AAb?$AA?9?$AAN?$AAO?$AA?$AA@ 000000018003baf8     LIBCMT:winapinls.obj
 0002:00004b08       ??_C@_1M@NEIEMEGP@?$AAp?$AAl?$AA?9?$AAP?$AAL?$AA?$AA@ 000000018003bb08     LIBCMT:winapinls.obj
 0002:00004b18       ??_C@_1M@BOCFIGEP@?$AAp?$AAt?$AA?9?$AAB?$AAR?$AA?$AA@ 000000018003bb18     LIBCMT:winapinls.obj
 0002:00004b28       ??_C@_1M@IMPFOPBG@?$AAr?$AAo?$AA?9?$AAR?$AAO?$AA?$AA@ 000000018003bb28     LIBCMT:winapinls.obj
 0002:00004b38       ??_C@_1M@IDNNEJMM@?$AAr?$AAu?$AA?9?$AAR?$AAU?$AA?$AA@ 000000018003bb38     LIBCMT:winapinls.obj
 0002:00004b48       ??_C@_1M@LILEEOGM@?$AAh?$AAr?$AA?9?$AAH?$AAR?$AA?$AA@ 000000018003bb48     LIBCMT:winapinls.obj
 0002:00004b58       ??_C@_1M@FKIFEHPB@?$AAs?$AAk?$AA?9?$AAS?$AAK?$AA?$AA@ 000000018003bb58     LIBCMT:winapinls.obj
 0002:00004b68       ??_C@_1M@LJMAMNPJ@?$AAs?$AAq?$AA?9?$AAA?$AAL?$AA?$AA@ 000000018003bb68     LIBCMT:winapinls.obj
 0002:00004b78       ??_C@_1M@GIAKDKJK@?$AAs?$AAv?$AA?9?$AAS?$AAE?$AA?$AA@ 000000018003bb78     LIBCMT:winapinls.obj
 0002:00004b88       ??_C@_1M@MKJKIKCL@?$AAt?$AAh?$AA?9?$AAT?$AAH?$AA?$AA@ 000000018003bb88     LIBCMT:winapinls.obj
 0002:00004b98       ??_C@_1M@MFLCCMPB@?$AAt?$AAr?$AA?9?$AAT?$AAR?$AA?$AA@ 000000018003bb98     LIBCMT:winapinls.obj
 0002:00004ba8       ??_C@_1M@OIJHDKJN@?$AAu?$AAr?$AA?9?$AAP?$AAK?$AA?$AA@ 000000018003bba8     LIBCMT:winapinls.obj
 0002:00004bb8       ??_C@_1M@LHIPCIEK@?$AAi?$AAd?$AA?9?$AAI?$AAD?$AA?$AA@ 000000018003bbb8     LIBCMT:winapinls.obj
 0002:00004bc8       ??_C@_1M@MFMOBGI@?$AAu?$AAk?$AA?9?$AAU?$AAA?$AA?$AA@ 000000018003bbc8     LIBCMT:winapinls.obj
 0002:00004bd8       ??_C@_1M@OBGLJIPL@?$AAb?$AAe?$AA?9?$AAB?$AAY?$AA?$AA@ 000000018003bbd8     LIBCMT:winapinls.obj
 0002:00004be8       ??_C@_1M@BCFAJEAD@?$AAs?$AAl?$AA?9?$AAS?$AAI?$AA?$AA@ 000000018003bbe8     LIBCMT:winapinls.obj
 0002:00004bf8       ??_C@_1M@FKFFEDDN@?$AAe?$AAt?$AA?9?$AAE?$AAE?$AA?$AA@ 000000018003bbf8     LIBCMT:winapinls.obj
 0002:00004c08       ??_C@_1M@KGKKAACI@?$AAl?$AAv?$AA?9?$AAL?$AAV?$AA?$AA@ 000000018003bc08     LIBCMT:winapinls.obj
 0002:00004c18       ??_C@_1M@IFGBIJO@?$AAl?$AAt?$AA?9?$AAL?$AAT?$AA?$AA@ 000000018003bc18     LIBCMT:winapinls.obj
 0002:00004c28       ??_C@_1M@FGEAHEDM@?$AAf?$AAa?$AA?9?$AAI?$AAR?$AA?$AA@ 000000018003bc28     LIBCMT:winapinls.obj
 0002:00004c38       ??_C@_1M@KBMAIBFN@?$AAv?$AAi?$AA?9?$AAV?$AAN?$AA?$AA@ 000000018003bc38     LIBCMT:winapinls.obj
 0002:00004c48       ??_C@_1M@GPCBKDJK@?$AAh?$AAy?$AA?9?$AAA?$AAM?$AA?$AA@ 000000018003bc48     LIBCMT:winapinls.obj
 0002:00004c58       ??_C@_1BG@BECMDDJB@?$AAa?$AAz?$AA?9?$AAA?$AAZ?$AA?9?$AAL?$AAa?$AAt?$AAn?$AA?$AA@ 000000018003bc58     LIBCMT:winapinls.obj
 0002:00004c70       ??_C@_1M@MAOFCAEA@?$AAe?$AAu?$AA?9?$AAE?$AAS?$AA?$AA@ 000000018003bc70     LIBCMT:winapinls.obj
 0002:00004c80       ??_C@_1M@IGHABKPI@?$AAm?$AAk?$AA?9?$AAM?$AAK?$AA?$AA@ 000000018003bc80     LIBCMT:winapinls.obj
 0002:00004c90       ??_C@_1M@IAIGNEJG@?$AAt?$AAn?$AA?9?$AAZ?$AAA?$AA?$AA@ 000000018003bc90     LIBCMT:winapinls.obj
 0002:00004ca0       ??_C@_1M@IIJCOJFA@?$AAx?$AAh?$AA?9?$AAZ?$AAA?$AA?$AA@ 000000018003bca0     LIBCMT:winapinls.obj
 0002:00004cb0       ??_C@_1M@LGPJHNJH@?$AAz?$AAu?$AA?9?$AAZ?$AAA?$AA?$AA@ 000000018003bcb0     LIBCMT:winapinls.obj
 0002:00004cc0       ??_C@_1M@HOKAOIO@?$AAa?$AAf?$AA?9?$AAZ?$AAA?$AA?$AA@ 000000018003bcc0     LIBCMT:winapinls.obj
 0002:00004cd0       ??_C@_1M@DPCLHLIE@?$AAk?$AAa?$AA?9?$AAG?$AAE?$AA?$AA@ 000000018003bcd0     LIBCMT:winapinls.obj
 0002:00004ce0       ??_C@_1M@BLKMHJBI@?$AAf?$AAo?$AA?9?$AAF?$AAO?$AA?$AA@ 000000018003bce0     LIBCMT:winapinls.obj
 0002:00004cf0       ??_C@_1M@LGGJAPPB@?$AAh?$AAi?$AA?9?$AAI?$AAN?$AA?$AA@ 000000018003bcf0     LIBCMT:winapinls.obj
 0002:00004d00       ??_C@_1M@FIKPIHFE@?$AAm?$AAt?$AA?9?$AAM?$AAT?$AA?$AA@ 000000018003bd00     LIBCMT:winapinls.obj
 0002:00004d10       ??_C@_1M@HEGGPBFA@?$AAs?$AAe?$AA?9?$AAN?$AAO?$AA?$AA@ 000000018003bd10     LIBCMT:winapinls.obj
 0002:00004d20       ??_C@_1M@EIBJEEPA@?$AAm?$AAs?$AA?9?$AAM?$AAY?$AA?$AA@ 000000018003bd20     LIBCMT:winapinls.obj
 0002:00004d30       ??_C@_1M@FHLBGMPP@?$AAk?$AAk?$AA?9?$AAK?$AAZ?$AA?$AA@ 000000018003bd30     LIBCMT:winapinls.obj
 0002:00004d40       ??_C@_1M@NGJJLCGI@?$AAk?$AAy?$AA?9?$AAK?$AAG?$AA?$AA@ 000000018003bd40     LIBCMT:winapinls.obj
 0002:00004d50       ??_C@_1M@GIENNBFC@?$AAs?$AAw?$AA?9?$AAK?$AAE?$AA?$AA@ 000000018003bd50     LIBCMT:winapinls.obj
 0002:00004d60       ??_C@_1BG@NDGMJIMJ@?$AAu?$AAz?$AA?9?$AAU?$AAZ?$AA?9?$AAL?$AAa?$AAt?$AAn?$AA?$AA@ 000000018003bd60     LIBCMT:winapinls.obj
 0002:00004d78       ??_C@_1M@IDCCIHBC@?$AAt?$AAt?$AA?9?$AAR?$AAU?$AA?$AA@ 000000018003bd78     LIBCMT:winapinls.obj
 0002:00004d88       ??_C@_1M@LOICPMOJ@?$AAb?$AAn?$AA?9?$AAI?$AAN?$AA?$AA@ 000000018003bd88     LIBCMT:winapinls.obj
 0002:00004d98       ??_C@_1M@KPKKNEAH@?$AAp?$AAa?$AA?9?$AAI?$AAN?$AA?$AA@ 000000018003bd98     LIBCMT:winapinls.obj
 0002:00004da8       ??_C@_1M@PJGPPBOG@?$AAg?$AAu?$AA?9?$AAI?$AAN?$AA?$AA@ 000000018003bda8     LIBCMT:winapinls.obj
 0002:00004db8       ??_C@_1M@KMKMOPHI@?$AAt?$AAa?$AA?9?$AAI?$AAN?$AA?$AA@ 000000018003bdb8     LIBCMT:winapinls.obj
 0002:00004dc8       ??_C@_1M@KFEHEPAC@?$AAt?$AAe?$AA?9?$AAI?$AAN?$AA?$AA@ 000000018003bdc8     LIBCMT:winapinls.obj
 0002:00004dd8       ??_C@_1M@CDCLMGHI@?$AAk?$AAn?$AA?9?$AAI?$AAN?$AA?$AA@ 000000018003bdd8     LIBCMT:winapinls.obj
 0002:00004de8       ??_C@_1M@MIODLDKF@?$AAm?$AAl?$AA?9?$AAI?$AAN?$AA?$AA@ 000000018003bde8     LIBCMT:winapinls.obj
 0002:00004df8       ??_C@_1M@PBIEACPO@?$AAm?$AAr?$AA?9?$AAI?$AAN?$AA?$AA@ 000000018003bdf8     LIBCMT:winapinls.obj
 0002:00004e08       ??_C@_1M@NIDEAGPH@?$AAs?$AAa?$AA?9?$AAI?$AAN?$AA?$AA@ 000000018003be08     LIBCMT:winapinls.obj
 0002:00004e18       ??_C@_1M@FHIHCBIO@?$AAm?$AAn?$AA?9?$AAM?$AAN?$AA?$AA@ 000000018003be18     LIBCMT:winapinls.obj
 0002:00004e28       ??_C@_1M@JAIJPENP@?$AAc?$AAy?$AA?9?$AAG?$AAB?$AA?$AA@ 000000018003be28     LIBCMT:winapinls.obj
 0002:00004e38       ??_C@_1M@PHGFBEPN@?$AAg?$AAl?$AA?9?$AAE?$AAS?$AA?$AA@ 000000018003be38     LIBCMT:winapinls.obj
 0002:00004e48       ??_C@_1O@KPIPDNCP@?$AAk?$AAo?$AAk?$AA?9?$AAI?$AAN?$AA?$AA@ 000000018003be48     LIBCMT:winapinls.obj
 0002:00004e58       ??_C@_1O@KNHJLDJA@?$AAs?$AAy?$AAr?$AA?9?$AAS?$AAY?$AA?$AA@ 000000018003be58     LIBCMT:winapinls.obj
 0002:00004e68       ??_C@_1O@MKEKBLAH@?$AAd?$AAi?$AAv?$AA?9?$AAM?$AAV?$AA?$AA@ 000000018003be68     LIBCMT:winapinls.obj
 0002:00004e78       ??_C@_1O@OHDCKDDF@?$AAq?$AAu?$AAz?$AA?9?$AAB?$AAO?$AA?$AA@ 000000018003be78     LIBCMT:winapinls.obj
 0002:00004e88       ??_C@_1M@LEPJNLFD@?$AAn?$AAs?$AA?9?$AAZ?$AAA?$AA?$AA@ 000000018003be88     LIBCMT:winapinls.obj
 0002:00004e98       ??_C@_1M@OMLEIIJB@?$AAm?$AAi?$AA?9?$AAN?$AAZ?$AA?$AA@ 000000018003be98     LIBCMT:winapinls.obj
 0002:00004ea8       ??_C@_1M@PMPEAILG@?$AAa?$AAr?$AA?9?$AAI?$AAQ?$AA?$AA@ 000000018003bea8     LIBCMT:winapinls.obj
 0002:00004eb8       ??_C@_1M@BIBDDEMK@?$AAz?$AAh?$AA?9?$AAC?$AAN?$AA?$AA@ 000000018003beb8     LIBCMT:winapinls.obj
 0002:00004ec8       ??_C@_1M@CNKPNOEE@?$AAd?$AAe?$AA?9?$AAC?$AAH?$AA?$AA@ 000000018003bec8     LIBCMT:winapinls.obj
 0002:00004ed8       ??_C@_1M@LKMGMLKO@?$AAe?$AAn?$AA?9?$AAG?$AAB?$AA?$AA@ 000000018003bed8     LIBCMT:winapinls.obj
 0002:00004ee8       ??_C@_1M@PGKJFFGL@?$AAe?$AAs?$AA?9?$AAM?$AAX?$AA?$AA@ 000000018003bee8     LIBCMT:winapinls.obj
 0002:00004ef8       ??_C@_1M@DNNANBDC@?$AAf?$AAr?$AA?9?$AAB?$AAE?$AA?$AA@ 000000018003bef8     LIBCMT:winapinls.obj
 0002:00004f08       ??_C@_1M@HLGMDFHM@?$AAi?$AAt?$AA?9?$AAC?$AAH?$AA?$AA@ 000000018003bf08     LIBCMT:winapinls.obj
 0002:00004f18       ??_C@_1M@CLLBGJH@?$AAn?$AAl?$AA?9?$AAB?$AAE?$AA?$AA@ 000000018003bf18     LIBCMT:winapinls.obj
 0002:00004f28       ??_C@_1M@BODBOGLF@?$AAn?$AAn?$AA?9?$AAN?$AAO?$AA?$AA@ 000000018003bf28     LIBCMT:winapinls.obj
 0002:00004f38       ??_C@_1M@HFFAHKAD@?$AAp?$AAt?$AA?9?$AAP?$AAT?$AA?$AA@ 000000018003bf38     LIBCMT:winapinls.obj
 0002:00004f48       ??_C@_1BG@LNOAKHIE@?$AAs?$AAr?$AA?9?$AAS?$AAP?$AA?9?$AAL?$AAa?$AAt?$AAn?$AA?$AA@ 000000018003bf48     LIBCMT:winapinls.obj
 0002:00004f60       ??_C@_1M@HBMHBGAK@?$AAs?$AAv?$AA?9?$AAF?$AAI?$AA?$AA@ 000000018003bf60     LIBCMT:winapinls.obj
 0002:00004f70       ??_C@_1BG@DGCJGJBE@?$AAa?$AAz?$AA?9?$AAA?$AAZ?$AA?9?$AAC?$AAy?$AAr?$AAl?$AA?$AA@ 000000018003bf70     LIBCMT:winapinls.obj
 0002:00004f88       ??_C@_1M@KEJDAAHB@?$AAs?$AAe?$AA?9?$AAS?$AAE?$AA?$AA@ 000000018003bf88     LIBCMT:winapinls.obj
 0002:00004f98       ??_C@_1M@HEIBJJAD@?$AAm?$AAs?$AA?9?$AAB?$AAN?$AA?$AA@ 000000018003bf98     LIBCMT:winapinls.obj
 0002:00004fa8       ??_C@_1BG@PBGJMCEM@?$AAu?$AAz?$AA?9?$AAU?$AAZ?$AA?9?$AAC?$AAy?$AAr?$AAl?$AA?$AA@ 000000018003bfa8     LIBCMT:winapinls.obj
 0002:00004fc0       ??_C@_1O@LAOBCMDF@?$AAq?$AAu?$AAz?$AA?9?$AAE?$AAC?$AA?$AA@ 000000018003bfc0     LIBCMT:winapinls.obj
 0002:00004fd0       ??_C@_1M@POEEMAIO@?$AAa?$AAr?$AA?9?$AAE?$AAG?$AA?$AA@ 000000018003bfd0     LIBCMT:winapinls.obj
 0002:00004fe0       ??_C@_1M@EFAKDEDL@?$AAz?$AAh?$AA?9?$AAH?$AAK?$AA?$AA@ 000000018003bfe0     LIBCMT:winapinls.obj
 0002:00004ff0       ??_C@_1M@HKKIJHGI@?$AAd?$AAe?$AA?9?$AAA?$AAT?$AA?$AA@ 000000018003bff0     LIBCMT:winapinls.obj
 0002:00005000       ??_C@_1M@KBFBEHJF@?$AAe?$AAn?$AA?9?$AAA?$AAU?$AA?$AA@ 000000018003c000     LIBCMT:winapinls.obj
 0002:00005010       ??_C@_1M@MNPLFAAH@?$AAe?$AAs?$AA?9?$AAE?$AAS?$AA?$AA@ 000000018003c010     LIBCMT:winapinls.obj
 0002:00005020       ??_C@_1M@HJOOJFMA@?$AAf?$AAr?$AA?9?$AAC?$AAA?$AA?$AA@ 000000018003c020     LIBCMT:winapinls.obj
 0002:00005030       ??_C@_1BG@JPOFPNAB@?$AAs?$AAr?$AA?9?$AAS?$AAP?$AA?9?$AAC?$AAy?$AAr?$AAl?$AA?$AA@ 000000018003c030     LIBCMT:winapinls.obj
 0002:00005048       ??_C@_1M@LNFOCMOB@?$AAs?$AAe?$AA?9?$AAF?$AAI?$AA?$AA@ 000000018003c048     LIBCMT:winapinls.obj
 0002:00005058       ??_C@_1O@MGJBOAMB@?$AAq?$AAu?$AAz?$AA?9?$AAP?$AAE?$AA?$AA@ 000000018003c058     LIBCMT:winapinls.obj
 0002:00005068       ??_C@_1M@GJINLBOK@?$AAa?$AAr?$AA?9?$AAL?$AAY?$AA?$AA@ 000000018003c068     LIBCMT:winapinls.obj
 0002:00005078       ??_C@_1M@GGMNHJNL@?$AAz?$AAh?$AA?9?$AAS?$AAG?$AA?$AA@ 000000018003c078     LIBCMT:winapinls.obj
 0002:00005088       ??_C@_1M@HOIKODND@?$AAd?$AAe?$AA?9?$AAL?$AAU?$AA?$AA@ 000000018003c088     LIBCMT:winapinls.obj
 0002:00005098       ??_C@_1M@DDOCCGFG@?$AAe?$AAn?$AA?9?$AAC?$AAA?$AA?$AA@ 000000018003c098     LIBCMT:winapinls.obj
 0002:000050a8       ??_C@_1M@BNOEMJLF@?$AAe?$AAs?$AA?9?$AAG?$AAT?$AA?$AA@ 000000018003c0a8     LIBCMT:winapinls.obj
 0002:000050b8       ??_C@_1M@EOGNKEK@?$AAf?$AAr?$AA?9?$AAC?$AAH?$AA?$AA@ 000000018003c0b8     LIBCMT:winapinls.obj
 0002:000050c8       ??_C@_1M@FLIDJFHL@?$AAh?$AAr?$AA?9?$AAB?$AAA?$AA?$AA@ 000000018003c0c8     LIBCMT:winapinls.obj
 0002:000050d8       ??_C@_1O@FMCELNAJ@?$AAs?$AAm?$AAj?$AA?9?$AAN?$AAO?$AA?$AA@ 000000018003c0d8     LIBCMT:winapinls.obj
 0002:000050e8       ??_C@_1M@JHGLJMGJ@?$AAa?$AAr?$AA?9?$AAD?$AAZ?$AA?$AA@ 000000018003c0e8     LIBCMT:winapinls.obj
 0002:000050f8       ??_C@_1M@JKKFDCNP@?$AAz?$AAh?$AA?9?$AAM?$AAO?$AA?$AA@ 000000018003c0f8     LIBCMT:winapinls.obj
 0002:00005108       ??_C@_1M@GEEFALPE@?$AAd?$AAe?$AA?9?$AAL?$AAI?$AA?$AA@ 000000018003c108     LIBCMT:winapinls.obj
 0002:00005118       ??_C@_1M@IGEOFBG@?$AAe?$AAn?$AA?9?$AAN?$AAZ?$AA?$AA@ 000000018003c118     LIBCMT:winapinls.obj
 0002:00005128       ??_C@_1M@KDBONEHP@?$AAe?$AAs?$AA?9?$AAC?$AAR?$AA?$AA@ 000000018003c128     LIBCMT:winapinls.obj
 0002:00005138       ??_C@_1M@FHMDOHNN@?$AAf?$AAr?$AA?9?$AAL?$AAU?$AA?$AA@ 000000018003c138     LIBCMT:winapinls.obj
 0002:00005148       ??_C@_1BG@NFKKMAFG@?$AAb?$AAs?$AA?9?$AAB?$AAA?$AA?9?$AAL?$AAa?$AAt?$AAn?$AA?$AA@ 000000018003c148     LIBCMT:winapinls.obj
 0002:00005160       ??_C@_1O@IMNBEMCI@?$AAs?$AAm?$AAj?$AA?9?$AAS?$AAE?$AA?$AA@ 000000018003c160     LIBCMT:winapinls.obj
 0002:00005170       ??_C@_1M@DHHMBNDP@?$AAa?$AAr?$AA?9?$AAM?$AAA?$AA?$AA@ 000000018003c170     LIBCMT:winapinls.obj
 0002:00005180       ??_C@_1M@BNBLJCGH@?$AAe?$AAn?$AA?9?$AAI?$AAE?$AA?$AA@ 000000018003c180     LIBCMT:winapinls.obj
 0002:00005190       ??_C@_1M@GEPAFMDL@?$AAe?$AAs?$AA?9?$AAP?$AAA?$AA?$AA@ 000000018003c190     LIBCMT:winapinls.obj
 0002:000051a0       ??_C@_1M@OJONDMDL@?$AAf?$AAr?$AA?9?$AAM?$AAC?$AA?$AA@ 000000018003c1a0     LIBCMT:winapinls.obj
 0002:000051b0       ??_C@_1BG@OBCNFJB@?$AAs?$AAr?$AA?9?$AAB?$AAA?$AA?9?$AAL?$AAa?$AAt?$AAn?$AA?$AA@ 000000018003c1b0     LIBCMT:winapinls.obj
 0002:000051c8       ??_C@_1O@KEMEEGPO@?$AAs?$AAm?$AAa?$AA?9?$AAN?$AAO?$AA?$AA@ 000000018003c1c8     LIBCMT:winapinls.obj
 0002:000051d8       ??_C@_1M@ELMGFODK@?$AAa?$AAr?$AA?9?$AAT?$AAN?$AA?$AA@ 000000018003c1d8     LIBCMT:winapinls.obj
 0002:000051e8       ??_C@_1M@BHDLHFAF@?$AAe?$AAn?$AA?9?$AAZ?$AAA?$AA?$AA@ 000000018003c1e8     LIBCMT:winapinls.obj
 0002:000051f8       ??_C@_1M@BMGIGLIF@?$AAe?$AAs?$AA?9?$AAD?$AAO?$AA?$AA@ 000000018003c1f8     LIBCMT:winapinls.obj
 0002:00005208       ??_C@_1BG@CMBHIPBE@?$AAs?$AAr?$AA?9?$AAB?$AAA?$AA?9?$AAC?$AAy?$AAr?$AAl?$AA?$AA@ 000000018003c208     LIBCMT:winapinls.obj
 0002:00005220       ??_C@_1O@HEDBLHNP@?$AAs?$AAm?$AAa?$AA?9?$AAS?$AAE?$AA?$AA@ 000000018003c220     LIBCMT:winapinls.obj
 0002:00005230       ??_C@_1M@DAGCADIM@?$AAa?$AAr?$AA?9?$AAO?$AAM?$AA?$AA@ 000000018003c230     LIBCMT:winapinls.obj
 0002:00005240       ??_C@_1M@FODLMICG@?$AAe?$AAn?$AA?9?$AAJ?$AAM?$AA?$AA@ 000000018003c240     LIBCMT:winapinls.obj
 0002:00005250       ??_C@_1M@DNMLCIHB@?$AAe?$AAs?$AA?9?$AAV?$AAE?$AA?$AA@ 000000018003c250     LIBCMT:winapinls.obj
 0002:00005260       ??_C@_1O@EOKHMKJK@?$AAs?$AAm?$AAs?$AA?9?$AAF?$AAI?$AA?$AA@ 000000018003c260     LIBCMT:winapinls.obj
 0002:00005270       ??_C@_1M@CAFJMKOF@?$AAa?$AAr?$AA?9?$AAY?$AAE?$AA?$AA@ 000000018003c270     LIBCMT:winapinls.obj
 0002:00005280       ??_C@_1M@CBFHIJLI@?$AAe?$AAn?$AA?9?$AAC?$AAB?$AA?$AA@ 000000018003c280     LIBCMT:winapinls.obj
 0002:00005290       ??_C@_1M@BGNFLDN@?$AAe?$AAs?$AA?9?$AAC?$AAO?$AA?$AA@ 000000018003c290     LIBCMT:winapinls.obj
 0002:000052a0       ??_C@_1O@JMPHMAMC@?$AAs?$AAm?$AAn?$AA?9?$AAF?$AAI?$AA?$AA@ 000000018003c2a0     LIBCMT:winapinls.obj
 0002:000052b0       ??_C@_1M@JLANABKE@?$AAa?$AAr?$AA?9?$AAS?$AAY?$AA?$AA@ 000000018003c2b0     LIBCMT:winapinls.obj
 0002:000052c0       ??_C@_1M@HPKGCFGN@?$AAe?$AAn?$AA?9?$AAB?$AAZ?$AA?$AA@ 000000018003c2c0     LIBCMT:winapinls.obj
 0002:000052d0       ??_C@_1M@OLJCMLGM@?$AAe?$AAs?$AA?9?$AAP?$AAE?$AA?$AA@ 000000018003c2d0     LIBCMT:winapinls.obj
 0002:000052e0       ??_C@_1M@MKKGFKLE@?$AAa?$AAr?$AA?9?$AAJ?$AAO?$AA?$AA@ 000000018003c2e0     LIBCMT:winapinls.obj
 0002:000052f0       ??_C@_1M@EKPGLDNI@?$AAe?$AAn?$AA?9?$AAT?$AAT?$AA?$AA@ 000000018003c2f0     LIBCMT:winapinls.obj
 0002:00005300       ??_C@_1M@OONGHFHE@?$AAe?$AAs?$AA?9?$AAA?$AAR?$AA?$AA@ 000000018003c300     LIBCMT:winapinls.obj
 0002:00005310       ??_C@_1M@OOJFGBHE@?$AAa?$AAr?$AA?9?$AAL?$AAB?$AA?$AA@ 000000018003c310     LIBCMT:winapinls.obj
 0002:00005320       ??_C@_1M@GCEJHNEG@?$AAe?$AAn?$AA?9?$AAZ?$AAW?$AA?$AA@ 000000018003c320     LIBCMT:winapinls.obj
 0002:00005330       ??_C@_1M@JNOCAHJI@?$AAe?$AAs?$AA?9?$AAE?$AAC?$AA?$AA@ 000000018003c330     LIBCMT:winapinls.obj
 0002:00005340       ??_C@_1M@JEFHPGGB@?$AAa?$AAr?$AA?9?$AAK?$AAW?$AA?$AA@ 000000018003c340     LIBCMT:winapinls.obj
 0002:00005350       ??_C@_1M@MLKIBJOJ@?$AAe?$AAn?$AA?9?$AAP?$AAH?$AA?$AA@ 000000018003c350     LIBCMT:winapinls.obj
 0002:00005360       ??_C@_1M@BDNIPEND@?$AAe?$AAs?$AA?9?$AAC?$AAL?$AA?$AA@ 000000018003c360     LIBCMT:winapinls.obj
 0002:00005370       ??_C@_1M@MPNMEKBD@?$AAa?$AAr?$AA?9?$AAA?$AAE?$AA?$AA@ 000000018003c370     LIBCMT:winapinls.obj
 0002:00005380       ??_C@_1M@KBJALCPI@?$AAe?$AAs?$AA?9?$AAU?$AAY?$AA?$AA@ 000000018003c380     LIBCMT:winapinls.obj
 0002:00005390       ??_C@_1M@LLCCOAGA@?$AAa?$AAr?$AA?9?$AAB?$AAH?$AA?$AA@ 000000018003c390     LIBCMT:winapinls.obj
 0002:000053a0       ??_C@_1M@PBFNCDEL@?$AAe?$AAs?$AA?9?$AAP?$AAY?$AA?$AA@ 000000018003c3a0     LIBCMT:winapinls.obj
 0002:000053b0       ??_C@_1M@EDGINPNP@?$AAa?$AAr?$AA?9?$AAQ?$AAA?$AA?$AA@ 000000018003c3b0     LIBCMT:winapinls.obj
 0002:000053c0       ??_C@_1M@MKDBIIJI@?$AAe?$AAs?$AA?9?$AAB?$AAO?$AA?$AA@ 000000018003c3c0     LIBCMT:winapinls.obj
 0002:000053d0       ??_C@_1M@CPKKEBLD@?$AAe?$AAs?$AA?9?$AAS?$AAV?$AA?$AA@ 000000018003c3d0     LIBCMT:winapinls.obj
 0002:000053e0       ??_C@_1M@NDBGMMJL@?$AAe?$AAs?$AA?9?$AAH?$AAN?$AA?$AA@ 000000018003c3e0     LIBCMT:winapinls.obj
 0002:000053f0       ??_C@_1M@JIJIBHDP@?$AAe?$AAs?$AA?9?$AAN?$AAI?$AA?$AA@ 000000018003c3f0     LIBCMT:winapinls.obj
 0002:00005400       ??_C@_1M@CGFMKEEK@?$AAe?$AAs?$AA?9?$AAP?$AAR?$AA?$AA@ 000000018003c400     LIBCMT:winapinls.obj
 0002:00005410       ??_C@_1O@ICJHKIIK@?$AAz?$AAh?$AA?9?$AAC?$AAH?$AAT?$AA?$AA@ 000000018003c410     LIBCMT:winapinls.obj
 0002:00005420       ??_C@_15CLNEJCE@?$AAs?$AAr?$AA?$AA@ 000000018003c420     LIBCMT:winapinls.obj
 0002:00005428       ??_C@_1M@KAHEKEIG@?$AAa?$AAf?$AA?9?$AAz?$AAa?$AA?$AA@ 000000018003c428     LIBCMT:winapinls.obj
 0002:00005438       ??_C@_1M@GIECOABL@?$AAa?$AAr?$AA?9?$AAa?$AAe?$AA?$AA@ 000000018003c438     LIBCMT:winapinls.obj
 0002:00005448       ??_C@_1M@BMLMEKGI@?$AAa?$AAr?$AA?9?$AAb?$AAh?$AA?$AA@ 000000018003c448     LIBCMT:winapinls.obj
 0002:00005458       ??_C@_1M@DAPFDGGB@?$AAa?$AAr?$AA?9?$AAd?$AAz?$AA?$AA@ 000000018003c458     LIBCMT:winapinls.obj
 0002:00005468       ??_C@_1M@FJNKGKIG@?$AAa?$AAr?$AA?9?$AAe?$AAg?$AA?$AA@ 000000018003c468     LIBCMT:winapinls.obj
 0002:00005478       ??_C@_1M@FLGKKCLO@?$AAa?$AAr?$AA?9?$AAi?$AAq?$AA?$AA@ 000000018003c478     LIBCMT:winapinls.obj
 0002:00005488       ??_C@_1M@GNDIPALM@?$AAa?$AAr?$AA?9?$AAj?$AAo?$AA?$AA@ 000000018003c488     LIBCMT:winapinls.obj
 0002:00005498       ??_C@_1M@DDMJFMGJ@?$AAa?$AAr?$AA?9?$AAk?$AAw?$AA?$AA@ 000000018003c498     LIBCMT:winapinls.obj
 0002:000054a8       ??_C@_1M@EJALMLHM@?$AAa?$AAr?$AA?9?$AAl?$AAb?$AA?$AA@ 000000018003c4a8     LIBCMT:winapinls.obj
 0002:000054b8       ??_C@_1M@MOBDBLOC@?$AAa?$AAr?$AA?9?$AAl?$AAy?$AA?$AA@ 000000018003c4b8     LIBCMT:winapinls.obj
 0002:000054c8       ??_C@_1M@JAOCLHDH@?$AAa?$AAr?$AA?9?$AAm?$AAa?$AA?$AA@ 000000018003c4c8     LIBCMT:winapinls.obj
 0002:000054d8       ??_C@_1M@JHPMKJIE@?$AAa?$AAr?$AA?9?$AAo?$AAm?$AA?$AA@ 000000018003c4d8     LIBCMT:winapinls.obj
 0002:000054e8       ??_C@_1M@OEPGHFNH@?$AAa?$AAr?$AA?9?$AAq?$AAa?$AA?$AA@ 000000018003c4e8     LIBCMT:winapinls.obj
 0002:000054f8       ??_C@_1M@KJDONENM@?$AAa?$AAr?$AA?9?$AAs?$AAa?$AA?$AA@ 000000018003c4f8     LIBCMT:winapinls.obj
 0002:00005508       ??_C@_1M@DMJDKLKM@?$AAa?$AAr?$AA?9?$AAs?$AAy?$AA?$AA@ 000000018003c508     LIBCMT:winapinls.obj
 0002:00005518       ??_C@_1M@OMFIPEDC@?$AAa?$AAr?$AA?9?$AAt?$AAn?$AA?$AA@ 000000018003c518     LIBCMT:winapinls.obj
 0002:00005528       ??_C@_1M@IHMHGAON@?$AAa?$AAr?$AA?9?$AAy?$AAe?$AA?$AA@ 000000018003c528     LIBCMT:winapinls.obj
 0002:00005538       ??_C@_1BG@KDCPGJGB@?$AAa?$AAz?$AA?9?$AAa?$AAz?$AA?9?$AAc?$AAy?$AAr?$AAl?$AA?$AA@ 000000018003c538     LIBCMT:winapinls.obj
 0002:00005550       ??_C@_1BG@IBCKDDOE@?$AAa?$AAz?$AA?9?$AAa?$AAz?$AA?9?$AAl?$AAa?$AAt?$AAn?$AA?$AA@ 000000018003c550     LIBCMT:winapinls.obj
 0002:00005568       ??_C@_1M@EGPFDCPD@?$AAb?$AAe?$AA?9?$AAb?$AAy?$AA?$AA@ 000000018003c568     LIBCMT:winapinls.obj
 0002:00005578       ??_C@_1M@PCMGMCGC@?$AAb?$AAg?$AA?9?$AAb?$AAg?$AA?$AA@ 000000018003c578     LIBCMT:winapinls.obj
 0002:00005588       ??_C@_1M@BJBMFGOB@?$AAb?$AAn?$AA?9?$AAi?$AAn?$AA?$AA@ 000000018003c588     LIBCMT:winapinls.obj
 0002:00005598       ??_C@_1BG@EAKMMACD@?$AAb?$AAs?$AA?9?$AAb?$AAa?$AA?9?$AAl?$AAa?$AAt?$AAn?$AA?$AA@ 000000018003c598     LIBCMT:winapinls.obj
 0002:000055b0       ??_C@_1M@KGADAODK@?$AAc?$AAa?$AA?9?$AAe?$AAs?$AA?$AA@ 000000018003c5b0     LIBCMT:winapinls.obj
 0002:000055c0       ??_C@_1M@COAJPDHI@?$AAc?$AAs?$AA?9?$AAc?$AAz?$AA?$AA@ 000000018003c5c0     LIBCMT:winapinls.obj
 0002:000055d0       ??_C@_1M@DHBHFONH@?$AAc?$AAy?$AA?9?$AAg?$AAb?$AA?$AA@ 000000018003c5d0     LIBCMT:winapinls.obj
 0002:000055e0       ??_C@_1M@IMGKELGA@?$AAd?$AAa?$AA?9?$AAd?$AAk?$AA?$AA@ 000000018003c5e0     LIBCMT:winapinls.obj
 0002:000055f0       ??_C@_1M@NNDGDNGA@?$AAd?$AAe?$AA?9?$AAa?$AAt?$AA?$AA@ 000000018003c5f0     LIBCMT:winapinls.obj
 0002:00005600       ??_C@_1M@IKDBHEEM@?$AAd?$AAe?$AA?9?$AAc?$AAh?$AA?$AA@ 000000018003c600     LIBCMT:winapinls.obj
 0002:00005610       ??_C@_1M@GFFOJMCJ@?$AAd?$AAe?$AA?9?$AAd?$AAe?$AA?$AA@ 000000018003c610     LIBCMT:winapinls.obj
 0002:00005620       ??_C@_1M@MDNLKBPM@?$AAd?$AAe?$AA?9?$AAl?$AAi?$AA?$AA@ 000000018003c620     LIBCMT:winapinls.obj
 0002:00005630       ??_C@_1M@NJBEEJNL@?$AAd?$AAe?$AA?9?$AAl?$AAu?$AA?$AA@ 000000018003c630     LIBCMT:winapinls.obj
 0002:00005640       ??_C@_1O@GNNELBAP@?$AAd?$AAi?$AAv?$AA?9?$AAm?$AAv?$AA?$AA@ 000000018003c640     LIBCMT:winapinls.obj
 0002:00005650       ??_C@_1M@EJLEOGAE@?$AAe?$AAl?$AA?9?$AAg?$AAr?$AA?$AA@ 000000018003c650     LIBCMT:winapinls.obj
 0002:00005660       ??_C@_1M@GMPONJN@?$AAe?$AAn?$AA?9?$AAa?$AAu?$AA?$AA@ 000000018003c660     LIBCMT:winapinls.obj
 0002:00005670       ??_C@_1M@NIDIIPGF@?$AAe?$AAn?$AA?9?$AAb?$AAz?$AA?$AA@ 000000018003c670     LIBCMT:winapinls.obj
 0002:00005680       ??_C@_1M@JEHMIMFO@?$AAe?$AAn?$AA?9?$AAc?$AAa?$AA?$AA@ 000000018003c680     LIBCMT:winapinls.obj
 0002:00005690       ??_C@_1M@IGMJCDLA@?$AAe?$AAn?$AA?9?$AAc?$AAb?$AA?$AA@ 000000018003c690     LIBCMT:winapinls.obj
 0002:000056a0       ??_C@_1M@BNFIGBKG@?$AAe?$AAn?$AA?9?$AAg?$AAb?$AA?$AA@ 000000018003c6a0     LIBCMT:winapinls.obj
 0002:000056b0       ??_C@_1M@LKIFDIGP@?$AAe?$AAn?$AA?9?$AAi?$AAe?$AA?$AA@ 000000018003c6b0     LIBCMT:winapinls.obj
 0002:000056c0       ??_C@_1M@PJKFGCCO@?$AAe?$AAn?$AA?9?$AAj?$AAm?$AA?$AA@ 000000018003c6c0     LIBCMT:winapinls.obj
 0002:000056d0       ??_C@_1M@KPPKEPBO@?$AAe?$AAn?$AA?9?$AAn?$AAz?$AA?$AA@ 000000018003c6d0     LIBCMT:winapinls.obj
 0002:000056e0       ??_C@_1M@GMDGLDOB@?$AAe?$AAn?$AA?9?$AAp?$AAh?$AA?$AA@ 000000018003c6e0     LIBCMT:winapinls.obj
 0002:000056f0       ??_C@_1M@ONGIBJNA@?$AAe?$AAn?$AA?9?$AAt?$AAt?$AA?$AA@ 000000018003c6f0     LIBCMT:winapinls.obj
 0002:00005700       ??_C@_1M@LLODPCMM@?$AAe?$AAn?$AA?9?$AAu?$AAs?$AA?$AA@ 000000018003c700     LIBCMT:winapinls.obj
 0002:00005710       ??_C@_1M@LAKFNPAN@?$AAe?$AAn?$AA?9?$AAz?$AAa?$AA?$AA@ 000000018003c710     LIBCMT:winapinls.obj
 0002:00005720       ??_C@_1M@MFNHNHEO@?$AAe?$AAn?$AA?9?$AAz?$AAw?$AA?$AA@ 000000018003c720     LIBCMT:winapinls.obj
 0002:00005730       ??_C@_1M@EJEINPHM@?$AAe?$AAs?$AA?9?$AAa?$AAr?$AA?$AA@ 000000018003c730     LIBCMT:winapinls.obj
 0002:00005740       ??_C@_1M@GNKPCCJA@?$AAe?$AAs?$AA?9?$AAb?$AAo?$AA?$AA@ 000000018003c740     LIBCMT:winapinls.obj
 0002:00005750       ??_C@_1M@LEEGFONL@?$AAe?$AAs?$AA?9?$AAc?$AAl?$AA?$AA@ 000000018003c750     LIBCMT:winapinls.obj
 0002:00005760       ??_C@_1M@KGPDPBDF@?$AAe?$AAs?$AA?9?$AAc?$AAo?$AA?$AA@ 000000018003c760     LIBCMT:winapinls.obj
 0002:00005770       ??_C@_1M@EIAHOHH@?$AAe?$AAs?$AA?9?$AAc?$AAr?$AA?$AA@ 000000018003c770     LIBCMT:winapinls.obj
 0002:00005780       ??_C@_1M@LLPGMBIN@?$AAe?$AAs?$AA?9?$AAd?$AAo?$AA?$AA@ 000000018003c780     LIBCMT:winapinls.obj
 0002:00005790       ??_C@_1M@DKHMKNJA@?$AAe?$AAs?$AA?9?$AAe?$AAc?$AA?$AA@ 000000018003c790     LIBCMT:winapinls.obj
 0002:000057a0       ??_C@_1M@GKGFPKAP@?$AAe?$AAs?$AA?9?$AAe?$AAs?$AA?$AA@ 000000018003c7a0     LIBCMT:winapinls.obj
 0002:000057b0       ??_C@_1M@LKHKGDLN@?$AAe?$AAs?$AA?9?$AAg?$AAt?$AA?$AA@ 000000018003c7b0     LIBCMT:winapinls.obj
 0002:000057c0       ??_C@_1M@HEIIGGJD@?$AAe?$AAs?$AA?9?$AAh?$AAn?$AA?$AA@ 000000018003c7c0     LIBCMT:winapinls.obj
 0002:000057d0       ??_C@_1M@FBDHPPGD@?$AAe?$AAs?$AA?9?$AAm?$AAx?$AA?$AA@ 000000018003c7d0     LIBCMT:winapinls.obj
 0002:000057e0       ??_C@_1M@DPAGLNDH@?$AAe?$AAs?$AA?9?$AAn?$AAi?$AA?$AA@ 000000018003c7e0     LIBCMT:winapinls.obj
 0002:000057f0       ??_C@_1M@MDGOPGDD@?$AAe?$AAs?$AA?9?$AAp?$AAa?$AA?$AA@ 000000018003c7f0     LIBCMT:winapinls.obj
 0002:00005800       ??_C@_1M@EMAMGBGE@?$AAe?$AAs?$AA?9?$AAp?$AAe?$AA?$AA@ 000000018003c800     LIBCMT:winapinls.obj
 0002:00005810       ??_C@_1M@IBMCAOEC@?$AAe?$AAs?$AA?9?$AAp?$AAr?$AA?$AA@ 000000018003c810     LIBCMT:winapinls.obj
 0002:00005820       ??_C@_1M@FGMDIJED@?$AAe?$AAs?$AA?9?$AAp?$AAy?$AA?$AA@ 000000018003c820     LIBCMT:winapinls.obj
 0002:00005830       ??_C@_1M@IIDEOLLL@?$AAe?$AAs?$AA?9?$AAs?$AAv?$AA?$AA@ 000000018003c830     LIBCMT:winapinls.obj
 0002:00005840       ??_C@_1M@GAOBIPA@?$AAe?$AAs?$AA?9?$AAu?$AAy?$AA?$AA@ 000000018003c840     LIBCMT:winapinls.obj
 0002:00005850       ??_C@_1M@JKFFICHJ@?$AAe?$AAs?$AA?9?$AAv?$AAe?$AA?$AA@ 000000018003c850     LIBCMT:winapinls.obj
 0002:00005860       ??_C@_1M@PNMLOJDF@?$AAe?$AAt?$AA?9?$AAe?$AAe?$AA?$AA@ 000000018003c860     LIBCMT:winapinls.obj
 0002:00005870       ??_C@_1M@GHHLIKEI@?$AAe?$AAu?$AA?9?$AAe?$AAs?$AA?$AA@ 000000018003c870     LIBCMT:winapinls.obj
 0002:00005880       ??_C@_1M@PBNONODE@?$AAf?$AAa?$AA?9?$AAi?$AAr?$AA?$AA@ 000000018003c880     LIBCMT:winapinls.obj
 0002:00005890       ??_C@_1M@JEEHPMIL@?$AAf?$AAi?$AA?9?$AAf?$AAi?$AA?$AA@ 000000018003c890     LIBCMT:winapinls.obj
 0002:000058a0       ??_C@_1M@LMDCNDBA@?$AAf?$AAo?$AA?9?$AAf?$AAo?$AA?$AA@ 000000018003c8a0     LIBCMT:winapinls.obj
 0002:000058b0       ??_C@_1M@JKEOHLDK@?$AAf?$AAr?$AA?9?$AAb?$AAe?$AA?$AA@ 000000018003c8b0     LIBCMT:winapinls.obj
 0002:000058c0       ??_C@_1M@NOHADPMI@?$AAf?$AAr?$AA?9?$AAc?$AAa?$AA?$AA@ 000000018003c8c0     LIBCMT:winapinls.obj
 0002:000058d0       ??_C@_1M@KDHIHAEC@?$AAf?$AAr?$AA?9?$AAc?$AAh?$AA?$AA@ 000000018003c8d0     LIBCMT:winapinls.obj
 0002:000058e0       ??_C@_1M@MMBBFGAK@?$AAf?$AAr?$AA?9?$AAf?$AAr?$AA?$AA@ 000000018003c8e0     LIBCMT:winapinls.obj
 0002:000058f0       ??_C@_1M@PAFNENNF@?$AAf?$AAr?$AA?9?$AAl?$AAu?$AA?$AA@ 000000018003c8f0     LIBCMT:winapinls.obj
 0002:00005900       ??_C@_1M@EOHDJGDD@?$AAf?$AAr?$AA?9?$AAm?$AAc?$AA?$AA@ 000000018003c900     LIBCMT:winapinls.obj
 0002:00005910       ??_C@_1M@FAPLLOPF@?$AAg?$AAl?$AA?9?$AAe?$AAs?$AA?$AA@ 000000018003c910     LIBCMT:winapinls.obj
 0002:00005920       ??_C@_1M@FOPBFLOO@?$AAg?$AAu?$AA?9?$AAi?$AAn?$AA?$AA@ 000000018003c920     LIBCMT:winapinls.obj
 0002:00005930       ??_C@_1M@KBMCINPM@?$AAh?$AAe?$AA?9?$AAi?$AAl?$AA?$AA@ 000000018003c930     LIBCMT:winapinls.obj
 0002:00005940       ??_C@_1M@BBPHKFPJ@?$AAh?$AAi?$AA?9?$AAi?$AAn?$AA?$AA@ 000000018003c940     LIBCMT:winapinls.obj
 0002:00005950       ??_C@_1M@PMBNDPHD@?$AAh?$AAr?$AA?9?$AAb?$AAa?$AA?$AA@ 000000018003c950     LIBCMT:winapinls.obj
 0002:00005960       ??_C@_1M@BPCKOEGE@?$AAh?$AAr?$AA?9?$AAh?$AAr?$AA?$AA@ 000000018003c960     LIBCMT:winapinls.obj
 0002:00005970       ??_C@_1M@GACBMHKE@?$AAh?$AAu?$AA?9?$AAh?$AAu?$AA?$AA@ 000000018003c970     LIBCMT:winapinls.obj
 0002:00005980       ??_C@_1M@MILPAJJC@?$AAh?$AAy?$AA?9?$AAa?$AAm?$AA?$AA@ 000000018003c980     LIBCMT:winapinls.obj
 0002:00005990       ??_C@_1M@BABBICEC@?$AAi?$AAd?$AA?9?$AAi?$AAd?$AA?$AA@ 000000018003c990     LIBCMT:winapinls.obj
 0002:000059a0       ??_C@_1M@BIKNHHPF@?$AAi?$AAs?$AA?9?$AAi?$AAs?$AA?$AA@ 000000018003c9a0     LIBCMT:winapinls.obj
 0002:000059b0       ??_C@_1M@NMPCJPHE@?$AAi?$AAt?$AA?9?$AAc?$AAh?$AA?$AA@ 000000018003c9b0     LIBCMT:winapinls.obj
 0002:000059c0       ??_C@_1M@GHKGFEDF@?$AAi?$AAt?$AA?9?$AAi?$AAt?$AA?$AA@ 000000018003c9c0     LIBCMT:winapinls.obj
 0002:000059d0       ??_C@_1M@NIEJCJJA@?$AAj?$AAa?$AA?9?$AAj?$AAp?$AA?$AA@ 000000018003c9d0     LIBCMT:winapinls.obj
 0002:000059e0       ??_C@_1M@JILFNBIM@?$AAk?$AAa?$AA?9?$AAg?$AAe?$AA?$AA@ 000000018003c9e0     LIBCMT:winapinls.obj
 0002:000059f0       ??_C@_1M@PACPMGPH@?$AAk?$AAk?$AA?9?$AAk?$AAz?$AA?$AA@ 000000018003c9f0     LIBCMT:winapinls.obj
 0002:00005a00       ??_C@_1M@IELFGMHA@?$AAk?$AAn?$AA?9?$AAi?$AAn?$AA?$AA@ 000000018003ca00     LIBCMT:winapinls.obj
 0002:00005a10       ??_C@_1O@IBBJHCH@?$AAk?$AAo?$AAk?$AA?9?$AAi?$AAn?$AA?$AA@ 000000018003ca10     LIBCMT:winapinls.obj
 0002:00005a20       ??_C@_1M@DMHAEOGC@?$AAk?$AAo?$AA?9?$AAk?$AAr?$AA?$AA@ 000000018003ca20     LIBCMT:winapinls.obj
 0002:00005a30       ??_C@_1M@HBAHBIGA@?$AAk?$AAy?$AA?9?$AAk?$AAg?$AA?$AA@ 000000018003ca30     LIBCMT:winapinls.obj
 0002:00005a40       ??_C@_1M@KPMILCJG@?$AAl?$AAt?$AA?9?$AAl?$AAt?$AA?$AA@ 000000018003ca40     LIBCMT:winapinls.obj
 0002:00005a50       ??_C@_1M@BDEKKCA@?$AAl?$AAv?$AA?9?$AAl?$AAv?$AA?$AA@ 000000018003ca50     LIBCMT:winapinls.obj
 0002:00005a60       ??_C@_1M@ELCKCCJJ@?$AAm?$AAi?$AA?9?$AAn?$AAz?$AA?$AA@ 000000018003ca60     LIBCMT:winapinls.obj
 0002:00005a70       ??_C@_1M@CBOOLAPA@?$AAm?$AAk?$AA?9?$AAm?$AAk?$AA?$AA@ 000000018003ca70     LIBCMT:winapinls.obj
 0002:00005a80       ??_C@_1M@GPHNBJKN@?$AAm?$AAl?$AA?9?$AAi?$AAn?$AA?$AA@ 000000018003ca80     LIBCMT:winapinls.obj
 0002:00005a90       ??_C@_1M@PABJILIG@?$AAm?$AAn?$AA?9?$AAm?$AAn?$AA?$AA@ 000000018003ca90     LIBCMT:winapinls.obj
 0002:00005aa0       ??_C@_1M@FGBKKIPG@?$AAm?$AAr?$AA?9?$AAi?$AAn?$AA?$AA@ 000000018003caa0     LIBCMT:winapinls.obj
 0002:00005ab0       ??_C@_1M@NDBPDDAL@?$AAm?$AAs?$AA?9?$AAb?$AAn?$AA?$AA@ 000000018003cab0     LIBCMT:winapinls.obj
 0002:00005ac0       ??_C@_1M@OPIHOOPI@?$AAm?$AAs?$AA?9?$AAm?$AAy?$AA?$AA@ 000000018003cac0     LIBCMT:winapinls.obj
 0002:00005ad0       ??_C@_1M@PPDBCNFM@?$AAm?$AAt?$AA?9?$AAm?$AAt?$AA?$AA@ 000000018003cad0     LIBCMT:winapinls.obj
 0002:00005ae0       ??_C@_1M@KDJDKMDD@?$AAn?$AAb?$AA?9?$AAn?$AAo?$AA?$AA@ 000000018003cae0     LIBCMT:winapinls.obj
 0002:00005af0       ??_C@_1M@KFCFLMJP@?$AAn?$AAl?$AA?9?$AAb?$AAe?$AA?$AA@ 000000018003caf0     LIBCMT:winapinls.obj
 0002:00005b00       ??_C@_1M@KPOPDDGO@?$AAn?$AAl?$AA?9?$AAn?$AAl?$AA?$AA@ 000000018003cb00     LIBCMT:winapinls.obj
 0002:00005b10       ??_C@_1M@LJKPEMLN@?$AAn?$AAn?$AA?9?$AAn?$AAo?$AA?$AA@ 000000018003cb10     LIBCMT:winapinls.obj
 0002:00005b20       ??_C@_1M@BDGHHBFL@?$AAn?$AAs?$AA?9?$AAz?$AAa?$AA?$AA@ 000000018003cb20     LIBCMT:winapinls.obj
 0002:00005b30       ??_C@_1M@IDEHOAP@?$AAp?$AAa?$AA?9?$AAi?$AAn?$AA?$AA@ 000000018003cb30     LIBCMT:winapinls.obj
 0002:00005b40       ??_C@_1M@HDBKGOGH@?$AAp?$AAl?$AA?9?$AAp?$AAl?$AA?$AA@ 000000018003cb40     LIBCMT:winapinls.obj
 0002:00005b50       ??_C@_1M@LJLLCMEH@?$AAp?$AAt?$AA?9?$AAb?$AAr?$AA?$AA@ 000000018003cb50     LIBCMT:winapinls.obj
 0002:00005b60       ??_C@_1M@NCMONAAL@?$AAp?$AAt?$AA?9?$AAp?$AAt?$AA?$AA@ 000000018003cb60     LIBCMT:winapinls.obj
 0002:00005b70       ??_C@_1O@EAKMAJDN@?$AAq?$AAu?$AAz?$AA?9?$AAb?$AAo?$AA?$AA@ 000000018003cb70     LIBCMT:winapinls.obj
 0002:00005b80       ??_C@_1O@BHHPIGDN@?$AAq?$AAu?$AAz?$AA?9?$AAe?$AAc?$AA?$AA@ 000000018003cb80     LIBCMT:winapinls.obj
 0002:00005b90       ??_C@_1O@GBAPEKMJ@?$AAq?$AAu?$AAz?$AA?9?$AAp?$AAe?$AA?$AA@ 000000018003cb90     LIBCMT:winapinls.obj
 0002:00005ba0       ??_C@_1M@CLGLEFBO@?$AAr?$AAo?$AA?9?$AAr?$AAo?$AA?$AA@ 000000018003cba0     LIBCMT:winapinls.obj
 0002:00005bb0       ??_C@_1M@CEEDODME@?$AAr?$AAu?$AA?9?$AAr?$AAu?$AA?$AA@ 000000018003cbb0     LIBCMT:winapinls.obj
 0002:00005bc0       ??_C@_1M@HPKKKMPP@?$AAs?$AAa?$AA?9?$AAi?$AAn?$AA?$AA@ 000000018003cbc0     LIBCMT:winapinls.obj
 0002:00005bd0       ??_C@_1M@BKMAIGOJ@?$AAs?$AAe?$AA?9?$AAf?$AAi?$AA?$AA@ 000000018003cbd0     LIBCMT:winapinls.obj
 0002:00005be0       ??_C@_1M@NDPIFLFI@?$AAs?$AAe?$AA?9?$AAn?$AAo?$AA?$AA@ 000000018003cbe0     LIBCMT:winapinls.obj
 0002:00005bf0       ??_C@_1M@DANKKHJ@?$AAs?$AAe?$AA?9?$AAs?$AAe?$AA?$AA@ 000000018003cbf0     LIBCMT:winapinls.obj
 0002:00005c00       ??_C@_1M@PNBLONPJ@?$AAs?$AAk?$AA?9?$AAs?$AAk?$AA?$AA@ 000000018003cc00     LIBCMT:winapinls.obj
 0002:00005c10       ??_C@_1M@LFMODOAL@?$AAs?$AAl?$AA?9?$AAs?$AAi?$AA?$AA@ 000000018003cc10     LIBCMT:winapinls.obj
 0002:00005c20       ??_C@_1O@DFKOMPG@?$AAs?$AAm?$AAa?$AA?9?$AAn?$AAo?$AA?$AA@ 000000018003cc20     LIBCMT:winapinls.obj
 0002:00005c30       ??_C@_1O@NDKPBNNH@?$AAs?$AAm?$AAa?$AA?9?$AAs?$AAe?$AA?$AA@ 000000018003cc30     LIBCMT:winapinls.obj
 0002:00005c40       ??_C@_1O@PLLKBHAB@?$AAs?$AAm?$AAj?$AA?9?$AAn?$AAo?$AA?$AA@ 000000018003cc40     LIBCMT:winapinls.obj
 0002:00005c50       ??_C@_1O@CLEPOGCA@?$AAs?$AAm?$AAj?$AA?9?$AAs?$AAe?$AA?$AA@ 000000018003cc50     LIBCMT:winapinls.obj
 0002:00005c60       ??_C@_1O@DLGJGKMK@?$AAs?$AAm?$AAn?$AA?9?$AAf?$AAi?$AA?$AA@ 000000018003cc60     LIBCMT:winapinls.obj
 0002:00005c70       ??_C@_1O@OJDJGAJC@?$AAs?$AAm?$AAs?$AA?9?$AAf?$AAi?$AA?$AA@ 000000018003cc70     LIBCMT:winapinls.obj
 0002:00005c80       ??_C@_1M@BOFOGHPB@?$AAs?$AAq?$AA?9?$AAa?$AAl?$AA?$AA@ 000000018003cc80     LIBCMT:winapinls.obj
 0002:00005c90       ??_C@_1BG@LJBBIPGB@?$AAs?$AAr?$AA?9?$AAb?$AAa?$AA?9?$AAc?$AAy?$AAr?$AAl?$AA?$AA@ 000000018003cc90     LIBCMT:winapinls.obj
 0002:00005ca8       ??_C@_1BG@JLBENFOE@?$AAs?$AAr?$AA?9?$AAb?$AAa?$AA?9?$AAl?$AAa?$AAt?$AAn?$AA?$AA@ 000000018003cca8     LIBCMT:winapinls.obj
 0002:00005cc0       ??_C@_1BG@KODPNHE@?$AAs?$AAr?$AA?9?$AAs?$AAp?$AA?9?$AAc?$AAy?$AAr?$AAl?$AA?$AA@ 000000018003ccc0     LIBCMT:winapinls.obj
 0002:00005cd8       ??_C@_1BG@CIOGKHPB@?$AAs?$AAr?$AA?9?$AAs?$AAp?$AA?9?$AAl?$AAa?$AAt?$AAn?$AA?$AA@ 000000018003ccd8     LIBCMT:winapinls.obj
 0002:00005cf0       ??_C@_1M@NGFJLMAC@?$AAs?$AAv?$AA?9?$AAf?$AAi?$AA?$AA@ 000000018003ccf0     LIBCMT:winapinls.obj
 0002:00005d00       ??_C@_1M@MPJEJAJC@?$AAs?$AAv?$AA?9?$AAs?$AAe?$AA?$AA@ 000000018003cd00     LIBCMT:winapinls.obj
 0002:00005d10       ??_C@_1M@MPNDHLFK@?$AAs?$AAw?$AA?9?$AAk?$AAe?$AA?$AA@ 000000018003cd10     LIBCMT:winapinls.obj
 0002:00005d20       ??_C@_1O@KOHBJJI@?$AAs?$AAy?$AAr?$AA?9?$AAs?$AAy?$AA?$AA@ 000000018003cd20     LIBCMT:winapinls.obj
 0002:00005d30       ??_C@_1M@LDCEFHA@?$AAt?$AAa?$AA?9?$AAi?$AAn?$AA?$AA@ 000000018003cd30     LIBCMT:winapinls.obj
 0002:00005d40       ??_C@_1M@CNJOFAK@?$AAt?$AAe?$AA?9?$AAi?$AAn?$AA?$AA@ 000000018003cd40     LIBCMT:winapinls.obj
 0002:00005d50       ??_C@_1M@GNAECACD@?$AAt?$AAh?$AA?9?$AAt?$AAh?$AA?$AA@ 000000018003cd50     LIBCMT:winapinls.obj
 0002:00005d60       ??_C@_1M@CHBIHOJO@?$AAt?$AAn?$AA?9?$AAz?$AAa?$AA?$AA@ 000000018003cd60     LIBCMT:winapinls.obj
 0002:00005d70       ??_C@_1M@GCCMIGPJ@?$AAt?$AAr?$AA?9?$AAt?$AAr?$AA?$AA@ 000000018003cd70     LIBCMT:winapinls.obj
 0002:00005d80       ??_C@_1M@CELMCNBK@?$AAt?$AAt?$AA?9?$AAr?$AAu?$AA?$AA@ 000000018003cd80     LIBCMT:winapinls.obj
 0002:00005d90       ??_C@_1M@KLMCELGA@?$AAu?$AAk?$AA?9?$AAu?$AAa?$AA?$AA@ 000000018003cd90     LIBCMT:winapinls.obj
 0002:00005da0       ??_C@_1M@EPAJJAJF@?$AAu?$AAr?$AA?9?$AAp?$AAk?$AA?$AA@ 000000018003cda0     LIBCMT:winapinls.obj
 0002:00005db0       ??_C@_1BG@GEGPMCDJ@?$AAu?$AAz?$AA?9?$AAu?$AAz?$AA?9?$AAc?$AAy?$AAr?$AAl?$AA?$AA@ 000000018003cdb0     LIBCMT:winapinls.obj
 0002:00005dc8       ??_C@_1BG@EGGKJILM@?$AAu?$AAz?$AA?9?$AAu?$AAz?$AA?9?$AAl?$AAa?$AAt?$AAn?$AA?$AA@ 000000018003cdc8     LIBCMT:winapinls.obj
 0002:00005de0       ??_C@_1M@GFOCLFF@?$AAv?$AAi?$AA?9?$AAv?$AAn?$AA?$AA@ 000000018003cde0     LIBCMT:winapinls.obj
 0002:00005df0       ??_C@_1M@CPAMEDFI@?$AAx?$AAh?$AA?9?$AAz?$AAa?$AA?$AA@ 000000018003cdf0     LIBCMT:winapinls.obj
 0002:00005e00       ??_C@_1O@EBKIFIGN@?$AAz?$AAh?$AA?9?$AAc?$AAh?$AAs?$AA?$AA@ 000000018003ce00     LIBCMT:winapinls.obj
 0002:00005e10       ??_C@_1O@NMHPGANE@?$AAz?$AAh?$AA?9?$AAc?$AAh?$AAt?$AA?$AA@ 000000018003ce10     LIBCMT:winapinls.obj
 0002:00005e20       ??_C@_1M@LPINJOMC@?$AAz?$AAh?$AA?9?$AAc?$AAn?$AA?$AA@ 000000018003ce20     LIBCMT:winapinls.obj
 0002:00005e30       ??_C@_1M@OCJEJODD@?$AAz?$AAh?$AA?9?$AAh?$AAk?$AA?$AA@ 000000018003ce30     LIBCMT:winapinls.obj
 0002:00005e40       ??_C@_1M@DNDLJINH@?$AAz?$AAh?$AA?9?$AAm?$AAo?$AA?$AA@ 000000018003ce40     LIBCMT:winapinls.obj
 0002:00005e50       ??_C@_1M@MBFDNDND@?$AAz?$AAh?$AA?9?$AAs?$AAg?$AA?$AA@ 000000018003ce50     LIBCMT:winapinls.obj
 0002:00005e60       ??_C@_1M@IMEPLEPE@?$AAz?$AAh?$AA?9?$AAt?$AAw?$AA?$AA@ 000000018003ce60     LIBCMT:winapinls.obj
 0002:00005e70       ??_C@_1M@BBGHNHJP@?$AAz?$AAu?$AA?9?$AAz?$AAa?$AA?$AA@ 000000018003ce70     LIBCMT:winapinls.obj
 0002:00005e7c       ??_C@_04EIAKFFMI@sqrt?$AA@ 000000018003ce7c     LIBCMT:sqrt.obj
 0002:00005e98       ??_C@_06OJHGLDPL@?$CInull?$CJ?$AA@ 000000018003ce98     LIBCMT:output.obj
 0002:00005ea0       ??_C@_1O@CEDCILHN@?$AA?$CI?$AAn?$AAu?$AAl?$AAl?$AA?$CJ?$AA?$AA@ 000000018003cea0     LIBCMT:output.obj
 0002:00005eb0       __lookuptable              000000018003ceb0     LIBCMT:output.obj
 0002:00005f10       __lookuptable_s            000000018003cf10     LIBCMT:outputs.obj
 0002:00005f70       ??_C@_1BI@BGOHAHKC@?$AAm?$AAs?$AAc?$AAo?$AAr?$AAe?$AAe?$AA?4?$AAd?$AAl?$AAl?$AA?$AA@ 000000018003cf70     LIBCMT:crt0dat.obj
 0002:00005f88       ??_C@_0P@MIGLKIOC@CorExitProcess?$AA@ 000000018003cf88     LIBCMT:crt0dat.obj
 0002:00005fa0       _XcptActTab                000000018003cfa0     LIBCMT:winxfltr.obj
 0002:00006060       _XcptActTabCount           000000018003d060     LIBCMT:winxfltr.obj
 0002:00006064       _XcptActTabSize            000000018003d064     LIBCMT:winxfltr.obj
 0002:00006068       _First_FPE_Indx            000000018003d068     LIBCMT:winxfltr.obj
 0002:0000606c       _Num_FPE                   000000018003d06c     LIBCMT:winxfltr.obj
 0002:00006090       ??_C@_03KOEHGMDN@Sun?$AA@  000000018003d090     LIBCMT:nlsdata.obj
 0002:00006094       ??_C@_03PDAGKDH@Mon?$AA@   000000018003d094     LIBCMT:nlsdata.obj
 0002:00006098       ??_C@_03NAGEINEP@Tue?$AA@  000000018003d098     LIBCMT:nlsdata.obj
 0002:0000609c       ??_C@_03MHOMLAJA@Wed?$AA@  000000018003d09c     LIBCMT:nlsdata.obj
 0002:000060a0       ??_C@_03IOFIKPDN@Thu?$AA@  000000018003d0a0     LIBCMT:nlsdata.obj
 0002:000060a4       ??_C@_03IDIOELNC@Fri?$AA@  000000018003d0a4     LIBCMT:nlsdata.obj
 0002:000060a8       ??_C@_03FEFJNEK@Sat?$AA@   000000018003d0a8     LIBCMT:nlsdata.obj
 0002:000060ac       ??_C@_06OOPIFAJ@Sunday?$AA@ 000000018003d0ac     LIBCMT:nlsdata.obj
 0002:000060b4       ??_C@_06JLEDEDGH@Monday?$AA@ 000000018003d0b4     LIBCMT:nlsdata.obj
 0002:000060c0       ??_C@_07BAAGCFCM@Tuesday?$AA@ 000000018003d0c0     LIBCMT:nlsdata.obj
 0002:000060c8       ??_C@_09DLIGFAKA@Wednesday?$AA@ 000000018003d0c8     LIBCMT:nlsdata.obj
 0002:000060d8       ??_C@_08HACCIKIA@Thursday?$AA@ 000000018003d0d8     LIBCMT:nlsdata.obj
 0002:000060e4       ??_C@_06JECMNKMI@Friday?$AA@ 000000018003d0e4     LIBCMT:nlsdata.obj
 0002:000060f0       ??_C@_08INBOOONO@Saturday?$AA@ 000000018003d0f0     LIBCMT:nlsdata.obj
 0002:000060fc       ??_C@_03JIHJHPIE@Jan?$AA@  000000018003d0fc     LIBCMT:nlsdata.obj
 0002:00006100       ??_C@_03HJBDCHOM@Feb?$AA@  000000018003d100     LIBCMT:nlsdata.obj
 0002:00006104       ??_C@_03ODNJBKGA@Mar?$AA@  000000018003d104     LIBCMT:nlsdata.obj
 0002:00006108       ??_C@_03LEOLGMJP@Apr?$AA@  000000018003d108     LIBCMT:nlsdata.obj
 0002:0000610c       ??_C@_03CNMDKL@May?$AA@    000000018003d10c     LIBCMT:nlsdata.obj
 0002:00006110       ??_C@_03IDFGHECI@Jun?$AA@  000000018003d110     LIBCMT:nlsdata.obj
 0002:00006114       ??_C@_03LBGABGKK@Jul?$AA@  000000018003d114     LIBCMT:nlsdata.obj
 0002:00006118       ??_C@_03IFJFEIGA@Aug?$AA@  000000018003d118     LIBCMT:nlsdata.obj
 0002:0000611c       ??_C@_03GGCAPAJC@Sep?$AA@  000000018003d11c     LIBCMT:nlsdata.obj
 0002:00006120       ??_C@_03BMAOKBAD@Oct?$AA@  000000018003d120     LIBCMT:nlsdata.obj
 0002:00006124       ??_C@_03JPJOFNIA@Nov?$AA@  000000018003d124     LIBCMT:nlsdata.obj
 0002:00006128       ??_C@_03MKABNOCG@Dec?$AA@  000000018003d128     LIBCMT:nlsdata.obj
 0002:00006130       ??_C@_07CGJPFGJA@January?$AA@ 000000018003d130     LIBCMT:nlsdata.obj
 0002:00006138       ??_C@_08GNJGEPFN@February?$AA@ 000000018003d138     LIBCMT:nlsdata.obj
 0002:00006144       ??_C@_05HPCKOFNC@March?$AA@ 000000018003d144     LIBCMT:nlsdata.obj
 0002:0000614c       ??_C@_05DMJDNLEJ@April?$AA@ 000000018003d14c     LIBCMT:nlsdata.obj
 0002:00006154       ??_C@_04CNLMGBGM@June?$AA@ 000000018003d154     LIBCMT:nlsdata.obj
 0002:0000615c       ??_C@_04MIEPOIFP@July?$AA@ 000000018003d15c     LIBCMT:nlsdata.obj
 0002:00006164       ??_C@_06LBBHFDDG@August?$AA@ 000000018003d164     LIBCMT:nlsdata.obj
 0002:00006170       ??_C@_09BHHEALKD@September?$AA@ 000000018003d170     LIBCMT:nlsdata.obj
 0002:00006180       ??_C@_07JJNFCEND@October?$AA@ 000000018003d180     LIBCMT:nlsdata.obj
 0002:00006188       ??_C@_08HCHEGEOA@November?$AA@ 000000018003d188     LIBCMT:nlsdata.obj
 0002:00006198       ??_C@_08EDHMEBNP@December?$AA@ 000000018003d198     LIBCMT:nlsdata.obj
 0002:000061a4       ??_C@_02DEDBPAFC@AM?$AA@   000000018003d1a4     LIBCMT:nlsdata.obj
 0002:000061a8       ??_C@_02CJNFDJBF@PM?$AA@   000000018003d1a8     LIBCMT:nlsdata.obj
 0002:000061b0       ??_C@_08BPBNCDIB@MM?1dd?1yy?$AA@ 000000018003d1b0     LIBCMT:nlsdata.obj
 0002:000061c0       ??_C@_0BE@CKGJFCPC@dddd?0?5MMMM?5dd?0?5yyyy?$AA@ 000000018003d1c0     LIBCMT:nlsdata.obj
 0002:000061d8       ??_C@_08JCCMCCIL@HH?3mm?3ss?$AA@ 000000018003d1d8     LIBCMT:nlsdata.obj
 0002:000061e8       ??_C@_17MBGCMIPB@?$AAS?$AAu?$AAn?$AA?$AA@ 000000018003d1e8     LIBCMT:nlsdata.obj
 0002:000061f0       ??_C@_17KBOMKBF@?$AAM?$AAo?$AAn?$AA?$AA@ 000000018003d1f0     LIBCMT:nlsdata.obj
 0002:000061f8       ??_C@_17BMKGEGOJ@?$AAT?$AAu?$AAe?$AA?$AA@ 000000018003d1f8     LIBCMT:nlsdata.obj
 0002:00006200       ??_C@_17CJEDCEPE@?$AAW?$AAe?$AAd?$AA?$AA@ 000000018003d200     LIBCMT:nlsdata.obj
 0002:00006208       ??_C@_17PDPHAADD@?$AAT?$AAh?$AAu?$AA?$AA@ 000000018003d208     LIBCMT:nlsdata.obj
 0002:00006210       ??_C@_17HFOLPPLP@?$AAF?$AAr?$AAi?$AA?$AA@ 000000018003d210     LIBCMT:nlsdata.obj
 0002:00006218       ??_C@_17GGIBDPIH@?$AAS?$AAa?$AAt?$AA?$AA@ 000000018003d218     LIBCMT:nlsdata.obj
 0002:00006220       ??_C@_1O@IHNHDHPB@?$AAS?$AAu?$AAn?$AAd?$AAa?$AAy?$AA?$AA@ 000000018003d220     LIBCMT:nlsdata.obj
 0002:00006230       ??_C@_1O@MMNBFLIA@?$AAM?$AAo?$AAn?$AAd?$AAa?$AAy?$AA?$AA@ 000000018003d230     LIBCMT:nlsdata.obj
 0002:00006240       ??_C@_1BA@ENFBFFEK@?$AAT?$AAu?$AAe?$AAs?$AAd?$AAa?$AAy?$AA?$AA@ 000000018003d240     LIBCMT:nlsdata.obj
 0002:00006250       ??_C@_1BE@EBOGMDOH@?$AAW?$AAe?$AAd?$AAn?$AAe?$AAs?$AAd?$AAa?$AAy?$AA?$AA@ 000000018003d250     LIBCMT:nlsdata.obj
 0002:00006268       ??_C@_1BC@HHMNLIHE@?$AAT?$AAh?$AAu?$AAr?$AAs?$AAd?$AAa?$AAy?$AA?$AA@ 000000018003d268     LIBCMT:nlsdata.obj
 0002:00006280       ??_C@_1O@PDICJHAG@?$AAF?$AAr?$AAi?$AAd?$AAa?$AAy?$AA?$AA@ 000000018003d280     LIBCMT:nlsdata.obj
 0002:00006290       ??_C@_1BC@ENMNNPAJ@?$AAS?$AAa?$AAt?$AAu?$AAr?$AAd?$AAa?$AAy?$AA?$AA@ 000000018003d290     LIBCMT:nlsdata.obj
 0002:000062a8       ??_C@_17DKNBKCHM@?$AAJ?$AAa?$AAn?$AA?$AA@ 000000018003d2a8     LIBCMT:nlsdata.obj
 0002:000062b0       ??_C@_17LMDJEKJN@?$AAF?$AAe?$AAb?$AA?$AA@ 000000018003d2b0     LIBCMT:nlsdata.obj
 0002:000062b8       ??_C@_17CKNLEDEC@?$AAM?$AAa?$AAr?$AA?$AA@ 000000018003d2b8     LIBCMT:nlsdata.obj
 0002:000062c0       ??_C@_17LFPOIHDD@?$AAA?$AAp?$AAr?$AA?$AA@ 000000018003d2c0     LIBCMT:nlsdata.obj
 0002:000062c8       ??_C@_17PNNKMEED@?$AAM?$AAa?$AAy?$AA?$AA@ 000000018003d2c8     LIBCMT:nlsdata.obj
 0002:000062d0       ??_C@_17KCJGOCPB@?$AAJ?$AAu?$AAn?$AA?$AA@ 000000018003d2d0     LIBCMT:nlsdata.obj
 0002:000062d8       ??_C@_17IJPCKHK@?$AAJ?$AAu?$AAl?$AA?$AA@ 000000018003d2d8     LIBCMT:nlsdata.obj
 0002:000062e0       ??_C@_17ICPELBCN@?$AAA?$AAu?$AAg?$AA?$AA@ 000000018003d2e0     LIBCMT:nlsdata.obj
 0002:000062e8       ??_C@_17HCHCOKMG@?$AAS?$AAe?$AAp?$AA?$AA@ 000000018003d2e8     LIBCMT:nlsdata.obj
 0002:000062f0       ??_C@_17FNLKOI@?$AAO?$AAc?$AAt?$AA?$AA@ 000000018003d2f0     LIBCMT:nlsdata.obj
 0002:000062f8       ??_C@_17BBDMLCIG@?$AAN?$AAo?$AAv?$AA?$AA@ 000000018003d2f8     LIBCMT:nlsdata.obj
 0002:00006300       ??_C@_17EGKACKIF@?$AAD?$AAe?$AAc?$AA?$AA@ 000000018003d300     LIBCMT:nlsdata.obj
 0002:00006308       ??_C@_1BA@EFMEIEBA@?$AAJ?$AAa?$AAn?$AAu?$AAa?$AAr?$AAy?$AA?$AA@ 000000018003d308     LIBCMT:nlsdata.obj
 0002:00006318       ??_C@_1BC@JGDDFFAM@?$AAF?$AAe?$AAb?$AAr?$AAu?$AAa?$AAr?$AAy?$AA?$AA@ 000000018003d318     LIBCMT:nlsdata.obj
 0002:00006330       ??_C@_1M@IKEENEDF@?$AAM?$AAa?$AAr?$AAc?$AAh?$AA?$AA@ 000000018003d330     LIBCMT:nlsdata.obj
 0002:00006340       ??_C@_1M@GJNLMHFD@?$AAA?$AAp?$AAr?$AAi?$AAl?$AA?$AA@ 000000018003d340     LIBCMT:nlsdata.obj
 0002:00006350       ??_C@_19EPFLPGAP@?$AAJ?$AAu?$AAn?$AAe?$AA?$AA@ 000000018003d350     LIBCMT:nlsdata.obj
 0002:00006360       ??_C@_19BIFMLPCD@?$AAJ?$AAu?$AAl?$AAy?$AA?$AA@ 000000018003d360     LIBCMT:nlsdata.obj
 0002:00006370       ??_C@_1O@PAHLKOAC@?$AAA?$AAu?$AAg?$AAu?$AAs?$AAt?$AA?$AA@ 000000018003d370     LIBCMT:nlsdata.obj
 0002:00006380       ??_C@_1BE@DKAAMBJL@?$AAS?$AAe?$AAp?$AAt?$AAe?$AAm?$AAb?$AAe?$AAr?$AA?$AA@ 000000018003d380     LIBCMT:nlsdata.obj
 0002:00006398       ??_C@_1BA@EPANDLNG@?$AAO?$AAc?$AAt?$AAo?$AAb?$AAe?$AAr?$AA?$AA@ 000000018003d398     LIBCMT:nlsdata.obj
 0002:000063a8       ??_C@_1BC@BGLIFPF@?$AAN?$AAo?$AAv?$AAe?$AAm?$AAb?$AAe?$AAr?$AA?$AA@ 000000018003d3a8     LIBCMT:nlsdata.obj
 0002:000063c0       ??_C@_1BC@FEMKIFH@?$AAD?$AAe?$AAc?$AAe?$AAm?$AAb?$AAe?$AAr?$AA?$AA@ 000000018003d3c0     LIBCMT:nlsdata.obj
 0002:000063d4       ??_C@_15ODEHAHHF@?$AAA?$AAM?$AA?$AA@ 000000018003d3d4     LIBCMT:nlsdata.obj
 0002:000063dc       ??_C@_15CLMNNGEL@?$AAP?$AAM?$AA?$AA@ 000000018003d3dc     LIBCMT:nlsdata.obj
 0002:000063e8       ??_C@_1BC@IEBCMHCM@?$AAM?$AAM?$AA?1?$AAd?$AAd?$AA?1?$AAy?$AAy?$AA?$AA@ 000000018003d3e8     LIBCMT:nlsdata.obj
 0002:00006400       ??_C@_1CI@KNAKOEBC@?$AAd?$AAd?$AAd?$AAd?$AA?0?$AA?5?$AAM?$AAM?$AAM?$AAM?$AA?5?$AAd?$AAd?$AA?0?$AA?5?$AAy?$AAy?$AAy?$AAy?$AA?$AA@ 000000018003d400     LIBCMT:nlsdata.obj
 0002:00006428       ??_C@_1BC@GDGBMEMK@?$AAH?$AAH?$AA?3?$AAm?$AAm?$AA?3?$AAs?$AAs?$AA?$AA@ 000000018003d428     LIBCMT:nlsdata.obj
 0002:00006440       __lc_category              000000018003d440     LIBCMT:wsetloca.obj
 0002:000064d0       ??_C@_1O@GIFLHMA@?$AAL?$AAC?$AA_?$AAA?$AAL?$AAL?$AA?$AA@ 000000018003d4d0     LIBCMT:wsetloca.obj
 0002:000064e0       ??_C@_1BG@PPOMIBNJ@?$AAL?$AAC?$AA_?$AAC?$AAO?$AAL?$AAL?$AAA?$AAT?$AAE?$AA?$AA@ 000000018003d4e0     LIBCMT:wsetloca.obj
 0002:000064f8       ??_C@_1BC@FFJGAPJM@?$AAL?$AAC?$AA_?$AAC?$AAT?$AAY?$AAP?$AAE?$AA?$AA@ 000000018003d4f8     LIBCMT:wsetloca.obj
 0002:00006510       ??_C@_1BI@PCKFNJFB@?$AAL?$AAC?$AA_?$AAM?$AAO?$AAN?$AAE?$AAT?$AAA?$AAR?$AAY?$AA?$AA@ 000000018003d510     LIBCMT:wsetloca.obj
 0002:00006528       ??_C@_1BG@ENIEDKID@?$AAL?$AAC?$AA_?$AAN?$AAU?$AAM?$AAE?$AAR?$AAI?$AAC?$AA?$AA@ 000000018003d528     LIBCMT:wsetloca.obj
 0002:00006540       ??_C@_1BA@HAAOMIIG@?$AAL?$AAC?$AA_?$AAT?$AAI?$AAM?$AAE?$AA?$AA@ 000000018003d540     LIBCMT:wsetloca.obj
 0002:000065d0       ??_C@_15NBPDDFIP@?$AA?$DN?$AA?$DL?$AA?$AA@ 000000018003d5d0     LIBCMT:wsetloca.obj
 0002:000065d8       ??_C@_13PJJBFPED@?$AA?$DL?$AA?$AA@ 000000018003d5d8     LIBCMT:wsetloca.obj
 0002:000065dc       ??_C@_13NMPKAAJP@?$AA?$DN?$AA?$AA@ 000000018003d5dc     LIBCMT:wsetloca.obj
 0002:000065e0       ??_C@_13FHBKNHDA@?$AAC?$AA?$AA@ 000000018003d5e0     LIBCMT:wsetloca.obj
 0002:000065e8       ??_C@_17MBJJLFDM@?$AA_?$AA?4?$AA?0?$AA?$AA@ 000000018003d5e8     LIBCMT:wsetloca.obj
 0002:000065f0       ??_C@_13ENNFDPBH@?$AA_?$AA?$AA@ 000000018003d5f0     LIBCMT:wsetloca.obj
 0002:000065f4       ??_C@_13JOFGPIOO@?$AA?4?$AA?$AA@ 000000018003d5f4     LIBCMT:wsetloca.obj
 0002:000065f8       _pDestructExceptionObject  000000018003d5f8     LIBCMT:frame.obj
 0002:00006608       ??_7bad_exception@std@@6B@ 000000018003d608     LIBCMT:frame.obj
 0002:00006618       ??_C@_0O@DPKOEFFH@bad?5exception?$AA@ 000000018003d618     LIBCMT:frame.obj
 0002:00006628       ??_C@_05KLBDPFGC@e?$CL000?$AA@ 000000018003d628     LIBCMT:cvt.obj
 0002:000067a0       ??_C@_1FK@PGACCAFB@?$AAR?$AA6?$AA0?$AA0?$AA2?$AA?$AN?$AA?6?$AA?9?$AA?5?$AAf?$AAl?$AAo?$AAa?$AAt?$AAi?$AAn?$AAg?$AA?5?$AAp?$AAo?$AAi?$AAn?$AAt?$AA?5?$AAs?$AAu?$AAp?$AAp?$AAo?$AAr?$AAt?$AA?5@ 000000018003d7a0     LIBCMT:crt0msg.obj
 0002:00006800       ??_C@_1FE@LLNEDJMD@?$AAR?$AA6?$AA0?$AA0?$AA8?$AA?$AN?$AA?6?$AA?9?$AA?5?$AAn?$AAo?$AAt?$AA?5?$AAe?$AAn?$AAo?$AAu?$AAg?$AAh?$AA?5?$AAs?$AAp?$AAa?$AAc?$AAe?$AA?5?$AAf?$AAo?$AAr?$AA?5?$AAa?$AAr@ 000000018003d800     LIBCMT:crt0msg.obj
 0002:00006860       ??_C@_1FI@HONFMGBI@?$AAR?$AA6?$AA0?$AA0?$AA9?$AA?$AN?$AA?6?$AA?9?$AA?5?$AAn?$AAo?$AAt?$AA?5?$AAe?$AAn?$AAo?$AAu?$AAg?$AAh?$AA?5?$AAs?$AAp?$AAa?$AAc?$AAe?$AA?5?$AAf?$AAo?$AAr?$AA?5?$AAe?$AAn@ 000000018003d860     LIBCMT:crt0msg.obj
 0002:000068c0       ??_C@_1EG@BEHAGFJD@?$AAR?$AA6?$AA0?$AA1?$AA0?$AA?$AN?$AA?6?$AA?9?$AA?5?$AAa?$AAb?$AAo?$AAr?$AAt?$AA?$CI?$AA?$CJ?$AA?5?$AAh?$AAa?$AAs?$AA?5?$AAb?$AAe?$AAe?$AAn?$AA?5?$AAc?$AAa?$AAl?$AAl?$AAe?$AAd@ 000000018003d8c0     LIBCMT:crt0msg.obj
 0002:00006910       ??_C@_1FI@LOGNIKDM@?$AAR?$AA6?$AA0?$AA1?$AA6?$AA?$AN?$AA?6?$AA?9?$AA?5?$AAn?$AAo?$AAt?$AA?5?$AAe?$AAn?$AAo?$AAu?$AAg?$AAh?$AA?5?$AAs?$AAp?$AAa?$AAc?$AAe?$AA?5?$AAf?$AAo?$AAr?$AA?5?$AAt?$AAh@ 000000018003d910     LIBCMT:crt0msg.obj
 0002:00006970       ??_C@_1FK@BEOGODMC@?$AAR?$AA6?$AA0?$AA1?$AA7?$AA?$AN?$AA?6?$AA?9?$AA?5?$AAu?$AAn?$AAe?$AAx?$AAp?$AAe?$AAc?$AAt?$AAe?$AAd?$AA?5?$AAm?$AAu?$AAl?$AAt?$AAi?$AAt?$AAh?$AAr?$AAe?$AAa?$AAd?$AA?5@ 000000018003d970     LIBCMT:crt0msg.obj
 0002:000069d0       ??_C@_1EC@JIBHAOPH@?$AAR?$AA6?$AA0?$AA1?$AA8?$AA?$AN?$AA?6?$AA?9?$AA?5?$AAu?$AAn?$AAe?$AAx?$AAp?$AAe?$AAc?$AAt?$AAe?$AAd?$AA?5?$AAh?$AAe?$AAa?$AAp?$AA?5?$AAe?$AAr?$AAr?$AAo?$AAr?$AA?$AN?$AA?6@ 000000018003d9d0     LIBCMT:crt0msg.obj
 0002:00006a20       ??_C@_1FC@ECHBIFBC@?$AAR?$AA6?$AA0?$AA1?$AA9?$AA?$AN?$AA?6?$AA?9?$AA?5?$AAu?$AAn?$AAa?$AAb?$AAl?$AAe?$AA?5?$AAt?$AAo?$AA?5?$AAo?$AAp?$AAe?$AAn?$AA?5?$AAc?$AAo?$AAn?$AAs?$AAo?$AAl?$AAe?$AA?5@ 000000018003da20     LIBCMT:crt0msg.obj
 0002:00006a80       ??_C@_1GK@FHCKBEFA@?$AAR?$AA6?$AA0?$AA2?$AA4?$AA?$AN?$AA?6?$AA?9?$AA?5?$AAn?$AAo?$AAt?$AA?5?$AAe?$AAn?$AAo?$AAu?$AAg?$AAh?$AA?5?$AAs?$AAp?$AAa?$AAc?$AAe?$AA?5?$AAf?$AAo?$AAr?$AA?5?$AA_?$AAo@ 000000018003da80     LIBCMT:crt0msg.obj
 0002:00006af0       ??_C@_1EM@MAADIHMB@?$AAR?$AA6?$AA0?$AA2?$AA5?$AA?$AN?$AA?6?$AA?9?$AA?5?$AAp?$AAu?$AAr?$AAe?$AA?5?$AAv?$AAi?$AAr?$AAt?$AAu?$AAa?$AAl?$AA?5?$AAf?$AAu?$AAn?$AAc?$AAt?$AAi?$AAo?$AAn?$AA?5?$AAc@ 000000018003daf0     LIBCMT:crt0msg.obj
 0002:00006b40       ??_C@_1GK@MCAAGJMO@?$AAR?$AA6?$AA0?$AA2?$AA6?$AA?$AN?$AA?6?$AA?9?$AA?5?$AAn?$AAo?$AAt?$AA?5?$AAe?$AAn?$AAo?$AAu?$AAg?$AAh?$AA?5?$AAs?$AAp?$AAa?$AAc?$AAe?$AA?5?$AAf?$AAo?$AAr?$AA?5?$AAs?$AAt@ 000000018003db40     LIBCMT:crt0msg.obj
 0002:00006bb0       ??_C@_1GK@MFGOKLAG@?$AAR?$AA6?$AA0?$AA2?$AA7?$AA?$AN?$AA?6?$AA?9?$AA?5?$AAn?$AAo?$AAt?$AA?5?$AAe?$AAn?$AAo?$AAu?$AAg?$AAh?$AA?5?$AAs?$AAp?$AAa?$AAc?$AAe?$AA?5?$AAf?$AAo?$AAr?$AA?5?$AAl?$AAo@ 000000018003dbb0     LIBCMT:crt0msg.obj
 0002:00006c20       ??_C@_1EK@HHFLMAOL@?$AAR?$AA6?$AA0?$AA2?$AA8?$AA?$AN?$AA?6?$AA?9?$AA?5?$AAu?$AAn?$AAa?$AAb?$AAl?$AAe?$AA?5?$AAt?$AAo?$AA?5?$AAi?$AAn?$AAi?$AAt?$AAi?$AAa?$AAl?$AAi?$AAz?$AAe?$AA?5?$AAh?$AAe@ 000000018003dc20     LIBCMT:crt0msg.obj
 0002:00006c70       ??_C@_1DO@BMFCDCD@?$AAR?$AA6?$AA0?$AA3?$AA0?$AA?$AN?$AA?6?$AA?9?$AA?5?$AAC?$AAR?$AAT?$AA?5?$AAn?$AAo?$AAt?$AA?5?$AAi?$AAn?$AAi?$AAt?$AAi?$AAa?$AAl?$AAi?$AAz?$AAe?$AAd?$AA?$AN?$AA?6?$AA?$AA@ 000000018003dc70     LIBCMT:crt0msg.obj
 0002:00006cb0       ??_C@_1MG@ENCOOIDF@?$AAR?$AA6?$AA0?$AA3?$AA1?$AA?$AN?$AA?6?$AA?9?$AA?5?$AAA?$AAt?$AAt?$AAe?$AAm?$AAp?$AAt?$AA?5?$AAt?$AAo?$AA?5?$AAi?$AAn?$AAi?$AAt?$AAi?$AAa?$AAl?$AAi?$AAz?$AAe?$AA?5?$AAt@ 000000018003dcb0     LIBCMT:crt0msg.obj
 0002:00006d80       ??_C@_1GG@GOPILAJP@?$AAR?$AA6?$AA0?$AA3?$AA2?$AA?$AN?$AA?6?$AA?9?$AA?5?$AAn?$AAo?$AAt?$AA?5?$AAe?$AAn?$AAo?$AAu?$AAg?$AAh?$AA?5?$AAs?$AAp?$AAa?$AAc?$AAe?$AA?5?$AAf?$AAo?$AAr?$AA?5?$AAl?$AAo@ 000000018003dd80     LIBCMT:crt0msg.obj
 0002:00006df0       ??_C@_1BOO@KGEDBGAJ@?$AAR?$AA6?$AA0?$AA3?$AA3?$AA?$AN?$AA?6?$AA?9?$AA?5?$AAA?$AAt?$AAt?$AAe?$AAm?$AAp?$AAt?$AA?5?$AAt?$AAo?$AA?5?$AAu?$AAs?$AAe?$AA?5?$AAM?$AAS?$AAI?$AAL?$AA?5?$AAc?$AAo?$AAd@ 000000018003ddf0     LIBCMT:crt0msg.obj
 0002:00006fe0       ??_C@_1GG@MKFPEKFO@?$AAR?$AA6?$AA0?$AA3?$AA4?$AA?$AN?$AA?6?$AA?9?$AA?5?$AAi?$AAn?$AAc?$AAo?$AAn?$AAs?$AAi?$AAs?$AAt?$AAe?$AAn?$AAt?$AA?5?$AAo?$AAn?$AAe?$AAx?$AAi?$AAt?$AA?5?$AAb?$AAe?$AAg@ 000000018003dfe0     LIBCMT:crt0msg.obj
 0002:00007048       ??_C@_1BO@BFCDCGC@?$AAD?$AAO?$AAM?$AAA?$AAI?$AAN?$AA?5?$AAe?$AAr?$AAr?$AAo?$AAr?$AA?$AN?$AA?6?$AA?$AA@ 000000018003e048     LIBCMT:crt0msg.obj
 0002:00007068       ??_C@_1BK@KMOMNAAI@?$AAS?$AAI?$AAN?$AAG?$AA?5?$AAe?$AAr?$AAr?$AAo?$AAr?$AA?$AN?$AA?6?$AA?$AA@ 000000018003e068     LIBCMT:crt0msg.obj
 0002:00007088       ??_C@_1BM@JBBEPPHI@?$AAT?$AAL?$AAO?$AAS?$AAS?$AA?5?$AAe?$AAr?$AAr?$AAo?$AAr?$AA?$AN?$AA?6?$AA?$AA@ 000000018003e088     LIBCMT:crt0msg.obj
 0002:000070a4       ??_C@_15JNBOKNOG@?$AA?$AN?$AA?6?$AA?$AA@ 000000018003e0a4     LIBCMT:crt0msg.obj
 0002:000070b0       ??_C@_1BO@BKOMIGKJ@?$AAr?$AAu?$AAn?$AAt?$AAi?$AAm?$AAe?$AA?5?$AAe?$AAr?$AAr?$AAo?$AAr?$AA?5?$AA?$AA@ 000000018003e0b0     LIBCMT:crt0msg.obj
 0002:000070d0       ??_C@_1DE@JNGNBFGO@?$AAR?$AAu?$AAn?$AAt?$AAi?$AAm?$AAe?$AA?5?$AAE?$AAr?$AAr?$AAo?$AAr?$AA?$CB?$AA?6?$AA?6?$AAP?$AAr?$AAo?$AAg?$AAr?$AAa?$AAm?$AA?3?$AA?5?$AA?$AA@ 000000018003e0d0     LIBCMT:crt0msg.obj
 0002:00007108       ??_C@_1CO@EAEJAADC@?$AA?$DM?$AAp?$AAr?$AAo?$AAg?$AAr?$AAa?$AAm?$AA?5?$AAn?$AAa?$AAm?$AAe?$AA?5?$AAu?$AAn?$AAk?$AAn?$AAo?$AAw?$AAn?$AA?$DO?$AA?$AA@ 000000018003e108     LIBCMT:crt0msg.obj
 0002:00007138       ??_C@_17LGKOMLJ@?$AA?4?$AA?4?$AA?4?$AA?$AA@ 000000018003e138     LIBCMT:crt0msg.obj
 0002:00007140       ??_C@_15IABLJNFO@?$AA?6?$AA?6?$AA?$AA@ 000000018003e140     LIBCMT:crt0msg.obj
 0002:00007150       ??_C@_1EK@MBDPDCGA@?$AAM?$AAi?$AAc?$AAr?$AAo?$AAs?$AAo?$AAf?$AAt?$AA?5?$AAV?$AAi?$AAs?$AAu?$AAa?$AAl?$AA?5?$AAC?$AA?$CL?$AA?$CL?$AA?5?$AAR?$AAu?$AAn?$AAt?$AAi?$AAm?$AAe?$AA?5?$AAL?$AAi?$AAb@ 000000018003e150     LIBCMT:crt0msg.obj
 0002:00007208       ??_C@_03KHJOGHMM@exp?$AA@  000000018003e208     LIBCMT:fpexcept.obj
 0002:0000720c       ??_C@_03JGHBODFD@pow?$AA@  000000018003e20c     LIBCMT:fpexcept.obj
 0002:00007210       ??_C@_03MGHMBJCF@log?$AA@  000000018003e210     LIBCMT:fpexcept.obj
 0002:00007214       ??_C@_05HGHHAHAP@log10?$AA@ 000000018003e214     LIBCMT:fpexcept.obj
 0002:0000721c       ??_C@_04COOMCNPB@sinh?$AA@ 000000018003e21c     LIBCMT:fpexcept.obj
 0002:00007224       ??_C@_04HPJJNFIM@cosh?$AA@ 000000018003e224     LIBCMT:fpexcept.obj
 0002:0000722c       ??_C@_04FJHINJAO@tanh?$AA@ 000000018003e22c     LIBCMT:fpexcept.obj
 0002:00007234       ??_C@_04FIHNOPOL@asin?$AA@ 000000018003e234     LIBCMT:fpexcept.obj
 0002:0000723c       ??_C@_04PDIFKINK@acos?$AA@ 000000018003e23c     LIBCMT:fpexcept.obj
 0002:00007244       ??_C@_04MLLJIGOK@atan?$AA@ 000000018003e244     LIBCMT:fpexcept.obj
 0002:0000724c       ??_C@_05KNGEOGJB@atan2?$AA@ 000000018003e24c     LIBCMT:fpexcept.obj
 0002:00007254       ??_C@_03BLEJJJBH@sin?$AA@  000000018003e254     LIBCMT:fpexcept.obj
 0002:00007258       ??_C@_03LALBNOCG@cos?$AA@  000000018003e258     LIBCMT:fpexcept.obj
 0002:0000725c       ??_C@_03IIINPABG@tan?$AA@  000000018003e25c     LIBCMT:fpexcept.obj
 0002:00007260       ??_C@_04GFPJNGEK@ceil?$AA@ 000000018003e260     LIBCMT:fpexcept.obj
 0002:00007268       ??_C@_05PBJFFIGL@floor?$AA@ 000000018003e268     LIBCMT:fpexcept.obj
 0002:00007270       ??_C@_04ODHECPBC@fabs?$AA@ 000000018003e270     LIBCMT:fpexcept.obj
 0002:00007278       ??_C@_04EHEDPDJG@modf?$AA@ 000000018003e278     LIBCMT:fpexcept.obj
 0002:00007280       ??_C@_05CEJMAHNP@ldexp?$AA@ 000000018003e280     LIBCMT:fpexcept.obj
 0002:00007288       ??_C@_05KBKMEMPO@_cabs?$AA@ 000000018003e288     LIBCMT:fpexcept.obj
 0002:00007290       ??_C@_04KEPJIHGP@fmod?$AA@ 000000018003e290     LIBCMT:fpexcept.obj
 0002:00007298       ??_C@_05GKKHEGJL@frexp?$AA@ 000000018003e298     LIBCMT:fpexcept.obj
 0002:000072a0       ??_C@_03MJLDFKDL@_y0?$AA@  000000018003e2a0     LIBCMT:fpexcept.obj
 0002:000072a4       ??_C@_03NAKIGLHK@_y1?$AA@  000000018003e2a4     LIBCMT:fpexcept.obj
 0002:000072a8       ??_C@_03ONILCKOB@_yn?$AA@  000000018003e2a8     LIBCMT:fpexcept.obj
 0002:000072ac       ??_C@_05JGDBENOH@_logb?$AA@ 000000018003e2ac     LIBCMT:fpexcept.obj
 0002:000072b8       ??_C@_0L@KDOEJCKC@_nextafter?$AA@ 000000018003e2b8     LIBCMT:fpexcept.obj
 0002:000072c8       __dnames                   000000018003e2c8     LIBCMT:timeset.obj
 0002:000072e0       __mnames                   000000018003e2e0     LIBCMT:timeset.obj
 0002:00007320       __rg_language              000000018003e320     LIBCMT:getqloc.obj
 0002:00007730       ??_C@_1BC@LLOKLNP@?$AAa?$AAm?$AAe?$AAr?$AAi?$AAc?$AAa?$AAn?$AA?$AA@ 000000018003e730     LIBCMT:getqloc.obj
 0002:00007748       ??_C@_1CC@HEIGCDGG@?$AAa?$AAm?$AAe?$AAr?$AAi?$AAc?$AAa?$AAn?$AA?5?$AAe?$AAn?$AAg?$AAl?$AAi?$AAs?$AAh?$AA?$AA@ 000000018003e748     LIBCMT:getqloc.obj
 0002:00007770       ??_C@_1CC@IHCNOMIN@?$AAa?$AAm?$AAe?$AAr?$AAi?$AAc?$AAa?$AAn?$AA?9?$AAe?$AAn?$AAg?$AAl?$AAi?$AAs?$AAh?$AA?$AA@ 000000018003e770     LIBCMT:getqloc.obj
 0002:00007798       ??_C@_1BG@GKAGPCGG@?$AAa?$AAu?$AAs?$AAt?$AAr?$AAa?$AAl?$AAi?$AAa?$AAn?$AA?$AA@ 000000018003e798     LIBCMT:getqloc.obj
 0002:000077b0       ??_C@_1BA@GMENCENF@?$AAb?$AAe?$AAl?$AAg?$AAi?$AAa?$AAn?$AA?$AA@ 000000018003e7b0     LIBCMT:getqloc.obj
 0002:000077c0       ??_C@_1BC@PJMIIAAN@?$AAc?$AAa?$AAn?$AAa?$AAd?$AAi?$AAa?$AAn?$AA?$AA@ 000000018003e7c0     LIBCMT:getqloc.obj
 0002:000077d8       ??_C@_17NOIMNFBF@?$AAc?$AAh?$AAh?$AA?$AA@ 000000018003e7d8     LIBCMT:getqloc.obj
 0002:000077e0       ??_C@_17GGDALCHA@?$AAc?$AAh?$AAi?$AA?$AA@ 000000018003e7e0     LIBCMT:getqloc.obj
 0002:000077e8       ??_C@_1BA@NPNJKIBL@?$AAc?$AAh?$AAi?$AAn?$AAe?$AAs?$AAe?$AA?$AA@ 000000018003e7e8     LIBCMT:getqloc.obj
 0002:000077f8       ??_C@_1CC@DINBAMMJ@?$AAc?$AAh?$AAi?$AAn?$AAe?$AAs?$AAe?$AA?9?$AAh?$AAo?$AAn?$AAg?$AAk?$AAo?$AAn?$AAg?$AA?$AA@ 000000018003e7f8     LIBCMT:getqloc.obj
 0002:00007820       ??_C@_1CG@IOBJPACO@?$AAc?$AAh?$AAi?$AAn?$AAe?$AAs?$AAe?$AA?9?$AAs?$AAi?$AAm?$AAp?$AAl?$AAi?$AAf?$AAi?$AAe?$AAd?$AA?$AA@ 000000018003e820     LIBCMT:getqloc.obj
 0002:00007848       ??_C@_1CE@GAJNDCKG@?$AAc?$AAh?$AAi?$AAn?$AAe?$AAs?$AAe?$AA?9?$AAs?$AAi?$AAn?$AAg?$AAa?$AAp?$AAo?$AAr?$AAe?$AA?$AA@ 000000018003e848     LIBCMT:getqloc.obj
 0002:00007870       ??_C@_1CI@PAJPIOOD@?$AAc?$AAh?$AAi?$AAn?$AAe?$AAs?$AAe?$AA?9?$AAt?$AAr?$AAa?$AAd?$AAi?$AAt?$AAi?$AAo?$AAn?$AAa?$AAl?$AA?$AA@ 000000018003e870     LIBCMT:getqloc.obj
 0002:00007898       ??_C@_1BM@NILJBMMD@?$AAd?$AAu?$AAt?$AAc?$AAh?$AA?9?$AAb?$AAe?$AAl?$AAg?$AAi?$AAa?$AAn?$AA?$AA@ 000000018003e898     LIBCMT:getqloc.obj
 0002:000078b8       ??_C@_1CC@OOJPJNEJ@?$AAe?$AAn?$AAg?$AAl?$AAi?$AAs?$AAh?$AA?9?$AAa?$AAm?$AAe?$AAr?$AAi?$AAc?$AAa?$AAn?$AA?$AA@ 000000018003e8b8     LIBCMT:getqloc.obj
 0002:000078e0       ??_C@_1BI@IOLFEEM@?$AAe?$AAn?$AAg?$AAl?$AAi?$AAs?$AAh?$AA?9?$AAa?$AAu?$AAs?$AA?$AA@ 000000018003e8e0     LIBCMT:getqloc.obj
 0002:000078f8       ??_C@_1BO@HFFNLENJ@?$AAe?$AAn?$AAg?$AAl?$AAi?$AAs?$AAh?$AA?9?$AAb?$AAe?$AAl?$AAi?$AAz?$AAe?$AA?$AA@ 000000018003e8f8     LIBCMT:getqloc.obj
 0002:00007918       ??_C@_1BI@HAPKJMPO@?$AAe?$AAn?$AAg?$AAl?$AAi?$AAs?$AAh?$AA?9?$AAc?$AAa?$AAn?$AA?$AA@ 000000018003e918     LIBCMT:getqloc.obj
 0002:00007930       ??_C@_1CE@HLNDMIOJ@?$AAe?$AAn?$AAg?$AAl?$AAi?$AAs?$AAh?$AA?9?$AAc?$AAa?$AAr?$AAi?$AAb?$AAb?$AAe?$AAa?$AAn?$AA?$AA@ 000000018003e930     LIBCMT:getqloc.obj
 0002:00007958       ??_C@_1BI@LDHJHHAC@?$AAe?$AAn?$AAg?$AAl?$AAi?$AAs?$AAh?$AA?9?$AAi?$AAr?$AAe?$AA?$AA@ 000000018003e958     LIBCMT:getqloc.obj
 0002:00007970       ??_C@_1CA@NJMMCFOC@?$AAe?$AAn?$AAg?$AAl?$AAi?$AAs?$AAh?$AA?9?$AAj?$AAa?$AAm?$AAa?$AAi?$AAc?$AAa?$AA?$AA@ 000000018003e970     LIBCMT:getqloc.obj
 0002:00007990       ??_C@_1BG@BHJEBBGG@?$AAe?$AAn?$AAg?$AAl?$AAi?$AAs?$AAh?$AA?9?$AAn?$AAz?$AA?$AA@ 000000018003e990     LIBCMT:getqloc.obj
 0002:000079a8       ??_C@_1CK@FGOEJJCO@?$AAe?$AAn?$AAg?$AAl?$AAi?$AAs?$AAh?$AA?9?$AAs?$AAo?$AAu?$AAt?$AAh?$AA?5?$AAa?$AAf?$AAr?$AAi?$AAc?$AAa?$AA?$AA@ 000000018003e9a8     LIBCMT:getqloc.obj
 0002:000079d8       ??_C@_1DE@PDBJPCJ@?$AAe?$AAn?$AAg?$AAl?$AAi?$AAs?$AAh?$AA?9?$AAt?$AAr?$AAi?$AAn?$AAi?$AAd?$AAa?$AAd?$AA?5?$AAy?$AA?5?$AAt?$AAo?$AAb?$AAa?$AAg?$AAo?$AA?$AA@ 000000018003e9d8     LIBCMT:getqloc.obj
 0002:00007a10       ??_C@_1BG@JGCANDME@?$AAe?$AAn?$AAg?$AAl?$AAi?$AAs?$AAh?$AA?9?$AAu?$AAk?$AA?$AA@ 000000018003ea10     LIBCMT:getqloc.obj
 0002:00007a28       ??_C@_1BG@DINKMLE@?$AAe?$AAn?$AAg?$AAl?$AAi?$AAs?$AAh?$AA?9?$AAu?$AAs?$AA?$AA@ 000000018003ea28     LIBCMT:getqloc.obj
 0002:00007a40       ??_C@_1BI@NMFDBHJE@?$AAe?$AAn?$AAg?$AAl?$AAi?$AAs?$AAh?$AA?9?$AAu?$AAs?$AAa?$AA?$AA@ 000000018003ea40     LIBCMT:getqloc.obj
 0002:00007a58       ??_C@_1BO@OIHKJKII@?$AAf?$AAr?$AAe?$AAn?$AAc?$AAh?$AA?9?$AAb?$AAe?$AAl?$AAg?$AAi?$AAa?$AAn?$AA?$AA@ 000000018003ea58     LIBCMT:getqloc.obj
 0002:00007a78       ??_C@_1CA@NKAELJKI@?$AAf?$AAr?$AAe?$AAn?$AAc?$AAh?$AA?9?$AAc?$AAa?$AAn?$AAa?$AAd?$AAi?$AAa?$AAn?$AA?$AA@ 000000018003ea78     LIBCMT:getqloc.obj
 0002:00007a98       ??_C@_1CE@MGKCNLGN@?$AAf?$AAr?$AAe?$AAn?$AAc?$AAh?$AA?9?$AAl?$AAu?$AAx?$AAe?$AAm?$AAb?$AAo?$AAu?$AAr?$AAg?$AA?$AA@ 000000018003ea98     LIBCMT:getqloc.obj
 0002:00007ac0       ??_C@_1BK@CEGEAILM@?$AAf?$AAr?$AAe?$AAn?$AAc?$AAh?$AA?9?$AAs?$AAw?$AAi?$AAs?$AAs?$AA?$AA@ 000000018003eac0     LIBCMT:getqloc.obj
 0002:00007ae0       ??_C@_1CA@PAFKEOCC@?$AAg?$AAe?$AAr?$AAm?$AAa?$AAn?$AA?9?$AAa?$AAu?$AAs?$AAt?$AAr?$AAi?$AAa?$AAn?$AA?$AA@ 000000018003eae0     LIBCMT:getqloc.obj
 0002:00007b00       ??_C@_1CI@HCFHGOFD@?$AAg?$AAe?$AAr?$AAm?$AAa?$AAn?$AA?9?$AAl?$AAi?$AAc?$AAh?$AAt?$AAe?$AAn?$AAs?$AAt?$AAe?$AAi?$AAn?$AA?$AA@ 000000018003eb00     LIBCMT:getqloc.obj
 0002:00007b28       ??_C@_1CE@FEDDNPDG@?$AAg?$AAe?$AAr?$AAm?$AAa?$AAn?$AA?9?$AAl?$AAu?$AAx?$AAe?$AAm?$AAb?$AAo?$AAu?$AAr?$AAg?$AA?$AA@ 000000018003eb28     LIBCMT:getqloc.obj
 0002:00007b50       ??_C@_1BK@LIMINNMN@?$AAg?$AAe?$AAr?$AAm?$AAa?$AAn?$AA?9?$AAs?$AAw?$AAi?$AAs?$AAs?$AA?$AA@ 000000018003eb50     LIBCMT:getqloc.obj
 0002:00007b70       ??_C@_1BM@LGMDBEPD@?$AAi?$AAr?$AAi?$AAs?$AAh?$AA?9?$AAe?$AAn?$AAg?$AAl?$AAi?$AAs?$AAh?$AA?$AA@ 000000018003eb70     LIBCMT:getqloc.obj
 0002:00007b90       ??_C@_1BM@NNCFBAEE@?$AAi?$AAt?$AAa?$AAl?$AAi?$AAa?$AAn?$AA?9?$AAs?$AAw?$AAi?$AAs?$AAs?$AA?$AA@ 000000018003eb90     LIBCMT:getqloc.obj
 0002:00007bb0       ??_C@_1BE@FEDJNPIB@?$AAn?$AAo?$AAr?$AAw?$AAe?$AAg?$AAi?$AAa?$AAn?$AA?$AA@ 000000018003ebb0     LIBCMT:getqloc.obj
 0002:00007bc8       ??_C@_1CC@CILKDEIE@?$AAn?$AAo?$AAr?$AAw?$AAe?$AAg?$AAi?$AAa?$AAn?$AA?9?$AAb?$AAo?$AAk?$AAm?$AAa?$AAl?$AA?$AA@ 000000018003ebc8     LIBCMT:getqloc.obj
 0002:00007bf0       ??_C@_1CE@DHMMHEPL@?$AAn?$AAo?$AAr?$AAw?$AAe?$AAg?$AAi?$AAa?$AAn?$AA?9?$AAn?$AAy?$AAn?$AAo?$AAr?$AAs?$AAk?$AA?$AA@ 000000018003ebf0     LIBCMT:getqloc.obj
 0002:00007c18       ??_C@_1CK@OPNMHECD@?$AAp?$AAo?$AAr?$AAt?$AAu?$AAg?$AAu?$AAe?$AAs?$AAe?$AA?9?$AAb?$AAr?$AAa?$AAz?$AAi?$AAl?$AAi?$AAa?$AAn?$AA?$AA@ 000000018003ec18     LIBCMT:getqloc.obj
 0002:00007c48       ??_C@_1CE@KEEHCDB@?$AAs?$AAp?$AAa?$AAn?$AAi?$AAs?$AAh?$AA?9?$AAa?$AAr?$AAg?$AAe?$AAn?$AAt?$AAi?$AAn?$AAa?$AA?$AA@ 000000018003ec48     LIBCMT:getqloc.obj
 0002:00007c70       ??_C@_1CA@GIAOLHJD@?$AAs?$AAp?$AAa?$AAn?$AAi?$AAs?$AAh?$AA?9?$AAb?$AAo?$AAl?$AAi?$AAv?$AAi?$AAa?$AA?$AA@ 000000018003ec70     LIBCMT:getqloc.obj
 0002:00007c90       ??_C@_1BM@OJNDFNPD@?$AAs?$AAp?$AAa?$AAn?$AAi?$AAs?$AAh?$AA?9?$AAc?$AAh?$AAi?$AAl?$AAe?$AA?$AA@ 000000018003ec90     LIBCMT:getqloc.obj
 0002:00007cb0       ??_C@_1CC@OCOLPALL@?$AAs?$AAp?$AAa?$AAn?$AAi?$AAs?$AAh?$AA?9?$AAc?$AAo?$AAl?$AAo?$AAm?$AAb?$AAi?$AAa?$AA?$AA@ 000000018003ecb0     LIBCMT:getqloc.obj
 0002:00007cd8       ??_C@_1CG@BPOFMKBB@?$AAs?$AAp?$AAa?$AAn?$AAi?$AAs?$AAh?$AA?9?$AAc?$AAo?$AAs?$AAt?$AAa?$AA?5?$AAr?$AAi?$AAc?$AAa?$AA?$AA@ 000000018003ecd8     LIBCMT:getqloc.obj
 0002:00007d00       ??_C@_1DG@IGOBAPBB@?$AAs?$AAp?$AAa?$AAn?$AAi?$AAs?$AAh?$AA?9?$AAd?$AAo?$AAm?$AAi?$AAn?$AAi?$AAc?$AAa?$AAn?$AA?5?$AAr?$AAe?$AAp?$AAu?$AAb?$AAl?$AAi?$AAc?$AA?$AA@ 000000018003ed00     LIBCMT:getqloc.obj
 0002:00007d38       ??_C@_1CA@JHAPGEGI@?$AAs?$AAp?$AAa?$AAn?$AAi?$AAs?$AAh?$AA?9?$AAe?$AAc?$AAu?$AAa?$AAd?$AAo?$AAr?$AA?$AA@ 000000018003ed38     LIBCMT:getqloc.obj
 0002:00007d58       ??_C@_1CI@LAPALJPP@?$AAs?$AAp?$AAa?$AAn?$AAi?$AAs?$AAh?$AA?9?$AAe?$AAl?$AA?5?$AAs?$AAa?$AAl?$AAv?$AAa?$AAd?$AAo?$AAr?$AA?$AA@ 000000018003ed58     LIBCMT:getqloc.obj
 0002:00007d80       ??_C@_1CE@PDGBOFOM@?$AAs?$AAp?$AAa?$AAn?$AAi?$AAs?$AAh?$AA?9?$AAg?$AAu?$AAa?$AAt?$AAe?$AAm?$AAa?$AAl?$AAa?$AA?$AA@ 000000018003ed80     LIBCMT:getqloc.obj
 0002:00007da8       ??_C@_1CC@NBEBAODI@?$AAs?$AAp?$AAa?$AAn?$AAi?$AAs?$AAh?$AA?9?$AAh?$AAo?$AAn?$AAd?$AAu?$AAr?$AAa?$AAs?$AA?$AA@ 000000018003eda8     LIBCMT:getqloc.obj
 0002:00007dd0       ??_C@_1CA@LLKGHBMF@?$AAs?$AAp?$AAa?$AAn?$AAi?$AAs?$AAh?$AA?9?$AAm?$AAe?$AAx?$AAi?$AAc?$AAa?$AAn?$AA?$AA@ 000000018003edd0     LIBCMT:getqloc.obj
 0002:00007df0       ??_C@_1BO@LKNDOIGD@?$AAs?$AAp?$AAa?$AAn?$AAi?$AAs?$AAh?$AA?9?$AAm?$AAo?$AAd?$AAe?$AAr?$AAn?$AA?$AA@ 000000018003edf0     LIBCMT:getqloc.obj
 0002:00007e10       ??_C@_1CE@NMDMOEEB@?$AAs?$AAp?$AAa?$AAn?$AAi?$AAs?$AAh?$AA?9?$AAn?$AAi?$AAc?$AAa?$AAr?$AAa?$AAg?$AAu?$AAa?$AA?$AA@ 000000018003ee10     LIBCMT:getqloc.obj
 0002:00007e38       ??_C@_1BO@LLCBEJGB@?$AAs?$AAp?$AAa?$AAn?$AAi?$AAs?$AAh?$AA?9?$AAp?$AAa?$AAn?$AAa?$AAm?$AAa?$AA?$AA@ 000000018003ee38     LIBCMT:getqloc.obj
 0002:00007e58       ??_C@_1CC@FKPGGIHO@?$AAs?$AAp?$AAa?$AAn?$AAi?$AAs?$AAh?$AA?9?$AAp?$AAa?$AAr?$AAa?$AAg?$AAu?$AAa?$AAy?$AA?$AA@ 000000018003ee58     LIBCMT:getqloc.obj
 0002:00007e80       ??_C@_1BK@CDEIHOOP@?$AAs?$AAp?$AAa?$AAn?$AAi?$AAs?$AAh?$AA?9?$AAp?$AAe?$AAr?$AAu?$AA?$AA@ 000000018003ee80     LIBCMT:getqloc.obj
 0002:00007ea0       ??_C@_1CI@GAHAKKGP@?$AAs?$AAp?$AAa?$AAn?$AAi?$AAs?$AAh?$AA?9?$AAp?$AAu?$AAe?$AAr?$AAt?$AAo?$AA?5?$AAr?$AAi?$AAc?$AAo?$AA?$AA@ 000000018003eea0     LIBCMT:getqloc.obj
 0002:00007ec8       ??_C@_1CA@NKJBCAGP@?$AAs?$AAp?$AAa?$AAn?$AAi?$AAs?$AAh?$AA?9?$AAu?$AAr?$AAu?$AAg?$AAu?$AAa?$AAy?$AA?$AA@ 000000018003eec8     LIBCMT:getqloc.obj
 0002:00007ee8       ??_C@_1CE@ODILCONM@?$AAs?$AAp?$AAa?$AAn?$AAi?$AAs?$AAh?$AA?9?$AAv?$AAe?$AAn?$AAe?$AAz?$AAu?$AAe?$AAl?$AAa?$AA?$AA@ 000000018003eee8     LIBCMT:getqloc.obj
 0002:00007f10       ??_C@_1CA@OBNMCGFO@?$AAs?$AAw?$AAe?$AAd?$AAi?$AAs?$AAh?$AA?9?$AAf?$AAi?$AAn?$AAl?$AAa?$AAn?$AAd?$AA?$AA@ 000000018003ef10     LIBCMT:getqloc.obj
 0002:00007f30       ??_C@_1M@PIPDDPPI@?$AAs?$AAw?$AAi?$AAs?$AAs?$AA?$AA@ 000000018003ef30     LIBCMT:getqloc.obj
 0002:00007f3c       ??_C@_15GMFIMNFM@?$AAu?$AAs?$AA?$AA@ 000000018003ef3c     LIBCMT:getqloc.obj
 0002:00007f48       ??_C@_17HAEBFAGL@?$AAu?$AAs?$AAa?$AA?$AA@ 000000018003ef48     LIBCMT:getqloc.obj
 0002:00007f50       __rg_country               000000018003ef50     LIBCMT:getqloc.obj
 0002:000080c0       ??_C@_1BA@DPFJEPHB@?$AAa?$AAm?$AAe?$AAr?$AAi?$AAc?$AAa?$AA?$AA@ 000000018003f0c0     LIBCMT:getqloc.obj
 0002:000080d0       ??_C@_1BA@ELOGGFK@?$AAb?$AAr?$AAi?$AAt?$AAa?$AAi?$AAn?$AA?$AA@ 000000018003f0d0     LIBCMT:getqloc.obj
 0002:000080e0       ??_C@_1M@GHBGIGDA@?$AAc?$AAh?$AAi?$AAn?$AAa?$AA?$AA@ 000000018003f0e0     LIBCMT:getqloc.obj
 0002:000080f0       ??_C@_1M@NCHEJOPO@?$AAc?$AAz?$AAe?$AAc?$AAh?$AA?$AA@ 000000018003f0f0     LIBCMT:getqloc.obj
 0002:00008100       ??_C@_1BA@BKPAPBLA@?$AAe?$AAn?$AAg?$AAl?$AAa?$AAn?$AAd?$AA?$AA@ 000000018003f100     LIBCMT:getqloc.obj
 0002:00008110       ??_C@_1BM@HKBCKIPC@?$AAg?$AAr?$AAe?$AAa?$AAt?$AA?5?$AAb?$AAr?$AAi?$AAt?$AAa?$AAi?$AAn?$AA?$AA@ 000000018003f110     LIBCMT:getqloc.obj
 0002:00008130       ??_C@_1BA@PPCHPGJB@?$AAh?$AAo?$AAl?$AAl?$AAa?$AAn?$AAd?$AA?$AA@ 000000018003f130     LIBCMT:getqloc.obj
 0002:00008140       ??_C@_1BE@JBMPEGDG@?$AAh?$AAo?$AAn?$AAg?$AA?9?$AAk?$AAo?$AAn?$AAg?$AA?$AA@ 000000018003f140     LIBCMT:getqloc.obj
 0002:00008158       ??_C@_1BI@KOELBBPJ@?$AAn?$AAe?$AAw?$AA?9?$AAz?$AAe?$AAa?$AAl?$AAa?$AAn?$AAd?$AA?$AA@ 000000018003f158     LIBCMT:getqloc.obj
 0002:00008170       ??_C@_15HIEBHAIO@?$AAn?$AAz?$AA?$AA@ 000000018003f170     LIBCMT:getqloc.obj
 0002:00008178       ??_C@_1BC@CHBCPFPI@?$AAp?$AAr?$AA?5?$AAc?$AAh?$AAi?$AAn?$AAa?$AA?$AA@ 000000018003f178     LIBCMT:getqloc.obj
 0002:00008190       ??_C@_1BC@JAOIIFKD@?$AAp?$AAr?$AA?9?$AAc?$AAh?$AAi?$AAn?$AAa?$AA?$AA@ 000000018003f190     LIBCMT:getqloc.obj
 0002:000081a8       ??_C@_1BI@BEHPPHKC@?$AAp?$AAu?$AAe?$AAr?$AAt?$AAo?$AA?9?$AAr?$AAi?$AAc?$AAo?$AA?$AA@ 000000018003f1a8     LIBCMT:getqloc.obj
 0002:000081c0       ??_C@_1O@PAEOFKDI@?$AAs?$AAl?$AAo?$AAv?$AAa?$AAk?$AA?$AA@ 000000018003f1c0     LIBCMT:getqloc.obj
 0002:000081d0       ??_C@_1BK@FIHMCKAM@?$AAs?$AAo?$AAu?$AAt?$AAh?$AA?5?$AAa?$AAf?$AAr?$AAi?$AAc?$AAa?$AA?$AA@ 000000018003f1d0     LIBCMT:getqloc.obj
 0002:000081f0       ??_C@_1BI@NAEOODKB@?$AAs?$AAo?$AAu?$AAt?$AAh?$AA?5?$AAk?$AAo?$AAr?$AAe?$AAa?$AA?$AA@ 000000018003f1f0     LIBCMT:getqloc.obj
 0002:00008208       ??_C@_1BK@FBDGGIFF@?$AAs?$AAo?$AAu?$AAt?$AAh?$AA?9?$AAa?$AAf?$AAr?$AAi?$AAc?$AAa?$AA?$AA@ 000000018003f208     LIBCMT:getqloc.obj
 0002:00008228       ??_C@_1BI@GHLEJDPK@?$AAs?$AAo?$AAu?$AAt?$AAh?$AA?9?$AAk?$AAo?$AAr?$AAe?$AAa?$AA?$AA@ 000000018003f228     LIBCMT:getqloc.obj
 0002:00008240       ??_C@_1CE@PLHLOMJF@?$AAt?$AAr?$AAi?$AAn?$AAi?$AAd?$AAa?$AAd?$AA?5?$AA?$CG?$AA?5?$AAt?$AAo?$AAb?$AAa?$AAg?$AAo?$AA?$AA@ 000000018003f240     LIBCMT:getqloc.obj
 0002:00008268       ??_C@_1BO@MODIMHHI@?$AAu?$AAn?$AAi?$AAt?$AAe?$AAd?$AA?9?$AAk?$AAi?$AAn?$AAg?$AAd?$AAo?$AAm?$AA?$AA@ 000000018003f268     LIBCMT:getqloc.obj
 0002:00008288       ??_C@_1BM@FFHJONBJ@?$AAu?$AAn?$AAi?$AAt?$AAe?$AAd?$AA?9?$AAs?$AAt?$AAa?$AAt?$AAe?$AAs?$AA?$AA@ 000000018003f288     LIBCMT:getqloc.obj
 0002:000082a4       __rg_language_count        000000018003f2a4     LIBCMT:getqloc.obj
 0002:000082a8       __rg_country_count         000000018003f2a8     LIBCMT:getqloc.obj
 0002:000082b0       ??_C@_17DNCLJFIF@?$AAA?$AAC?$AAP?$AA?$AA@ 000000018003f2b0     LIBCMT:getqloc.obj
 0002:000082b8       ??_C@_17CIKBIHLH@?$AAO?$AAC?$AAP?$AA?$AA@ 000000018003f2b8     LIBCMT:getqloc.obj
 0002:000082c0       __rglangidNotDefault       000000018003f2c0     LIBCMT:getqloc_downlevel.obj
 0002:000085f8       ??_C@_08EHJDFFNH@__based?$CI?$AA@ 000000018003f5f8     LIBCMT:undname.obj
 0002:00008608       ??_C@_07KOLFKCDI@__cdecl?$AA@ 000000018003f608     LIBCMT:undname.obj
 0002:00008610       ??_C@_08GHMPAG@__pascal?$AA@ 000000018003f610     LIBCMT:undname.obj
 0002:00008620       ??_C@_09IFJBGAPI@__stdcall?$AA@ 000000018003f620     LIBCMT:undname.obj
 0002:00008630       ??_C@_0L@NPHFGOKO@__thiscall?$AA@ 000000018003f630     LIBCMT:undname.obj
 0002:00008640       ??_C@_0L@JMKHOMEK@__fastcall?$AA@ 000000018003f640     LIBCMT:undname.obj
 0002:00008650       ??_C@_0N@BCKKPABJ@__vectorcall?$AA@ 000000018003f650     LIBCMT:undname.obj
 0002:00008660       ??_C@_09HIJEGCPM@__clrcall?$AA@ 000000018003f660     LIBCMT:undname.obj
 0002:0000866c       ??_C@_06GHPCKEAG@__eabi?$AA@ 000000018003f66c     LIBCMT:undname.obj
 0002:00008678       ??_C@_07JOMMBBKO@__ptr64?$AA@ 000000018003f678     LIBCMT:undname.obj
 0002:00008680       ??_C@_0L@PILCLIHE@__restrict?$AA@ 000000018003f680     LIBCMT:undname.obj
 0002:00008690       ??_C@_0M@GFIIJFMG@__unaligned?$AA@ 000000018003f690     LIBCMT:undname.obj
 0002:000086a0       ??_C@_09DHDLOLLB@restrict?$CI?$AA@ 000000018003f6a0     LIBCMT:undname.obj
 0002:000086ac       ??_C@_04NIHEBCM@?5new?$AA@ 000000018003f6ac     LIBCMT:undname.obj
 0002:000086b8       ??_C@_07FPCDHGMM@?5delete?$AA@ 000000018003f6b8     LIBCMT:undname.obj
 0002:000086c0       ??_C@_01NEMOKFLO@?$DN?$AA@ 000000018003f6c0     LIBCMT:undname.obj
 0002:000086c4       ??_C@_02GPIOPFAK@?$DO?$DO?$AA@ 000000018003f6c4     LIBCMT:undname.obj
 0002:000086c8       ??_C@_02FODMEDOG@?$DM?$DM?$AA@ 000000018003f6c8     LIBCMT:undname.obj
 0002:000086cc       ??_C@_01DCLJPIOD@?$CB?$AA@ 000000018003f6cc     LIBCMT:undname.obj
 0002:000086d0       ??_C@_02EGOFBIJA@?$DN?$DN?$AA@ 000000018003f6d0     LIBCMT:undname.obj
 0002:000086d4       ??_C@_02FDNJECIE@?$CB?$DN?$AA@ 000000018003f6d4     LIBCMT:undname.obj
 0002:000086d8       ??_C@_02GPECMEKF@?$FL?$FN?$AA@ 000000018003f6d8     LIBCMT:undname.obj
 0002:000086e0       ??_C@_08LHJFAFGD@operator?$AA@ 000000018003f6e0     LIBCMT:undname.obj
 0002:000086ec       ??_C@_02HBOOOICD@?9?$DO?$AA@ 000000018003f6ec     LIBCMT:undname.obj
 0002:000086f0       ??_C@_02ECNGHCIF@?$CL?$CL?$AA@ 000000018003f6f0     LIBCMT:undname.obj
 0002:000086f4       ??_C@_02BAABKJLB@?9?9?$AA@ 000000018003f6f4     LIBCMT:undname.obj
 0002:000086f8       ??_C@_01MIFGBAGJ@?$CL?$AA@ 000000018003f6f8     LIBCMT:undname.obj
 0002:000086fc       ??_C@_01HNPIGOCE@?$CG?$AA@ 000000018003f6fc     LIBCMT:undname.obj
 0002:00008700       ??_C@_03MNHNFDLC@?9?$DO?$CK?$AA@ 000000018003f700     LIBCMT:undname.obj
 0002:00008704       ??_C@_01KMDKNFGN@?1?$AA@   000000018003f704     LIBCMT:undname.obj
 0002:00008708       ??_C@_01FGNFDNOH@?$CF?$AA@ 000000018003f708     LIBCMT:undname.obj
 0002:0000870c       ??_C@_01MNNFJEPP@?$DM?$AA@ 000000018003f70c     LIBCMT:undname.obj
 0002:00008710       ??_C@_02EHCHHCKH@?$DM?$DN?$AA@ 000000018003f710     LIBCMT:undname.obj
 0002:00008714       ??_C@_01PPODPGHN@?$DO?$AA@ 000000018003f714     LIBCMT:undname.obj
 0002:00008718       ??_C@_02EEKDKGMJ@?$DO?$DN?$AA@ 000000018003f718     LIBCMT:undname.obj
 0002:0000871c       ??_C@_01IHBHIGKO@?0?$AA@   000000018003f71c     LIBCMT:undname.obj
 0002:00008720       ??_C@_02HCKGKOFO@?$CI?$CJ?$AA@ 000000018003f720     LIBCMT:undname.obj
 0002:00008724       ??_C@_01PJKLJHI@?$HO?$AA@  000000018003f724     LIBCMT:undname.obj
 0002:00008728       ??_C@_01JKBOJNNK@?$FO?$AA@ 000000018003f728     LIBCMT:undname.obj
 0002:0000872c       ??_C@_01DNKMNLPK@?$HM?$AA@ 000000018003f72c     LIBCMT:undname.obj
 0002:00008730       ??_C@_02PPKAJPJL@?$CG?$CG?$AA@ 000000018003f730     LIBCMT:undname.obj
 0002:00008734       ??_C@_02NONPIBCD@?$HM?$HM?$AA@ 000000018003f734     LIBCMT:undname.obj
 0002:00008738       ??_C@_02FPIMKNGF@?$CK?$DN?$AA@ 000000018003f738     LIBCMT:undname.obj
 0002:0000873c       ??_C@_02FOEOMHFC@?$CL?$DN?$AA@ 000000018003f73c     LIBCMT:undname.obj
 0002:00008740       ??_C@_02FKMDLLOA@?9?$DN?$AA@ 000000018003f740     LIBCMT:undname.obj
 0002:00008744       ??_C@_02FJEHGPIO@?1?$DN?$AA@ 000000018003f744     LIBCMT:undname.obj
 0002:00008748       ??_C@_02FENAOKFI@?$CF?$DN?$AA@ 000000018003f748     LIBCMT:undname.obj
 0002:0000874c       ??_C@_03IKFCCPFF@?$DO?$DO?$DN?$AA@ 000000018003f74c     LIBCMT:undname.obj
 0002:00008750       ??_C@_03CDNPDDLA@?$DM?$DM?$DN?$AA@ 000000018003f750     LIBCMT:undname.obj
 0002:00008754       ??_C@_02FGJGFEAB@?$CG?$DN?$AA@ 000000018003f754     LIBCMT:undname.obj
 0002:00008758       ??_C@_02DHLNPPGH@?$HM?$DN?$AA@ 000000018003f758     LIBCMT:undname.obj
 0002:0000875c       ??_C@_02MHEGNOJ@?$FO?$DN?$AA@ 000000018003f75c     LIBCMT:undname.obj
 0002:00008760       ??_C@_09IFPLHPGF@?$GAvftable?8?$AA@ 000000018003f760     LIBCMT:undname.obj
 0002:00008770       ??_C@_09BLBHBJP@?$GAvbtable?8?$AA@ 000000018003f770     LIBCMT:undname.obj
 0002:00008780       ??_C@_07FEEIOKP@?$GAvcall?8?$AA@ 000000018003f780     LIBCMT:undname.obj
 0002:00008788       ??_C@_08LLFFHHDJ@?$GAtypeof?8?$AA@ 000000018003f788     LIBCMT:undname.obj
 0002:00008798       ??_C@_0BF@KDPPACIK@?$GAlocal?5static?5guard?8?$AA@ 000000018003f798     LIBCMT:undname.obj
 0002:000087b0       ??_C@_08OBABFOLI@?$GAstring?8?$AA@ 000000018003f7b0     LIBCMT:undname.obj
 0002:000087c0       ??_C@_0BD@JDLKDPAB@?$GAvbase?5destructor?8?$AA@ 000000018003f7c0     LIBCMT:undname.obj
 0002:000087d8       ??_C@_0BN@DEGPLNFK@?$GAvector?5deleting?5destructor?8?$AA@ 000000018003f7d8     LIBCMT:undname.obj
 0002:000087f8       ??_C@_0BO@OBMKPJIG@?$GAdefault?5constructor?5closure?8?$AA@ 000000018003f7f8     LIBCMT:undname.obj
 0002:00008818       ??_C@_0BN@IMDCHIKM@?$GAscalar?5deleting?5destructor?8?$AA@ 000000018003f818     LIBCMT:undname.obj
 0002:00008838       ??_C@_0BO@PFGOCPJJ@?$GAvector?5constructor?5iterator?8?$AA@ 000000018003f838     LIBCMT:undname.obj
 0002:00008858       ??_C@_0BN@LFPFMEDL@?$GAvector?5destructor?5iterator?8?$AA@ 000000018003f858     LIBCMT:undname.obj
 0002:00008878       ??_C@_0CE@IKBNEHA@?$GAvector?5vbase?5constructor?5iterat@ 000000018003f878     LIBCMT:undname.obj
 0002:000088a0       ??_C@_0BL@NILFHHPC@?$GAvirtual?5displacement?5map?8?$AA@ 000000018003f8a0     LIBCMT:undname.obj
 0002:000088c0       ??_C@_0CB@JONCMFFK@?$GAeh?5vector?5constructor?5iterator?8@ 000000018003f8c0     LIBCMT:undname.obj
 0002:000088e8       ??_C@_0CA@GCEOPDGL@?$GAeh?5vector?5destructor?5iterator?8?$AA@ 000000018003f8e8     LIBCMT:undname.obj
 0002:00008908       ??_C@_0CH@OOJPLCPH@?$GAeh?5vector?5vbase?5constructor?5ite@ 000000018003f908     LIBCMT:undname.obj
 0002:00008930       ??_C@_0BL@LLKPOHJI@?$GAcopy?5constructor?5closure?8?$AA@ 000000018003f930     LIBCMT:undname.obj
 0002:00008950       ??_C@_0BA@KBCDOMBN@?$GAudt?5returning?8?$AA@ 000000018003f950     LIBCMT:undname.obj
 0002:00008960       ??_C@_03KLGMFNMG@?$GAEH?$AA@ 000000018003f960     LIBCMT:undname.obj
 0002:00008964       ??_C@_05KHLCHHI@?$GARTTI?$AA@ 000000018003f964     LIBCMT:undname.obj
 0002:00008970       ??_C@_0BA@KKLDJDLB@?$GAlocal?5vftable?8?$AA@ 000000018003f970     LIBCMT:undname.obj
 0002:00008980       ??_C@_0CE@IIHCMGGL@?$GAlocal?5vftable?5constructor?5closu@ 000000018003f980     LIBCMT:undname.obj
 0002:000089a4       ??_C@_06FHBGPFGH@?5new?$FL?$FN?$AA@ 000000018003f9a4     LIBCMT:undname.obj
 0002:000089b0       ??_C@_09LBNFPBCA@?5delete?$FL?$FN?$AA@ 000000018003f9b0     LIBCMT:undname.obj
 0002:000089c0       ??_C@_0P@HJKNJFNN@?$GAomni?5callsig?8?$AA@ 000000018003f9c0     LIBCMT:undname.obj
 0002:000089d0       ??_C@_0BL@CNOONJFP@?$GAplacement?5delete?5closure?8?$AA@ 000000018003f9d0     LIBCMT:undname.obj
 0002:000089f0       ??_C@_0BN@CKNJLHMB@?$GAplacement?5delete?$FL?$FN?5closure?8?$AA@ 000000018003f9f0     LIBCMT:undname.obj
 0002:00008a10       ??_C@_0CG@CFDHKGGD@?$GAmanaged?5vector?5constructor?5iter@ 000000018003fa10     LIBCMT:undname.obj
 0002:00008a38       ??_C@_0CF@IMGKMJNO@?$GAmanaged?5vector?5destructor?5itera@ 000000018003fa38     LIBCMT:undname.obj
 0002:00008a60       ??_C@_0CG@HLDDJMAG@?$GAeh?5vector?5copy?5constructor?5iter@ 000000018003fa60     LIBCMT:undname.obj
 0002:00008a88       ??_C@_0CM@FCBBDIGB@?$GAeh?5vector?5vbase?5copy?5constructo@ 000000018003fa88     LIBCMT:undname.obj
 0002:00008ab8       ??_C@_0BL@CLIPGLGB@?$GAdynamic?5initializer?5for?5?8?$AA@ 000000018003fab8     LIBCMT:undname.obj
 0002:00008ad8       ??_C@_0CB@PDBIFEP@?$GAdynamic?5atexit?5destructor?5for?5?8@ 000000018003fad8     LIBCMT:undname.obj
 0002:00008b00       ??_C@_0CD@CGAJBKEJ@?$GAvector?5copy?5constructor?5iterato@ 000000018003fb00     LIBCMT:undname.obj
 0002:00008b28       ??_C@_0CJ@GJELGAMM@?$GAvector?5vbase?5copy?5constructor?5i@ 000000018003fb28     LIBCMT:undname.obj
 0002:00008b58       ??_C@_0CL@FGIJHLCE@?$GAmanaged?5vector?5copy?5constructor@ 000000018003fb58     LIBCMT:undname.obj
 0002:00008b88       ??_C@_0BM@PMGGMLDN@?$GAlocal?5static?5thread?5guard?8?$AA@ 000000018003fb88     LIBCMT:undname.obj
 0002:00008ba8       ??_C@_0BC@DAFEJGAK@?5Type?5Descriptor?8?$AA@ 000000018003fba8     LIBCMT:undname.obj
 0002:00008bc0       ??_C@_0BM@LDKODKLH@?5Base?5Class?5Descriptor?5at?5?$CI?$AA@ 000000018003fbc0     LIBCMT:undname.obj
 0002:00008be0       ??_C@_0BD@LGICGFMM@?5Base?5Class?5Array?8?$AA@ 000000018003fbe0     LIBCMT:undname.obj
 0002:00008bf8       ??_C@_0BN@MECKDCOJ@?5Class?5Hierarchy?5Descriptor?8?$AA@ 000000018003fbf8     LIBCMT:undname.obj
 0002:00008c18       ??_C@_0BK@CFCOFLF@?5Complete?5Object?5Locator?8?$AA@ 000000018003fc18     LIBCMT:undname.obj
 0002:00008c38       ??_C@_1BG@GOEBHBDC@?$AAU?$AAS?$AAE?$AAR?$AA3?$AA2?$AA?4?$AAD?$AAL?$AAL?$AA?$AA@ 000000018003fc38     LIBCMT:crtmboxw.obj
 0002:00008c50       ??_C@_0M@DLDCCGNP@MessageBoxW?$AA@ 000000018003fc50     LIBCMT:crtmboxw.obj
 0002:00008c60       ??_C@_0BA@HNOPNCHB@GetActiveWindow?$AA@ 000000018003fc60     LIBCMT:crtmboxw.obj
 0002:00008c70       ??_C@_0BD@HHGDFDBJ@GetLastActivePopup?$AA@ 000000018003fc70     LIBCMT:crtmboxw.obj
 0002:00008c88       ??_C@_0BK@DEKFELLI@GetUserObjectInformationW?$AA@ 000000018003fc88     LIBCMT:crtmboxw.obj
 0002:00008ca8       ??_C@_0BI@DFKBFLJE@GetProcessWindowStation?$AA@ 000000018003fca8     LIBCMT:crtmboxw.obj
 0002:00008cc0       ??_C@_0M@HHGEPIBF@CreateFile2?$AA@ 000000018003fcc0     LIBCMT:wopen.obj
 0002:00008cd0       ??_C@_1BA@BALFACEM@?$AAC?$AAO?$AAN?$AAO?$AAU?$AAT?$AA$?$AA?$AA@ 000000018003fcd0     LIBCMT:initcon.obj
 0002:00008ce0       ??_C@_06PGGFOGJG@1?$CDSNAN?$AA@ 000000018003fce0     LIBCMT:x10fout.obj
 0002:00008ce8       ??_C@_05PHHOCPM@1?$CDIND?$AA@ 000000018003fce8     LIBCMT:x10fout.obj
 0002:00008cf0       ??_C@_05DNEBIAHO@1?$CDINF?$AA@ 000000018003fcf0     LIBCMT:x10fout.obj
 0002:00008cf8       ??_C@_06IMKFLFPG@1?$CDQNAN?$AA@ 000000018003fcf8     LIBCMT:x10fout.obj
 0002:00008cff       ??_C@_00CNPNBAHC@?$AA@     000000018003fcff     AebellBroadcast.obj
 0002:00008d00       ??_C@_08CCKFIFOP@userName?$AA@ 000000018003fd00     AebellBroadcast.obj
 0002:00008d0c       ??_C@_06NKIEGJEO@passwd?$AA@ 000000018003fd0c     AebellBroadcast.obj
 0002:00008d14       ??_C@_02MFEOMNPG@IP?$AA@   000000018003fd14     AebellBroadcast.obj
 0002:00008d18       ??_C@_04LPGMAPLE@port?$AA@ 000000018003fd18     AebellBroadcast.obj
 0002:00008d20       ??_C@_0DF@OCLANPIG@LoginInfo?3IP?$FL?$CFs?$FN?0port?$FL?$CFd?$FN?0userNa@ 000000018003fd20     AebellBroadcast.obj
 0002:00008d58       ??_C@_0BH@LNEEPDKC@query?5file?5taskId?$FL?$CFu?$FN?6?$AA@ 000000018003fd58     AebellBroadcast.obj
 0002:00008d70       ??_C@_08DABLFDAO@arraySrc?$AA@ 000000018003fd70     AebellBroadcast.obj
 0002:00008d80       ??_C@_08PJJENCIJ@arrayDst?$AA@ 000000018003fd80     AebellBroadcast.obj
 0002:00008d90       ??_C@_07JPGMNDBD@uVolume?$AA@ 000000018003fd90     AebellBroadcast.obj
 0002:00008d98       ??_C@_0BJ@JMBBEMIE@Broadcast?5src?5fileID?3?$CFs?6?$AA@ 000000018003fd98     AebellBroadcast.obj
 0002:00008db8       ??_C@_0BL@PAPICLPO@Broadcast?5dst?5deviceIP?3?$CFs?6?$AA@ 000000018003fdb8     AebellBroadcast.obj
 0002:00008dd8       ??_C@_0BK@FEIADKEK@BroadcastInfo?3volume?$FL?$CFu?$FN?6?$AA@ 000000018003fdd8     AebellBroadcast.obj
 0002:00008df4       ??_C@_03LOJEKLML@src?$AA@  000000018003fdf4     AebellBroadcast.obj
 0002:00008df8       ??_C@_03HHBLCKEM@dst?$AA@  000000018003fdf8     AebellBroadcast.obj
 0002:00008e00       ??_C@_0BG@DGOOHGOM@Call?5src?5deviceIP?3?$CFs?6?$AA@ 000000018003fe00     AebellBroadcast.obj
 0002:00008e18       ??_C@_0BG@HACGJCBO@Call?5dst?5deviceIP?3?$CFs?6?$AA@ 000000018003fe18     AebellBroadcast.obj
 0002:00008e30       ??_C@_0BF@OPFOBBNP@CallInfo?3volume?$FL?$CFu?$FN?6?$AA@ 000000018003fe30     AebellBroadcast.obj
 0002:00008e48       ??_C@_0CE@EEGIIAG@stop?5broadcast?3taskId?3?$CFu?0dstIP?3?$CF@ 000000018003fe48     AebellBroadcast.obj
 0002:00008e70       ??_C@_0BP@LOCOICJM@stop?5call?3taskId?3?$CFu?0dstIP?3?$CFs?4?6?$AA@ 000000018003fe70     AebellBroadcast.obj
 0002:00008e90       ??_C@_0CP@LJOLKCAB@adjustVolume?3taskId?$FL?$CFu?$FN?0dstIP?$FL?$CFs@ 000000018003fe90     AebellBroadcast.obj
 0002:00008ec0       ??_C@_07PGFFLCJG@devName?$AA@ 000000018003fec0     AebellBroadcast.obj
 0002:00008ec8       ??_C@_07OBMLDKJL@devCode?$AA@ 000000018003fec8     AebellBroadcast.obj
 0002:00008ed0       ??_C@_07FNFGHCOG@devType?$AA@ 000000018003fed0     AebellBroadcast.obj
 0002:00008ed8       ??_C@_05HCOPPHG@devIP?$AA@ 000000018003fed8     AebellBroadcast.obj
 0002:00008ee0       ??_C@_0DI@CDIPHELL@add?5device?3taskId?3?$CFu?0name?3?$CFs?0dev@ 000000018003fee0     AebellBroadcast.obj
 0002:00008f18       ??_C@_05LMAEAMIB@devId?$AA@ 000000018003ff18     AebellBroadcast.obj
 0002:00008f20       ??_C@_0EE@FJJNBMFL@update?5device?3taskId?$DN?$CFu?0name?$DN?$CFs?0@ 000000018003ff20     AebellBroadcast.obj
 0002:00008f68       ??_C@_0CD@BCCEAGHP@delete?5device?3taskId?3?$CFu?0devId?3?$CFs@ 000000018003ff68     AebellBroadcast.obj
 0002:00008f90       ??_C@_08NBNIKBEI@fileName?$AA@ 000000018003ff90     AebellBroadcast.obj
 0002:00008fa0       ??_C@_08HKNLGBDI@fileType?$AA@ 000000018003ffa0     AebellBroadcast.obj
 0002:00008fb0       ??_C@_08JFHFGPGB@fileSize?$AA@ 000000018003ffb0     AebellBroadcast.obj
 0002:00008fc0       ??_C@_08KIFBGOBJ@filePath?$AA@ 000000018003ffc0     AebellBroadcast.obj
 0002:00008fd0       ??_C@_0EH@GLJBDFFG@upload?5file?3taskId?3?$CFu?0fileName?3?$CF@ 000000018003ffd0     AebellBroadcast.obj
 0002:00009018       ??_C@_08ENPCAFNE@planName?$AA@ 0000000180040018     AebellBroadcast.obj
 0002:00009028       ??_C@_0CA@MHFEMAEF@add?5plan?3taskId?$DN?$CFu?0planName?$DN?$CFs?6?$AA@ 0000000180040028     AebellBroadcast.obj
 0002:00009048       ??_C@_08NBICILLI@taskList?$AA@ 0000000180040048     AebellBroadcast.obj
 0002:00009058       ??_C@_08CLJHFNFN@taskName?$AA@ 0000000180040058     AebellBroadcast.obj
 0002:00009068       ??_C@_0N@NPMKDDFF@strBeginTime?$AA@ 0000000180040068     AebellBroadcast.obj
 0002:00009078       ??_C@_0L@CIOGBEDO@strEndTime?$AA@ 0000000180040078     AebellBroadcast.obj
 0002:00009088       ??_C@_0O@BLPOBIMM@strDoworkTime?$AA@ 0000000180040088     AebellBroadcast.obj
 0002:00009098       ??_C@_0P@IFDPOEKJ@strTaskRunDate?$AA@ 0000000180040098     AebellBroadcast.obj
 0002:000090a8       ??_C@_0BC@BNKMHNDO@strTaskFinishTime?$AA@ 00000001800400a8     AebellBroadcast.obj
 0002:000090c0       ??_C@_0L@GBGOKCJD@nCycleMode?$AA@ 00000001800400c0     AebellBroadcast.obj
 0002:000090d0       ??_C@_07MEAGEHD@devList?$AA@ 00000001800400d0     AebellBroadcast.obj
 0002:000090d8       ??_C@_08CLMNHHKN@fileList?$AA@ 00000001800400d8     AebellBroadcast.obj
 0002:000090e8       ??_C@_08PLIPABJL@playMode?$AA@ 00000001800400e8     AebellBroadcast.obj
 0002:000090f8       ??_C@_0M@MEAIINIJ@replayTimes?$AA@ 00000001800400f8     AebellBroadcast.obj
 0002:00009104       ??_C@_06EMCPHFGM@volume?$AA@ 0000000180040104     AebellBroadcast.obj
 0002:00009110       ??_C@_0DN@OHGACDIM@add?5taskInfo?3taskName?$DN?$CFs?0cycleMo@ 0000000180040110     AebellBroadcast.obj
 0002:00009150       ??_C@_0CD@OMMLDPNH@update?5plan?3taskId?$DN?$CFu?0planName?$DN?$CF@ 0000000180040150     AebellBroadcast.obj
 0002:00009180       ??_C@_0EA@CBLMNKKD@update?5taskInfo?3taskName?$DN?$CFs?0cycl@ 0000000180040180     AebellBroadcast.obj
 0002:000091c0       ??_C@_0CD@OCPNPLOK@delete?5plan?3taskId?$DN?$CFu?0planName?$DN?$CF@ 00000001800401c0     AebellBroadcast.obj
 0002:000091e8       ??_C@_0N@FBMHKOAK@sessionDevIP?$AA@ 00000001800401e8     AebellBroadcast.obj
 0002:000091f8       ??_C@_0CK@PEDGGFIG@add?5session?5device?3taskId?$DN?$CFu?0dev@ 00000001800401f8     AebellBroadcast.obj
 0002:00009228       ??_C@_0CN@CIIGIAEJ@delete?5session?5device?3taskId?$DN?$CFu?0@ 0000000180040228     AebellBroadcast.obj
 0002:00009258       ??_C@_0CB@PGKHFDDP@type?3?$CFd?0?5taskId?3?$CFlu?0?5operRet?3?$CFd?6@ 0000000180040258     AebellBroadcast.obj
 0002:0000927c       ??_C@_06ILOOICFN@fileId?$AA@ 000000018004027c     AebellBroadcast.obj
 0002:00009288       ??_C@_08NKKHCEPC@fileResp?$AA@ 0000000180040288     AebellBroadcast.obj
 0002:00009298       ??_C@_07BEIJNKFD@errCode?$AA@ 0000000180040298     AebellBroadcast.obj
 0002:000092a0       ??_C@_07MABOBNPM@operRet?$AA@ 00000001800402a0     AebellBroadcast.obj
 0002:000092a8       ??_C@_07HIBCHMNC@optType?$AA@ 00000001800402a8     AebellBroadcast.obj
 0002:000092b0       ??_C@_08PBBHOFPG@bRespond?$AA@ 00000001800402b0     AebellBroadcast.obj
 0002:000092c0       ??_C@_08DHKLMPBC@deviceIP?$AA@ 00000001800402c0     AebellBroadcast.obj
 0002:000092cc       ??_C@_06JCGDCMFD@uState?$AA@ 00000001800402cc     AebellBroadcast.obj
 0002:000092d8       ??_C@_0L@NKGCJJKG@deviceResp?$AA@ 00000001800402d8     AebellBroadcast.obj
 0002:000092e8       ??_C@_0CC@LENGHHJF@Establish?5broadcast?5session?3?$FL?$CFu?$FN@ 00000001800402e8     AebellBroadcast.obj
 0002:00009310       ??_C@_0BN@NICBJOEJ@Establish?5call?5session?3?$FL?$CFu?$FN?6?$AA@ 0000000180040310     AebellBroadcast.obj
 0002:00009330       ??_C@_0BG@KNAHEODJ@get?5all?5file?5info?4?4?4?6?$AA@ 0000000180040330     AebellBroadcast.obj
 0002:00009348       ??_C@_0BM@ILHHAHNC@timer?5get?5all?5file?5info?4?4?4?6?$AA@ 0000000180040348     AebellBroadcast.obj
 0002:00009368       ??_C@_0BO@HNPLFLMK@Stop?5broadcast?3sessionID?$FL?$CFu?$FN?6?$AA@ 0000000180040368     AebellBroadcast.obj
 0002:00009388       ??_C@_0BJ@NIBDLCFP@Stop?5call?3sessionID?$FL?$CFu?$FN?6?$AA@ 0000000180040388     AebellBroadcast.obj
 0002:000093a8       ??_C@_0BL@CNAHDAOC@StopOperationCB?3result?$DN?$CFd?6?$AA@ 00000001800403a8     AebellBroadcast.obj
 0002:000093c8       ??_C@_0BK@CEIFAAHM@upload?5file?5sessionId?$DN?$CFd?6?$AA@ 00000001800403c8     AebellBroadcast.obj
 0002:000093e8       ??_C@_0BC@NJCOPGKE@nOperateType?$DN?$CFd?4?6?$AA@ 00000001800403e8     AebellBroadcast.obj
 0002:00009400       ??_C@_0CC@HCPDCPGH@upload?5file?5success?3?5fileID?$FL?$CFd?$FN?4@ 0000000180040400     AebellBroadcast.obj
 0002:00009428       ??_C@_0BO@BLPEIKAC@add?5device?5OperateResult?$DN?$CFd?4?6?$AA@ 0000000180040428     AebellBroadcast.obj
 0002:00009448       ??_C@_0CF@GFMKHPHC@add?5device?5attach?5OperateResult?$DN@ 0000000180040448     AebellBroadcast.obj
 0002:00009470       ??_C@_0BI@PJIBMJOE@get?5all?5device?5info?4?4?4?6?$AA@ 0000000180040470     AebellBroadcast.obj
 0002:00009488       ??_C@_0BP@FCDHNAKB@get?5all?5device?5attach?5info?4?4?4?6?$AA@ 0000000180040488     AebellBroadcast.obj
 0002:000094a8       ??_C@_0BP@BGHLIHAH@get?5all?5device?5status?5info?4?4?4?6?$AA@ 00000001800404a8     AebellBroadcast.obj
 0002:000094d0       ??_C@_0EK@MCKPCCNN@get?5all?5device?5status?3deviceIP?$FL?$CF@ 00000001800404d0     AebellBroadcast.obj
 0002:00009520       ??_C@_0BH@OIODMFIA@auto?5device?5status?4?4?4?6?$AA@ 0000000180040520     AebellBroadcast.obj
 0002:00009540       ??_C@_0EI@IEOPMJLJ@auto?5device?5status?3deviceIP?$FL?$CFs?$FN?0@ 0000000180040540     AebellBroadcast.obj
 0002:00009588       ??_C@_0BF@HNCIGHKN@GetAllPolicyInfo?4?4?4?6?$AA@ 0000000180040588     AebellBroadcast.obj
 0002:000095a0       ??_C@_0BH@MDONAKFE@auto?5policy?5status?4?4?4?6?$AA@ 00000001800405a0     AebellBroadcast.obj
 0002:000095b8       ??_C@_0BN@OPDCMFCA@add?1update?5policy?5result?$DN?$CFd?6?$AA@ 00000001800405b8     AebellBroadcast.obj
 0002:000095d8       ??_C@_0CB@NBEEKKDD@add?5plan?5task?5OperateResult?$DN?$CFd?4?6@ 00000001800405d8     AebellBroadcast.obj
 0002:00009600       ??_C@_0CI@OCOLFOND@start?1stop?5plan?5task?5OperateResu@ 0000000180040600     AebellBroadcast.obj
 0002:00009628       ??_C@_0BP@NLCGPMOD@delete?5plan?5OperateResult?$DN?$CFd?4?6?$AA@ 0000000180040628     AebellBroadcast.obj
 0002:00009648       ??_C@_0CK@KKNHOGAC@add?1del?5session?5device?5OperateRe@ 0000000180040648     AebellBroadcast.obj
 0002:00009678       ??_C@_0DB@PMLHLBMO@?$CF08x?9?$CF04x?9?$CF04x?9?$CF02x?$CF02x?9?$CF02x?$CF02x@ 0000000180040678     AebellBroadcast.obj
 0002:000096b0       ??_C@_0L@FMLHBIOH@?R?t?F?$LF?$LC?$KF?$LH?E?F?w?$AA@ 00000001800406b0     AebellBroadcast.obj
 0002:000096c0       ??_C@_0L@GNEFGJMA@?$LG?T?$LN?$LC?$LK?t?$LN?P?U?$LO?$AA@ 00000001800406c0     AebellBroadcast.obj
 0002:000096d0       ??_C@_0L@IMEHGCL@?R?$LL?$LM?$PM?G?s?V?z?F?w?$AA@ 00000001800406d0     AebellBroadcast.obj
 0002:000096e0       ??_C@_0M@OEAFNFCB@startModule?$AA@ 00000001800406e0     AebellBroadcast.obj
 0002:000096f0       ??_C@_0L@JGPKAFFF@stopModule?$AA@ 00000001800406f0     AebellBroadcast.obj
 0002:000096fc       ??_C@_05DAOAAINN@login?$AA@ 00000001800406fc     AebellBroadcast.obj
 0002:00009704       ??_C@_06IGBJOBNO@logout?$AA@ 0000000180040704     AebellBroadcast.obj
 0002:00009710       ??_C@_0N@LKPCGDMM@queryAllFile?$AA@ 0000000180040710     AebellBroadcast.obj
 0002:00009720       ??_C@_0BH@ELBIMGNI@registerDeviceStatusCB?$AA@ 0000000180040720     AebellBroadcast.obj
 0002:00009738       ??_C@_0P@CKLIDOJG@startBroadcast?$AA@ 0000000180040738     AebellBroadcast.obj
 0002:00009748       ??_C@_09EPANLBCL@startCall?$AA@ 0000000180040748     AebellBroadcast.obj
 0002:00009758       ??_C@_0O@NFHKNEPK@stopBroadcast?$AA@ 0000000180040758     AebellBroadcast.obj
 0002:00009768       ??_C@_0N@KKJEGBLK@adjustVolume?$AA@ 0000000180040768     AebellBroadcast.obj
 0002:00009778       ??_C@_08JKFCBOPG@stopCall?$AA@ 0000000180040778     AebellBroadcast.obj
 0002:00009788       ??_C@_09PNKEAONA@addDevice?$AA@ 0000000180040788     AebellBroadcast.obj
 0002:00009798       ??_C@_0N@BCKMMJBC@updateDevice?$AA@ 0000000180040798     AebellBroadcast.obj
 0002:000097a8       ??_C@_09NPBDMKGC@delDevice?$AA@ 00000001800407a8     AebellBroadcast.obj
 0002:000097b8       ??_C@_0L@CIKGEHEG@uploadFile?$AA@ 00000001800407b8     AebellBroadcast.obj
 0002:000097c8       ??_C@_07JBIIMFEH@addPlan?$AA@ 00000001800407c8     AebellBroadcast.obj
 0002:000097d0       ??_C@_07JDEMECPK@delPlan?$AA@ 00000001800407d0     AebellBroadcast.obj
 0002:000097d8       ??_C@_0L@ELBMEPCI@updatePlan?$AA@ 00000001800407d8     AebellBroadcast.obj
 0002:000097e8       ??_C@_0O@FGKHHOO@addSessionDev?$AA@ 00000001800407e8     AebellBroadcast.obj
 0002:000097f8       ??_C@_0O@FKFDLGPI@delSessionDev?$AA@ 00000001800407f8     AebellBroadcast.obj
 0002:00009808       ??_C@_0BA@PNCOJJIE@getTaskResponse?$AA@ 0000000180040808     AebellBroadcast.obj
 0002:00009818       ??_C@_0BE@BPPGDDEI@getAutoDeviceStatus?$AA@ 0000000180040818     AebellBroadcast.obj
 0002:00009830       ??_C@_0BD@KONBODFA@getAllDeviceStatus?$AA@ 0000000180040830     AebellBroadcast.obj
 0002:00009848       ??_C@_0BM@CBEEANDN@?4?4?2addon?2AebellBroadcast?4cc?$AA@ 0000000180040848     AebellBroadcast.obj
 0002:00009868       ??_C@_0BA@EPLECHKP@aebellBroadcast?$AA@ 0000000180040868     AebellBroadcast.obj
 0002:00009878       ??_C@_0BA@JFNIOLAK@string?5too?5long?$AA@ 0000000180040878     AebellBroadcast.obj
 0002:00009888       ??_C@_0BI@CFPLBAOH@invalid?5string?5position?$AA@ 0000000180040888     AebellBroadcast.obj
 0002:000098a0       ??_C@_0BD@OLBABOEK@vector?$DMT?$DO?5too?5long?$AA@ 00000001800408a0     AebellBroadcast.obj
 0002:000098b8       ??_C@_0CA@COEOLLLJ@?e?$II?$JL?e?$LL?$LK?i?$JD?$LO?h?$KB?$KI?d?$LK?$JC?f?$JG?$KF?i?$IH?$IP?e?$KE?$LB?h?$LE?$KF?o?$LM?$IB?6?$AA@ 00000001800408b8     TaskQueue.obj
 0002:000098d8       ??_C@_0BB@MOGOBHAF@list?$DMT?$DO?5too?5long?$AA@ 00000001800408d8     TaskQueue.obj
 0002:000098f0       ??_C@_0BC@BDKFLDHL@unknown?5exception?$AA@ 00000001800408f0     UploadFileTask.obj
 0002:00009908       ??_C@_0BA@ELKIONDK@bad?5locale?5name?$AA@ 0000000180040908     UploadFileTask.obj
 0002:00009918       ??_C@_02LMMGGCAJ@?3?5?$AA@ 0000000180040918     UploadFileTask.obj
 0002:00009920       ??_C@_0BF@PHHKMMFD@ios_base?3?3badbit?5set?$AA@ 0000000180040920     UploadFileTask.obj
 0002:00009938       ??_C@_0BG@FMKFHCIL@ios_base?3?3failbit?5set?$AA@ 0000000180040938     UploadFileTask.obj
 0002:00009950       ??_C@_0BF@OOHOMBOF@ios_base?3?3eofbit?5set?$AA@ 0000000180040950     UploadFileTask.obj
 0002:00009970       ??_C@_0EC@EGAGKGKH@upload?5thread?3upload?5file?$FLfileNa@ 0000000180040970     UploadFileTask.obj
 0002:000099b8       ??_C@_0CE@JAEAFFMM@upload?5thread?3upload?5sessionId?$DN?$CF@ 00000001800409b8     UploadFileTask.obj
 0002:000099e0       ??_C@_0BB@EJLBEBIP@file?5open?5fail?$CB?6?$AA@ 00000001800409e0     UploadFileTask.obj
 0002:000099f8       ??_C@_0BH@BHJEMBGB@file?5retry?5open?5fail?$CB?6?$AA@ 00000001800409f8     UploadFileTask.obj
 0002:00009a10       ??_C@_0BO@NJEBPAPP@upload?5task?5start?0taskId?$DN?$CFlu?6?$AA@ 0000000180040a10     UploadFileTask.obj
 0002:00009a30       ??_C@_0BH@DFLFMOMK@need?5delete?5fileId?$DN?$CFd?6?$AA@ 0000000180040a30     UploadFileTask.obj
 0002:00009a48       ??_C@_0BJ@MMFNNCNN@AEBELL_IPCAST_DeleteFile?$AA@ 0000000180040a48     UploadFileTask.obj
 0002:00009a68       ??_C@_0BJ@NNIPPHO@AEBELL_IPCAST_UploadFile?$AA@ 0000000180040a68     UploadFileTask.obj
 0002:00009a88       ??_C@_0BP@ODCKFIPI@AEBELL_IPCAST_UploadDataInFile?$AA@ 0000000180040a88     UploadFileTask.obj
 0002:00009aa8       ??_C@_0CC@DCGDHBM@AEBELL_IPCAST_FinishUploadingFil@ 0000000180040aa8     UploadFileTask.obj
 0002:00009ad0       ??_C@_0CE@MGCLNMPK@upload?5finish?$FLresult?$DN?$CFd?$FN?0taskId?$DN@ 0000000180040ad0     UploadFileTask.obj
 0002:00009af8       ??_7?$basic_ifstream@DU?$char_traits@D@std@@@std@@6B@ 0000000180040af8     UploadFileTask.obj
 0002:00009b00       ??_7?$basic_streambuf@DU?$char_traits@D@std@@@std@@6B@ 0000000180040b00     UploadFileTask.obj
 0002:00009b80       ??_8?$basic_ifstream@DU?$char_traits@D@std@@@std@@7B@ 0000000180040b80     UploadFileTask.obj
 0002:00009b88       ??_7exception@stdext@@6B@  0000000180040b88     UploadFileTask.obj
 0002:00009ba0       ??_7?$basic_istream@DU?$char_traits@D@std@@@std@@6B@ 0000000180040ba0     UploadFileTask.obj
 0002:00009ba8       ??_7ios_base@std@@6B@      0000000180040ba8     UploadFileTask.obj
 0002:00009ba8       ??_7?$basic_ios@DU?$char_traits@D@std@@@std@@6B@ 0000000180040ba8     UploadFileTask.obj
 0002:00009bb0       ??_7_System_error@std@@6B@ 0000000180040bb0     UploadFileTask.obj
 0002:00009bb0       ??_7failure@ios_base@std@@6B@ 0000000180040bb0     UploadFileTask.obj
 0002:00009bc8       ??_7?$basic_filebuf@DU?$char_traits@D@std@@@std@@6B@ 0000000180040bc8     UploadFileTask.obj
 0002:00009c40       ??_7CBaseThread@@6B@       0000000180040c40     BaseThread.obj
 0002:00009c50       ??_C@_02DPKJAMEF@?$CFd?$AA@ 0000000180040c50     AebellBusiThread.obj
 0002:00009c58       ??_C@_0CB@ONGGCKJI@?g?$LO?$IO?g?$JE?$LF?h?$LE?$JN?e?$LA?$JE?d?$LI?$JK?e?$IK?$KB?g?$LK?$LP?g?$KI?$IL?e?$JA?$KP?e?$IK?$KI?$CB?6@ 0000000180040c58     AebellBusiThread.obj
 0002:00009c80       ??_C@_0BP@OPHAAKAN@?g?$LO?$IO?g?$JE?$LF?h?$LE?$JN?e?$LA?$JE?d?$LI?$JK?e?$IK?$KB?g?$LK?$LP?g?$KI?$IL?i?$IA?$IA?e?$IH?$DP?$AA@ 0000000180040c80     AebellBusiThread.obj
 0002:00009ca0       ??_C@_0BO@GKLCNPBH@deal?5start?5broadcast?5task?4?4?4?6?$AA@ 0000000180040ca0     AebellBusiThread.obj
 0002:00009cc0       ??_C@_0BN@EONGBOPE@deal?5stop?5broadcast?5task?4?4?4?6?$AA@ 0000000180040cc0     AebellBusiThread.obj
 0002:00009ce0       ??_C@_0BN@HKFBIIPD@deal?5query?5all?5file?5task?4?4?4?6?$AA@ 0000000180040ce0     AebellBusiThread.obj
 0002:00009d00       ??_C@_0BM@PFOCOCPO@deal?5adjust?5volume?5task?4?4?4?6?$AA@ 0000000180040d00     AebellBusiThread.obj
 0002:00009d20       ??_C@_0BJ@FDMBFGMO@deal?5start?5call?5task?4?4?4?6?$AA@ 0000000180040d20     AebellBusiThread.obj
 0002:00009d40       ??_C@_0BI@HCAGNOFC@deal?5stop?5call?5task?4?4?4?6?$AA@ 0000000180040d40     AebellBusiThread.obj
 0002:00009d58       ??_C@_0CA@IMBPNEPP@deal?5add?1update?5device?5task?4?4?4?6?$AA@ 0000000180040d58     AebellBusiThread.obj
 0002:00009d78       ??_C@_0BJ@FFPDJIHP@deal?5del?5device?5task?4?4?4?6?$AA@ 0000000180040d78     AebellBusiThread.obj
 0002:00009d98       ??_C@_0BH@LAEDALEN@deal?5add?5plan?5task?4?4?4?6?$AA@ 0000000180040d98     AebellBusiThread.obj
 0002:00009db0       ??_C@_0BK@PGEEEANB@deal?5update?5plan?5task?4?4?4?6?$AA@ 0000000180040db0     AebellBusiThread.obj
 0002:00009dd0       ??_C@_0BK@OLDPGABK@deal?5delete?5plan?5task?4?4?4?6?$AA@ 0000000180040dd0     AebellBusiThread.obj
 0002:00009df0       ??_C@_0CB@DPMCDDGP@deal?5add?5session?5device?5task?4?4?4?6@ 0000000180040df0     AebellBusiThread.obj
 0002:00009e18       ??_C@_0CE@GABBIILF@deal?5delete?5session?5device?5task?4@ 0000000180040e18     AebellBusiThread.obj
 0002:00009e40       ??_C@_0BK@PPJADDKP@unknown?5task?$FLtype?$DN?$CFd?$FN?$CB?$CB?$CB?6?$AA@ 0000000180040e40     AebellBusiThread.obj
 0002:00009e60       ??_C@_0BP@PCCCELOB@AEBELL_IPCAST_GetAllNetDevices?$AA@ 0000000180040e60     AebellBusiThread.obj
 0002:00009e80       ??_C@_0CC@GCBKOFAF@AEBELL_IPCAST_GetDeviceAttachByI@ 0000000180040e80     AebellBusiThread.obj
 0002:00009ea8       ??_C@_0CC@MIIFJOCE@AEBELL_IPCAST_GetAllUploadedFile@ 0000000180040ea8     AebellBusiThread.obj
 0002:00009ed0       ??_C@_0CB@NDGKGGJK@AEBELL_IPCAST_GetAllDeviceStatus@ 0000000180040ed0     AebellBusiThread.obj
 0002:00009ef8       ??_C@_0CA@OPCBDMOH@AEBELL_IPCAST_StartBroadcasting?$AA@ 0000000180040ef8     AebellBusiThread.obj
 0002:00009f18       ??_C@_0BD@HKDIBPKI@AEBELL_IPCAST_Call?$AA@ 0000000180040f18     AebellBusiThread.obj
 0002:00009f30       ??_C@_0BO@HCNPFMBI@AEBELL_IPCAST_SetDeviceVolume?$AA@ 0000000180040f30     AebellBusiThread.obj
 0002:00009f50       ??_C@_0DE@EJOMGABJ@adjust?5device?5volume?o?$LM?$JKIP?3?$CFs?0pho@ 0000000180040f50     AebellBusiThread.obj
 0002:00009f88       ??_C@_0CA@NKJLDNFJ@AEBELL_IPCAST_AddBaseDeviceInfo?$AA@ 0000000180040f88     AebellBusiThread.obj
 0002:00009fa8       ??_C@_0BO@DHKCLPLF@AEBELL_IPCAST_AddDeviceAttach?$AA@ 0000000180040fa8     AebellBusiThread.obj
 0002:00009fc8       ??_C@_0BO@JCHNDCM@AEBELL_IPCAST_RemoveNetDevice?$AA@ 0000000180040fc8     AebellBusiThread.obj
 0002:00009fe8       ??_C@_0BF@EKAHKEBC@remove?5device?3ID?$DN?$CFs?6?$AA@ 0000000180040fe8     AebellBusiThread.obj
 0002:0000a000       ??_C@_0BG@JIAMBLAG@stop?5broadcast?3IP?3?$CFs?6?$AA@ 0000000180041000     AebellBusiThread.obj
 0002:0000a018       ??_C@_0BP@OIPHHBNG@AEBELL_IPCAST_GetDevStatusByIP?$AA@ 0000000180041018     AebellBusiThread.obj
 0002:0000a038       ??_C@_0BB@ODOBMNOL@stop?5call?3IP?3?$CFs?6?$AA@ 0000000180041038     AebellBusiThread.obj
 0002:0000a050       ??_C@_0BO@IDNCPJAK@add?5plan?5task?0strPolicyId?$DN?$CFs?6?$AA@ 0000000180041050     AebellBusiThread.obj
 0002:0000a070       ??_C@_0CC@NIFPMFKP@AEBELL_IPCAST_AddBCTaskIntoPolic@ 0000000180041070     AebellBusiThread.obj
 0002:0000a098       ??_C@_0BI@NEJMBAIB@AEBELL_IPCAST_StartTask?$AA@ 0000000180041098     AebellBusiThread.obj
 0002:0000a0b0       ??_C@_0BM@KNELIAHA@AEBELL_IPCAST_AddTaskPolicy?$AA@ 00000001800410b0     AebellBusiThread.obj
 0002:0000a0d0       ??_C@_0BP@LAPLGCIJ@AEBELL_IPCAST_RemoveTaskPolicy?$AA@ 00000001800410d0     AebellBusiThread.obj
 0002:0000a0f0       ??_C@_0CD@HMFPGEMB@AEBELL_IPCAST_AddDeviceIntoSessi@ 00000001800410f0     AebellBusiThread.obj
 0002:0000a118       ??_C@_0CG@EDEBLNPA@AEBELL_IPCAST_RemoveDeviceFromSe@ 0000000180041118     AebellBusiThread.obj
 0002:0000a140       ??_C@_0BD@CEMIABPB@devIP?3?$CFs?0devId?3?$CFs?6?$AA@ 0000000180041140     AebellBusiThread.obj
 0002:0000a158       ??_C@_0BG@GJLENKKF@devId?3?$CFs?0phoneNum?3?$CFu?6?$AA@ 0000000180041158     AebellBusiThread.obj
 0002:0000a170       ??_C@_0BE@KGKAOJFO@AebellIpcastSdk?4dll?$AA@ 0000000180041170     AebellBusiThread.obj
 0002:0000a188       ??_C@_0BD@JAIBLPCM@load?5dll?5success?4?6?$AA@ 0000000180041188     AebellBusiThread.obj
 0002:0000a1a0       ??_C@_0BO@BNOGAHMH@load?5dll?5failure?0?5errCode?3?$CFd?6?$AA@ 00000001800411a0     AebellBusiThread.obj
 0002:0000a1c0       ??_C@_0BI@LDDNBAOC@dll?5is?5load?5already?4?4?4?6?$AA@ 00000001800411c0     AebellBusiThread.obj
 0002:0000a1d8       ??_C@_0L@OJIMAILO@free?5dll?4?6?$AA@ 00000001800411d8     AebellBusiThread.obj
 0002:0000a1e8       ??_C@_0BG@FIDOPNCO@AEBELL_IPCAST_Connect?$AA@ 00000001800411e8     AebellBusiThread.obj
 0002:0000a200       ??_C@_0BD@OIMLENI@login?5result?$FL?$CFd?$FN?4?6?$AA@ 0000000180041200     AebellBusiThread.obj
 0002:0000a218       ??_C@_0BJ@HGPNFDIF@AEBELL_IPCAST_DisConnect?$AA@ 0000000180041218     AebellBusiThread.obj
 0002:0000a238       ??_C@_0CC@DOHHOMHG@AEBELL_IPCAST_AutoGetDeviceStatu@ 0000000180041238     AebellBusiThread.obj
 0002:0000a260       ??_C@_0CB@FIGKDOMG@AEBELL_IPCAST_CancelBroadcasting@ 0000000180041260     AebellBusiThread.obj
 0002:0000a288       ??_C@_0BM@LOHEGFMN@AEBELL_IPCAST_CancelCalling?$AA@ 0000000180041288     AebellBusiThread.obj
 0002:0000a2a8       ??_C@_0CD@DCLFCCHF@fileName?3?$CFs?0fullName?3?$CFs?0fileId?3?$CF@ 00000001800412a8     AebellBusiThread.obj
 0002:0000a2d0       ??_C@_0BP@HEBKEIGN@AEBELL_IPCAST_GetAllTaskPolicy?$AA@ 00000001800412d0     AebellBusiThread.obj
 0002:0000a2f0       ??_C@_0CC@MHLDHAHA@AEBELL_IPCAST_AutoGetPolicyStatu@ 00000001800412f0     AebellBusiThread.obj
 0002:0000a318       ??_C@_0BL@OFADJDMN@policyName?$DN?$CFs?0policyId?$DN?$CFs?6?$AA@ 0000000180041318     AebellBusiThread.obj
 0002:0000a338       ??_C@_0BE@JONHPENG@map?1set?$DMT?$DO?5too?5long?$AA@ 0000000180041338     AebellBusiThread.obj
 0002:0000a350       ??_7?$_Ref_count@VCBroadcastTask@@@std@@6B@ 0000000180041350     AebellBusiThread.obj
 0002:0000a370       ??_7_Ref_count_base@std@@6B@ 0000000180041370     AebellBusiThread.obj
 0002:0000a390       ??_7CAEBELLBusiThread@@6B@ 0000000180041390     AebellBusiThread.obj
 0002:0000a3a0       ??_7?$_Ref_count@VCUploadFileTask@@@std@@6B@ 00000001800413a0     AebellBusiThread.obj
 0002:0000a3c0       ??_C@_0CH@FAIHBLFJ@?g?$LO?$IO?g?$JE?$LF?h?$LE?$JN?e?$LA?$JE?d?$LI?$IK?d?$LM?$KA?f?$JG?$IH?d?$LL?$LG?g?$LK?$LP?g?$KI?$IL?e?$JA@ 00000001800413c0     AebellUploadThread.obj
 0002:0000a3e8       ??_C@_0BP@CFBLJGLE@?g?$LO?$IO?g?$JE?$LF?h?$LE?$JN?e?$LA?$JE?d?$LI?$IK?d?$LM?$KA?g?$LK?$LP?g?$KI?$IL?i?$IA?$IA?e?$IH?$DP?$AA@ 00000001800413e8     AebellUploadThread.obj
 0002:0000a408       ??_7CAEBELLUploadThread@@6B@ 0000000180041408     AebellUploadThread.obj
 0002:0000a418       ??_C@_08HCOMDCCD@iojs?4exe?$AA@ 0000000180041418     win_delay_load_hook.obj
 0002:0000a428       ??_C@_08JDDNMFDB@node?4exe?$AA@ 0000000180041428     win_delay_load_hook.obj
 0002:0000a438       __real@43f0000000000000    0000000180041438     AebellBroadcast.obj
 0002:0000a440       __xmm@00000000000000000000000300000000 0000000180041440     AebellBusiThread.obj
 0002:0000a450       _load_config_used          0000000180041450     LIBCMT:loadcfg.obj
 0002:0000a560       ??_R1A@?0A@EA@exception@std@@8 0000000180041560     libcpmt:xthrow.obj
 0002:0000a588       ??_R3exception@std@@8      0000000180041588     libcpmt:xthrow.obj
 0002:0000a5a0       ??_R2exception@std@@8      00000001800415a0     libcpmt:xthrow.obj
 0002:0000a5b0       ??_R4bad_alloc@std@@6B@    00000001800415b0     libcpmt:xthrow.obj
 0002:0000a5d8       ??_R3bad_alloc@std@@8      00000001800415d8     libcpmt:xthrow.obj
 0002:0000a5f0       ??_R2bad_alloc@std@@8      00000001800415f0     libcpmt:xthrow.obj
 0002:0000a608       ??_R1A@?0A@EA@bad_alloc@std@@8 0000000180041608     libcpmt:xthrow.obj
 0002:0000a630       ??_R4logic_error@std@@6B@  0000000180041630     libcpmt:xthrow.obj
 0002:0000a658       ??_R3logic_error@std@@8    0000000180041658     libcpmt:xthrow.obj
 0002:0000a670       ??_R2logic_error@std@@8    0000000180041670     libcpmt:xthrow.obj
 0002:0000a688       ??_R1A@?0A@EA@logic_error@std@@8 0000000180041688     libcpmt:xthrow.obj
 0002:0000a6b0       ??_R4length_error@std@@6B@ 00000001800416b0     libcpmt:xthrow.obj
 0002:0000a6d8       ??_R3length_error@std@@8   00000001800416d8     libcpmt:xthrow.obj
 0002:0000a6f0       ??_R2length_error@std@@8   00000001800416f0     libcpmt:xthrow.obj
 0002:0000a710       ??_R1A@?0A@EA@length_error@std@@8 0000000180041710     libcpmt:xthrow.obj
 0002:0000a738       ??_R4out_of_range@std@@6B@ 0000000180041738     libcpmt:xthrow.obj
 0002:0000a760       ??_R3out_of_range@std@@8   0000000180041760     libcpmt:xthrow.obj
 0002:0000a778       ??_R2out_of_range@std@@8   0000000180041778     libcpmt:xthrow.obj
 0002:0000a798       ??_R1A@?0A@EA@out_of_range@std@@8 0000000180041798     libcpmt:xthrow.obj
 0002:0000a7c0       ??_R4runtime_error@std@@6B@ 00000001800417c0     libcpmt:xthrow.obj
 0002:0000a7e8       ??_R3runtime_error@std@@8  00000001800417e8     libcpmt:xthrow.obj
 0002:0000a800       ??_R2runtime_error@std@@8  0000000180041800     libcpmt:xthrow.obj
 0002:0000a818       ??_R1A@?0A@EA@runtime_error@std@@8 0000000180041818     libcpmt:xthrow.obj
 0002:0000a840       ??_R4_Facet_base@std@@6B@  0000000180041840     libcpmt:locale0.obj
 0002:0000a868       ??_R3_Facet_base@std@@8    0000000180041868     libcpmt:locale0.obj
 0002:0000a880       ??_R2_Facet_base@std@@8    0000000180041880     libcpmt:locale0.obj
 0002:0000a890       ??_R1A@?0A@EA@_Facet_base@std@@8 0000000180041890     libcpmt:locale0.obj
 0002:0000a8b8       ??_R4_Locimp@locale@std@@6B@ 00000001800418b8     libcpmt:locale0.obj
 0002:0000a8e0       ??_R3_Locimp@locale@std@@8 00000001800418e0     libcpmt:locale0.obj
 0002:0000a8f8       ??_R2_Locimp@locale@std@@8 00000001800418f8     libcpmt:locale0.obj
 0002:0000a918       ??_R1A@?0A@EA@_Locimp@locale@std@@8 0000000180041918     libcpmt:locale0.obj
 0002:0000a940       ??_R1A@?0A@EA@facet@locale@std@@8 0000000180041940     libcpmt:locale0.obj
 0002:0000a968       ??_R3facet@locale@std@@8   0000000180041968     libcpmt:locale0.obj
 0002:0000a980       ??_R2facet@locale@std@@8   0000000180041980     libcpmt:locale0.obj
 0002:0000a998       ??_R3codecvt_base@std@@8   0000000180041998     libcpmt:locale.obj
 0002:0000a9b0       ??_R2codecvt_base@std@@8   00000001800419b0     libcpmt:locale.obj
 0002:0000a9d0       ??_R1A@?0A@EA@codecvt_base@std@@8 00000001800419d0     libcpmt:locale.obj
 0002:0000a9f8       ??_R3ctype_base@std@@8     00000001800419f8     libcpmt:locale.obj
 0002:0000aa10       ??_R2ctype_base@std@@8     0000000180041a10     libcpmt:locale.obj
 0002:0000aa30       ??_R1A@?0A@EA@ctype_base@std@@8 0000000180041a30     libcpmt:locale.obj
 0002:0000aa58       ??_R4?$ctype@D@std@@6B@    0000000180041a58     libcpmt:locale.obj
 0002:0000aa80       ??_R3?$ctype@D@std@@8      0000000180041a80     libcpmt:locale.obj
 0002:0000aa98       ??_R2?$ctype@D@std@@8      0000000180041a98     libcpmt:locale.obj
 0002:0000aac0       ??_R1A@?0A@EA@?$ctype@D@std@@8 0000000180041ac0     libcpmt:locale.obj
 0002:0000aae8       ??_R4?$codecvt@DDH@std@@6B@ 0000000180041ae8     libcpmt:locale.obj
 0002:0000ab10       ??_R3?$codecvt@DDH@std@@8  0000000180041b10     libcpmt:locale.obj
 0002:0000ab28       ??_R2?$codecvt@DDH@std@@8  0000000180041b28     libcpmt:locale.obj
 0002:0000ab50       ??_R1A@?0A@EA@?$codecvt@DDH@std@@8 0000000180041b50     libcpmt:locale.obj
 0002:0000ab78       ??_R4type_info@@6B@        0000000180041b78     LIBCMT:typinfo.obj
 0002:0000aba0       ??_R3type_info@@8          0000000180041ba0     LIBCMT:typinfo.obj
 0002:0000abb8       ??_R2type_info@@8          0000000180041bb8     LIBCMT:typinfo.obj
 0002:0000abc8       ??_R1A@?0A@EA@type_info@@8 0000000180041bc8     LIBCMT:typinfo.obj
 0002:0000abf0       ??_R4exception@std@@6B@    0000000180041bf0     LIBCMT:stdexcpt.obj
 0002:0000ac18       ??_R4bad_exception@std@@6B@ 0000000180041c18     LIBCMT:frame.obj
 0002:0000ac40       ??_R3bad_exception@std@@8  0000000180041c40     LIBCMT:frame.obj
 0002:0000ac58       ??_R2bad_exception@std@@8  0000000180041c58     LIBCMT:frame.obj
 0002:0000ac70       ??_R1A@?0A@EA@bad_exception@std@@8 0000000180041c70     LIBCMT:frame.obj
 0002:0000ac98       __rtc_iaa                  0000000180041c98     LIBCMT:initsect.obj
 0002:0000aca0       __rtc_izz                  0000000180041ca0     LIBCMT:initsect.obj
 0002:0000aca8       __rtc_taa                  0000000180041ca8     LIBCMT:initsect.obj
 0002:0000acb0       __rtc_tzz                  0000000180041cb0     LIBCMT:initsect.obj
 0002:0000e328       _TI2?AVbad_alloc@std@@     0000000180045328     libcpmt:xthrow.obj
 0002:0000e348       _CTA2?AVbad_alloc@std@@    0000000180045348     libcpmt:xthrow.obj
 0002:0000e360       _CT??_R0?AVbad_alloc@std@@@8??0bad_alloc@std@@QEAA@AEBV01@@Z24 0000000180045360     libcpmt:xthrow.obj
 0002:0000e388       _CT??_R0?AVexception@std@@@8??0exception@std@@QEAA@AEBV01@@Z24 0000000180045388     libcpmt:xthrow.obj
 0002:0000e3b0       _CT??_R0?AVlogic_error@std@@@8??0logic_error@std@@QEAA@AEBV01@@Z24 00000001800453b0     libcpmt:xthrow.obj
 0002:0000e3d8       _TI3?AVlength_error@std@@  00000001800453d8     libcpmt:xthrow.obj
 0002:0000e3f8       _CTA3?AVlength_error@std@@ 00000001800453f8     libcpmt:xthrow.obj
 0002:0000e418       _CT??_R0?AVlength_error@std@@@8??0length_error@std@@QEAA@AEBV01@@Z24 0000000180045418     libcpmt:xthrow.obj
 0002:0000e440       _TI3?AVout_of_range@std@@  0000000180045440     libcpmt:xthrow.obj
 0002:0000e460       _CTA3?AVout_of_range@std@@ 0000000180045460     libcpmt:xthrow.obj
 0002:0000e480       _CT??_R0?AVout_of_range@std@@@8??0out_of_range@std@@QEAA@AEBV01@@Z24 0000000180045480     libcpmt:xthrow.obj
 0002:0000e4a8       _TI2?AVbad_exception@std@@ 00000001800454a8     LIBCMT:frame.obj
 0002:0000e4c8       _CTA2?AVbad_exception@std@@ 00000001800454c8     LIBCMT:frame.obj
 0002:0000e4e0       _CT??_R0?AVbad_exception@std@@@8??0bad_exception@std@@QEAA@AEBV01@@Z24 00000001800454e0     LIBCMT:frame.obj
 0002:0000e504       __DELAY_IMPORT_DESCRIPTOR_node_exe 0000000180045504     node:node.exe
 0002:0000e524       __NULL_DELAY_IMPORT_DESCRIPTOR 0000000180045524     node:node.exe
 0002:0000e5e8       \177node_NULL_THUNK_DATA_DLN 00000001800455e8     node:node.exe
 0002:0000ea80       \177node_NULL_THUNK_DATA_DLB 0000000180045a80     node:node.exe
 0002:0000eb84       __IMPORT_DESCRIPTOR_KERNEL32 0000000180045b84     kernel32:KERNEL32.dll
 0002:0000eb98       __IMPORT_DESCRIPTOR_ole32  0000000180045b98     ole32:ole32.dll
 0002:0000ebac       __IMPORT_DESCRIPTOR_AebellIpcastSdk 0000000180045bac     AebellIpcastSdk:AebellIpcastSdk.dll
 0002:0000ebc0       __NULL_IMPORT_DESCRIPTOR   0000000180045bc0     kernel32:KERNEL32.dll
 0003:00000000       ?_Sync@ios_base@std@@0_NA  0000000180047000     libcpmt:ios.obj
 0003:00000020       ?_PJP_CPP_Copyright@@3PADA 0000000180047020     libcpmt:iosptrs.obj
 0003:00000080       _FDenorm                   0000000180047080     libcpmt:xfvalues.obj
 0003:00000090       _FInf                      0000000180047090     libcpmt:xfvalues.obj
 0003:000000a0       _FNan                      00000001800470a0     libcpmt:xfvalues.obj
 0003:000000b0       _FSnan                     00000001800470b0     libcpmt:xfvalues.obj
 0003:000000c0       _FEps                      00000001800470c0     libcpmt:xfvalues.obj
 0003:000000d0       _FRteps                    00000001800470d0     libcpmt:xfvalues.obj
 0003:000000e0       _FXbig                     00000001800470e0     libcpmt:xfvalues.obj
 0003:000000e8       _Denorm                    00000001800470e8     libcpmt:xvalues.obj
 0003:000000f8       _Hugeval                   00000001800470f8     libcpmt:xvalues.obj
 0003:00000108       _Inf                       0000000180047108     libcpmt:xvalues.obj
 0003:00000118       _Nan                       0000000180047118     libcpmt:xvalues.obj
 0003:00000128       _Snan                      0000000180047128     libcpmt:xvalues.obj
 0003:00000138       _Eps                       0000000180047138     libcpmt:xvalues.obj
 0003:00000148       _Rteps                     0000000180047148     libcpmt:xvalues.obj
 0003:00000158       _Xbig                      0000000180047158     libcpmt:xvalues.obj
 0003:00000160       _LDenorm                   0000000180047160     libcpmt:xlvalues.obj
 0003:00000170       _LInf                      0000000180047170     libcpmt:xlvalues.obj
 0003:00000180       _LNan                      0000000180047180     libcpmt:xlvalues.obj
 0003:00000190       _LSnan                     0000000180047190     libcpmt:xlvalues.obj
 0003:000001a0       _LEps                      00000001800471a0     libcpmt:xlvalues.obj
 0003:000001b0       _LRteps                    00000001800471b0     libcpmt:xlvalues.obj
 0003:000001c0       _LXbig                     00000001800471c0     libcpmt:xlvalues.obj
 0003:000001d0       __abort_behavior           00000001800471d0     LIBCMT:abort.obj
 0003:000001e0       _iob                       00000001800471e0     LIBCMT:_file.obj
 0003:000005a0       _fltused                   00000001800475a0     LIBCMT:fpinit.obj
 0003:000005a4       _ldused                    00000001800475a4     LIBCMT:fpinit.obj
 0003:000007f0       _pctype                    00000001800477f0     LIBCMT:ctype.obj
 0003:000007f8       _pwctype                   00000001800477f8     LIBCMT:ctype.obj
 0003:00000800       __lconv_c                  0000000180047800     LIBCMT:lconv.obj
 0003:00000898       __lconv_static_decimal     0000000180047898     LIBCMT:lconv.obj
 0003:0000089c       __lconv_static_W_decimal   000000018004789c     LIBCMT:lconv.obj
 0003:000008a0       __lconv                    00000001800478a0     LIBCMT:lconv.obj
 0003:000008a8       __security_cookie          00000001800478a8     LIBCMT:gs_cookie.obj
 0003:000008b0       __security_cookie_complement 00000001800478b0     LIBCMT:gs_cookie.obj
 0003:00000a30       __isa_available            0000000180047a30     LIBCMT:cpu_disp.obj
 0003:00000a34       __isa_enabled              0000000180047a34     LIBCMT:cpu_disp.obj
 0003:00000a38       __nullstring               0000000180047a38     LIBCMT:output.obj
 0003:00000a40       __wnullstring              0000000180047a40     LIBCMT:output.obj
 0003:00000a50       __badioinfo                0000000180047a50     LIBCMT:ioinit.obj
 0003:00000aa8       __flsindex                 0000000180047aa8     LIBCMT:tidtable.obj
 0003:00000ab0       _mbctype                   0000000180047ab0     LIBCMT:mbctype.obj
 0003:00000bc0       _mbcasemap                 0000000180047bc0     LIBCMT:mbctype.obj
 0003:00000cc0       __initialmbcinfo           0000000180047cc0     LIBCMT:mbctype.obj
 0003:00000fe0       __ptmbcinfo                0000000180047fe0     LIBCMT:mbctype.obj
 0003:00000fe8       __mb_cur_max               0000000180047fe8     LIBCMT:nlsdata.obj
 0003:00000fec       __wclocalestr              0000000180047fec     LIBCMT:nlsdata.obj
 0003:00000ff0       __lc_time_c                0000000180047ff0     LIBCMT:nlsdata.obj
 0003:000012b0       __ptlocinfo                00000001800482b0     LIBCMT:nlsdata.obj
 0003:000012c0       __initiallocinfo           00000001800482c0     LIBCMT:nlsdata.obj
 0003:00001418       __initiallocalestructinfo  0000000180048418     LIBCMT:nlsdata.obj
 0003:00001428       __globallocalestatus       0000000180048428     LIBCMT:glstatus.obj
 0003:00001440       _cfltcvt_tab               0000000180048440     LIBCMT:cmiscdat.obj
 0003:00001490       _d_inf                     0000000180048490     LIBCMT:util.obj
 0003:00001498       _d_ind                     0000000180048498     LIBCMT:util.obj
 0003:000014a0       _d_max                     00000001800484a0     LIBCMT:util.obj
 0003:000014a8       _d_min                     00000001800484a8     LIBCMT:util.obj
 0003:000014b0       _d_mzero                   00000001800484b0     LIBCMT:util.obj
 0003:000016b0       _timezone                  00000001800486b0     LIBCMT:timeset.obj
 0003:000016b4       _daylight                  00000001800486b4     LIBCMT:timeset.obj
 0003:000016b8       _dstbias                   00000001800486b8     LIBCMT:timeset.obj
 0003:00001740       _tzname                    0000000180048740     LIBCMT:timeset.obj
 0003:00001750       _matherr_flag              0000000180048750     LIBCMT:matherr.obj
 0003:00001760       _lookuptrailbytes          0000000180048760     LIBCMT:read.obj
 0003:00001860       _days                      0000000180048860     LIBCMT:days.obj
 0003:00001898       _lpdays                    0000000180048898     LIBCMT:days.obj
 0003:000018d0       _HUGE                      00000001800488d0     LIBCMT:huge.obj
 0003:00001908       _confh                     0000000180048908     LIBCMT:initcon.obj
 0003:00001910       _pow10pos                  0000000180048910     LIBCMT:constpow.obj
 0003:00001a70       _pow10neg                  0000000180048a70     LIBCMT:constpow.obj
 0003:00001c10       __pfnDliNotifyHook2        0000000180048c10     win_delay_load_hook.obj
 0003:00001c20       ??_R0?AVbad_alloc@std@@@8  0000000180048c20     libcpmt:xthrow.obj
 0003:00001c48       ??_R0?AVexception@std@@@8  0000000180048c48     libcpmt:xthrow.obj
 0003:00001c70       ??_R0?AVlogic_error@std@@@8 0000000180048c70     libcpmt:xthrow.obj
 0003:00001c98       ??_R0?AVlength_error@std@@@8 0000000180048c98     libcpmt:xthrow.obj
 0003:00001cc0       ??_R0?AVout_of_range@std@@@8 0000000180048cc0     libcpmt:xthrow.obj
 0003:00001ce8       ??_R0?AVruntime_error@std@@@8 0000000180048ce8     libcpmt:xthrow.obj
 0003:00001d10       ??_R0?AV_Facet_base@std@@@8 0000000180048d10     libcpmt:locale0.obj
 0003:00001d38       ??_R0?AV_Locimp@locale@std@@@8 0000000180048d38     libcpmt:locale0.obj
 0003:00001d68       ??_R0?AVfacet@locale@std@@@8 0000000180048d68     libcpmt:locale0.obj
 0003:00001d90       ??_R0?AVcodecvt_base@std@@@8 0000000180048d90     libcpmt:locale.obj
 0003:00001db8       ??_R0?AUctype_base@std@@@8 0000000180048db8     libcpmt:locale.obj
 0003:00001de0       ??_R0?AV?$ctype@D@std@@@8  0000000180048de0     libcpmt:locale.obj
 0003:00001e08       ??_R0?AV?$codecvt@DDH@std@@@8 0000000180048e08     libcpmt:locale.obj
 0003:00001e30       ??_R0?AVtype_info@@@8      0000000180048e30     LIBCMT:typinfo.obj
 0003:00001e50       ??_R0?AVbad_exception@std@@@8 0000000180048e50     LIBCMT:frame.obj
 0003:00001e78       __imp_node_module_register 0000000180048e78     node:node.exe
 0003:00001e80       __imp_?Uint32Value@Value@v8@@QEBAIXZ 0000000180048e80     node:node.exe
 0003:00001e88       __imp_?GetFunction@FunctionTemplate@v8@@QEAA?AV?$Local@VFunction@v8@@@2@XZ 0000000180048e88     node:node.exe
 0003:00001e90       __imp_?New@FunctionTemplate@v8@@SA?AV?$Local@VFunctionTemplate@v8@@@2@PEAVIsolate@2@P6AXAEBV?$FunctionCallbackInfo@VValue@v8@@@2@@ZV?$Local@VValue@v8@@@2@V?$Local@VSignature@v8@@@2@HW4ConstructorBehavior@2@@Z 0000000180048e90     node:node.exe
 0003:00001e98       __imp_??1Utf8Value@String@v8@@QEAA@XZ 0000000180048e98     node:node.exe
 0003:00001ea0       __imp_??0Utf8Value@String@v8@@QEAA@V?$Local@VValue@v8@@@2@@Z 0000000180048ea0     node:node.exe
 0003:00001ea8       __imp_?NewFromUtf8@String@v8@@SA?AV?$Local@VString@v8@@@2@PEAVIsolate@2@PEBDW4NewStringType@12@H@Z 0000000180048ea8     node:node.exe
 0003:00001eb0       __imp_?New@Array@v8@@SA?AV?$Local@VArray@v8@@@2@PEAVIsolate@2@H@Z 0000000180048eb0     node:node.exe
 0003:00001eb8       __imp_?Length@Array@v8@@QEBAIXZ 0000000180048eb8     node:node.exe
 0003:00001ec0       __imp_??1HandleScope@v8@@QEAA@XZ 0000000180048ec0     node:node.exe
 0003:00001ec8       __imp_??0HandleScope@v8@@QEAA@PEAVIsolate@1@@Z 0000000180048ec8     node:node.exe
 0003:00001ed0       __imp_?New@Number@v8@@SA?AV?$Local@VNumber@v8@@@2@PEAVIsolate@2@N@Z 0000000180048ed0     node:node.exe
 0003:00001ed8       __imp_?New@Object@v8@@SA?AV?$Local@VObject@v8@@@2@PEAVIsolate@2@@Z 0000000180048ed8     node:node.exe
 0003:00001ee0       __imp_?Get@Object@v8@@QEAA?AV?$Local@VValue@v8@@@2@V32@@Z 0000000180048ee0     node:node.exe
 0003:00001ee8       __imp_?Get@Object@v8@@QEAA?AV?$Local@VValue@v8@@@2@I@Z 0000000180048ee8     node:node.exe
 0003:00001ef0       __imp_?Set@Object@v8@@QEAA_NV?$Local@VValue@v8@@@2@0@Z 0000000180048ef0     node:node.exe
 0003:00001ef8       __imp_?Set@Object@v8@@QEAA_NIV?$Local@VValue@v8@@@2@@Z 0000000180048ef8     node:node.exe
 0003:00001f00       __imp_?SetName@Function@v8@@QEAAXV?$Local@VString@v8@@@2@@Z 0000000180048f00     node:node.exe
 0003:00001f08       __imp_?GetCurrent@Isolate@v8@@SAPEAV12@XZ 0000000180048f08     node:node.exe
 0003:00001f10       __imp_??DUtf8Value@String@v8@@QEAAPEADXZ 0000000180048f10     node:node.exe
 0003:00001f18       \177node_NULL_THUNK_DATA_DLA 0000000180048f18     node:node.exe
 0003:00001f20       __hmod__node_exe           0000000180048f20     node:node.exe
 0003:00001f30       ?_Id_cnt@id@locale@std@@0HA 0000000180048f30     libcpmt:locale0.obj
 0003:00001f40       ?_Clocptr@_Locimp@locale@std@@0PEAV123@EA 0000000180048f40     libcpmt:locale0.obj
 0003:00001f50       ?id@?$codecvt@GDH@std@@2V0locale@2@A 0000000180048f50     libcpmt:locale0.obj
 0003:00001f58       ?id@?$ctype@D@std@@2V0locale@2@A 0000000180048f58     libcpmt:locale0.obj
 0003:00001f60       ?id@?$codecvt@_WDH@std@@2V0locale@2@A 0000000180048f60     libcpmt:locale0.obj
 0003:00001f78       ?id@?$ctype@G@std@@2V0locale@2@A 0000000180048f78     libcpmt:locale0.obj
 0003:00001f80       ?id@?$ctype@_W@std@@2V0locale@2@A 0000000180048f80     libcpmt:locale0.obj
 0003:00001f90       ?_Index@ios_base@std@@0HA  0000000180048f90     libcpmt:ios.obj
 0003:00002000       ?_Raise_handler@std@@3P6AXAEBVexception@stdext@@@ZEA 0000000180049000     libcpmt:raisehan.obj
 0003:000020d0       ?_Ptr_cin@std@@3PEAV?$basic_istream@DU?$char_traits@D@std@@@1@EA 00000001800490d0     libcpmt:iosptrs.obj
 0003:000020d8       ?_Ptr_cout@std@@3PEAV?$basic_ostream@DU?$char_traits@D@std@@@1@EA 00000001800490d8     libcpmt:iosptrs.obj
 0003:000020e0       ?_Ptr_cerr@std@@3PEAV?$basic_ostream@DU?$char_traits@D@std@@@1@EA 00000001800490e0     libcpmt:iosptrs.obj
 0003:000020e8       ?_Ptr_clog@std@@3PEAV?$basic_ostream@DU?$char_traits@D@std@@@1@EA 00000001800490e8     libcpmt:iosptrs.obj
 0003:000020f0       ?_Ptr_wcin@std@@3PEAV?$basic_istream@_WU?$char_traits@_W@std@@@1@EA 00000001800490f0     libcpmt:iosptrs.obj
 0003:000020f8       ?_Ptr_wcout@std@@3PEAV?$basic_ostream@_WU?$char_traits@_W@std@@@1@EA 00000001800490f8     libcpmt:iosptrs.obj
 0003:00002100       ?_Ptr_wcerr@std@@3PEAV?$basic_ostream@_WU?$char_traits@_W@std@@@1@EA 0000000180049100     libcpmt:iosptrs.obj
 0003:00002108       ?_Ptr_wclog@std@@3PEAV?$basic_ostream@_WU?$char_traits@_W@std@@@1@EA 0000000180049108     libcpmt:iosptrs.obj
 0003:00002168       ?id@?$num_get@DV?$istreambuf_iterator@DU?$char_traits@D@std@@@std@@@std@@2V0locale@2@A 0000000180049168     libcpmt:locale.obj
 0003:00002170       ?id@?$num_put@DV?$ostreambuf_iterator@DU?$char_traits@D@std@@@std@@@std@@2V0locale@2@A 0000000180049170     libcpmt:locale.obj
 0003:00002180       ?id@?$time_put@_WV?$ostreambuf_iterator@_WU?$char_traits@_W@std@@@std@@@std@@2V0locale@2@A 0000000180049180     libcpmt:wlocale.obj
 0003:00002188       ?id@?$num_get@_WV?$istreambuf_iterator@_WU?$char_traits@_W@std@@@std@@@std@@2V0locale@2@A 0000000180049188     libcpmt:wlocale.obj
 0003:00002190       ?id@?$num_put@_WV?$ostreambuf_iterator@_WU?$char_traits@_W@std@@@std@@@std@@2V0locale@2@A 0000000180049190     libcpmt:wlocale.obj
 0003:00002198       ?id@?$collate@_W@std@@2V0locale@2@A 0000000180049198     libcpmt:wlocale.obj
 0003:000021a0       ?id@?$messages@_W@std@@2V0locale@2@A 00000001800491a0     libcpmt:wlocale.obj
 0003:000021a8       ?id@?$money_get@_WV?$istreambuf_iterator@_WU?$char_traits@_W@std@@@std@@@std@@2V0locale@2@A 00000001800491a8     libcpmt:wlocale.obj
 0003:000021b0       ?id@?$money_put@_WV?$ostreambuf_iterator@_WU?$char_traits@_W@std@@@std@@@std@@2V0locale@2@A 00000001800491b0     libcpmt:wlocale.obj
 0003:000021b8       ?id@?$moneypunct@_W$0A@@std@@2V0locale@2@A 00000001800491b8     libcpmt:wlocale.obj
 0003:000021c0       ?id@?$moneypunct@_W$00@std@@2V0locale@2@A 00000001800491c0     libcpmt:wlocale.obj
 0003:000021c8       ?id@?$time_get@_WV?$istreambuf_iterator@_WU?$char_traits@_W@std@@@std@@@std@@2V0locale@2@A 00000001800491c8     libcpmt:wlocale.obj
 0003:000021d0       ?id@?$num_get@GV?$istreambuf_iterator@GU?$char_traits@G@std@@@std@@@std@@2V0locale@2@A 00000001800491d0     libcpmt:wlocale.obj
 0003:000021d8       ?id@?$num_put@GV?$ostreambuf_iterator@GU?$char_traits@G@std@@@std@@@std@@2V0locale@2@A 00000001800491d8     libcpmt:wlocale.obj
 0003:000021e0       ?id@?$numpunct@G@std@@2V0locale@2@A 00000001800491e0     libcpmt:wlocale.obj
 0003:000021e8       ?id@?$collate@G@std@@2V0locale@2@A 00000001800491e8     libcpmt:wlocale.obj
 0003:000021f0       ?id@?$messages@G@std@@2V0locale@2@A 00000001800491f0     libcpmt:wlocale.obj
 0003:000021f8       ?id@?$money_get@GV?$istreambuf_iterator@GU?$char_traits@G@std@@@std@@@std@@2V0locale@2@A 00000001800491f8     libcpmt:wlocale.obj
 0003:00002200       ?id@?$money_put@GV?$ostreambuf_iterator@GU?$char_traits@G@std@@@std@@@std@@2V0locale@2@A 0000000180049200     libcpmt:wlocale.obj
 0003:00002208       ?id@?$moneypunct@G$0A@@std@@2V0locale@2@A 0000000180049208     libcpmt:wlocale.obj
 0003:00002210       ?id@?$moneypunct@G$00@std@@2V0locale@2@A 0000000180049210     libcpmt:wlocale.obj
 0003:00002218       ?id@?$time_get@GV?$istreambuf_iterator@GU?$char_traits@G@std@@@std@@@std@@2V0locale@2@A 0000000180049218     libcpmt:wlocale.obj
 0003:00002220       ?id@?$time_put@GV?$ostreambuf_iterator@GU?$char_traits@G@std@@@std@@@std@@2V0locale@2@A 0000000180049220     libcpmt:wlocale.obj
 0003:00002230       ?id@?$collate@D@std@@2V0locale@2@A 0000000180049230     libcpmt:xlocale.obj
 0003:00002238       ?id@?$messages@D@std@@2V0locale@2@A 0000000180049238     libcpmt:xlocale.obj
 0003:00002240       ?id@?$money_get@DV?$istreambuf_iterator@DU?$char_traits@D@std@@@std@@@std@@2V0locale@2@A 0000000180049240     libcpmt:xlocale.obj
 0003:00002248       ?id@?$money_put@DV?$ostreambuf_iterator@DU?$char_traits@D@std@@@std@@@std@@2V0locale@2@A 0000000180049248     libcpmt:xlocale.obj
 0003:00002250       ?id@?$moneypunct@D$0A@@std@@2V0locale@2@A 0000000180049250     libcpmt:xlocale.obj
 0003:00002258       ?id@?$moneypunct@D$00@std@@2V0locale@2@A 0000000180049258     libcpmt:xlocale.obj
 0003:00002260       ?id@?$time_get@DV?$istreambuf_iterator@DU?$char_traits@D@std@@@std@@@std@@2V0locale@2@A 0000000180049260     libcpmt:xlocale.obj
 0003:00002268       ?id@?$time_put@DV?$ostreambuf_iterator@DU?$char_traits@D@std@@@std@@@std@@2V0locale@2@A 0000000180049268     libcpmt:xlocale.obj
 0003:00002274       _FZero                     0000000180049274     libcpmt:xfvalues.obj
 0003:00002278       _Zero                      0000000180049278     libcpmt:xvalues.obj
 0003:00002280       _LZero                     0000000180049280     libcpmt:xlvalues.obj
 0003:00002290       __pInvalidArgHandler       0000000180049290     LIBCMT:invarg.obj
 0003:00002298       _cflush                    0000000180049298     LIBCMT:_file.obj
 0003:000022c0       _aenvptr                   00000001800492c0     LIBCMT:dllcrt0.obj
 0003:000022c8       _wenvptr                   00000001800492c8     LIBCMT:dllcrt0.obj
 0003:000022d0       __fastflag                 00000001800492d0     LIBCMT:fpinit.obj
 0003:00002510       _maxwait                   0000000180049510     LIBCMT:crtheap.obj
 0003:00002514       __lconv_static_null        0000000180049514     LIBCMT:lconv.obj
 0003:00002518       __lconv_static_W_null      0000000180049518     LIBCMT:lconv.obj
 0003:00002aa4       __favor                    0000000180049aa4     LIBCMT:cpu_disp.obj
 0003:00002aa8       _C_Exit_Done               0000000180049aa8     LIBCMT:crt0dat.obj
 0003:00002aac       __argc                     0000000180049aac     LIBCMT:crt0dat.obj
 0003:00002ab0       __argv                     0000000180049ab0     LIBCMT:crt0dat.obj
 0003:00002ab8       __wargv                    0000000180049ab8     LIBCMT:crt0dat.obj
 0003:00002ac0       _environ                   0000000180049ac0     LIBCMT:crt0dat.obj
 0003:00002ac8       _wenviron                  0000000180049ac8     LIBCMT:crt0dat.obj
 0003:00002ad0       _pgmptr                    0000000180049ad0     LIBCMT:crt0dat.obj
 0003:00002ad8       _wpgmptr                   0000000180049ad8     LIBCMT:crt0dat.obj
 0003:00002ae0       _umaskval                  0000000180049ae0     LIBCMT:crt0dat.obj
 0003:00002ae4       _exitflag                  0000000180049ae4     LIBCMT:crt0dat.obj
 0003:00002ae8       _C_Termination_Done        0000000180049ae8     LIBCMT:crt0dat.obj
 0003:00002af0       __winitenv                 0000000180049af0     LIBCMT:crt0dat.obj
 0003:00002af8       __initenv                  0000000180049af8     LIBCMT:crt0dat.obj
 0003:00002b00       _stdbuf                    0000000180049b00     LIBCMT:_sftbuf.obj
 0003:00002b10       __pPurecall                0000000180049b10     LIBCMT:inithelp.obj
 0003:00002b18       ?_pnhHeap@@3P6AH_K@ZEA     0000000180049b18     LIBCMT:handler.obj
 0003:00002b50       __pioinfo                  0000000180049b50     LIBCMT:ioinit.obj
 0003:00002d50       _crtheap                   0000000180049d50     LIBCMT:heapinit.obj
 0003:00002d58       __mbcodepage               0000000180049d58     LIBCMT:mbctype.obj
 0003:00002d5c       __ismbcodepage             0000000180049d5c     LIBCMT:mbctype.obj
 0003:00002d60       __mbulinfo                 0000000180049d60     LIBCMT:mbctype.obj
 0003:00002d70       __mblocalename             0000000180049d70     LIBCMT:mbctype.obj
 0003:00002d7c       __locale_changed           0000000180049d7c     LIBCMT:wsetloca.obj
 0003:00002e88       ?g_OutOfMemoryExceptionCallback@@3P6APEAXXZEA 0000000180049e88     LIBCMT:frame.obj
 0003:00002e90       ?__pInconsistency@@3P6AXXZEA 0000000180049e90     LIBCMT:hooks.obj
 0003:00002eb0       __app_type                 0000000180049eb0     LIBCMT:crt0msg.obj
 0003:000034e8       _newmode                   000000018004a4e8     LIBCMT:_newmode.obj
 0003:000035b8       ?m_pGetParameter@UnDecorator@@0P6APEADJ@ZEA 000000018004a5b8     LIBCMT:undname.obj
 0003:000035c0       ?pArgList@UnDecorator@@0PEAVReplicator@@EA 000000018004a5c0     LIBCMT:undname.obj
 0003:000035c8       ?pZNameList@UnDecorator@@0PEAVReplicator@@EA 000000018004a5c8     LIBCMT:undname.obj
 0003:000035d0       ?pTemplateArgList@UnDecorator@@0PEAVReplicator@@EA 000000018004a5d0     LIBCMT:undname.obj
 0003:000035d8       ?gName@UnDecorator@@0PEBDEB 000000018004a5d8     LIBCMT:undname.obj
 0003:000035e0       ?name@UnDecorator@@0PEBDEB 000000018004a5e0     LIBCMT:undname.obj
 0003:000035e8       ?outputString@UnDecorator@@0PEADEA 000000018004a5e8     LIBCMT:undname.obj
 0003:000035f0       ?maxStringLength@UnDecorator@@0HA 000000018004a5f0     LIBCMT:undname.obj
 0003:000035f4       ?disableFlags@UnDecorator@@0KA 000000018004a5f4     LIBCMT:undname.obj
 0003:000035f8       ?fExplicitTemplateParams@UnDecorator@@0_NA 000000018004a5f8     LIBCMT:undname.obj
 0003:000035f9       ?fGetTemplateArgumentList@UnDecorator@@0_NA 000000018004a5f9     LIBCMT:undname.obj
 0003:00003628       _outputformat              000000018004a628     LIBCMT:outputformat.obj
 0003:0000362c       __error_mode               000000018004a62c     LIBCMT:errmode.obj
 0003:00003658       _commode                   000000018004a658     LIBCMT:ncommode.obj
 0003:0000365c       _fmode                     000000018004a65c     LIBCMT:txtmode.obj
 0003:00003660       __pfnDliFailureHook2       000000018004a660     DelayImp:delayhk1.obj
 0003:00003668       ?_Psave@?$_Facetptr@V?$ctype@D@std@@@std@@2PEBVfacet@locale@2@EB 000000018004a668     UploadFileTask.obj
 0003:00003670       ?_Psave@?$_Facetptr@V?$codecvt@DDH@std@@@std@@2PEBVfacet@locale@2@EB 000000018004a670     UploadFileTask.obj
 0003:00003678       ?m_bStart@CAEBELLBusiThread@@0_NA 000000018004a678     AebellBusiThread.obj
 0003:00003679       ?m_bStart@CAEBELLUploadThread@@0_NA 000000018004a679     AebellUploadThread.obj
 0003:00003680       ?instance_@CAEBELLBusiThread@@0PEAV1@EA 000000018004a680     AebellBusiThread.obj
 0003:00003688       ?instance_@CAEBELLUploadThread@@0PEAV1@EA 000000018004a688     AebellUploadThread.obj
 0003:000037a0       ?m_instanceLock@CAEBELLBusiThread@@0VCLock@@A 000000018004a7a0     AebellBusiThread.obj
 0003:00003850       ?m_instanceLock@CAEBELLUploadThread@@0VCLock@@A 000000018004a850     AebellUploadThread.obj
 0003:000038f8       ?id@?$num_put@_WV?$back_insert_iterator@V?$basic_string@_WU?$char_traits@_W@std@@V?$allocator@_W@2@@std@@@std@@@std@@2V0locale@2@A 000000018004a8f8     AebellBroadcast.obj
 0003:00003900       ?_System_object@?$_Error_objects@H@std@@2V_System_error_category@2@A 000000018004a900     AebellBroadcast.obj
 0003:00003908       ?id@?$numpunct@_W@std@@2V0locale@2@A 000000018004a908     AebellBroadcast.obj
 0003:00003910       ?id@?$num_put@DV?$back_insert_iterator@V?$basic_string@DU?$char_traits@D@std@@V?$allocator@D@2@@std@@@std@@@std@@2V0locale@2@A 000000018004a910     AebellBroadcast.obj
 0003:00003918       ?_Iostream_object@?$_Error_objects@H@std@@2V_Iostream_error_category@2@A 000000018004a918     AebellBroadcast.obj
 0003:00003920       ?_Generic_object@?$_Error_objects@H@std@@2V_Generic_error_category@2@A 000000018004a920     AebellBroadcast.obj
 0003:00003928       ?id@?$numpunct@D@std@@2V0locale@2@A 000000018004a928     AebellBroadcast.obj
 0003:00003930       ?_Stinit@?1??_Init@?$basic_filebuf@DU?$char_traits@D@std@@@std@@IEAAXPEAU_iobuf@@W4_Initfl@23@@Z@4HA 000000018004a930     UploadFileTask.obj
 0003:00003938       ?id@?$codecvt@DDH@std@@2V0locale@2@A 000000018004a938     UploadFileTask.obj
 0003:00003940       _nhandle                   000000018004a940     <common>
 0003:00003944       _debugger_hook_dummy       000000018004a944     <common>
 0003:00003948       __dyn_tls_init_callback    000000018004a948     <common>
 0003:00003950       __onexitend                000000018004a950     <common>
 0003:00003958       __onexitbegin              000000018004a958     <common>
 0003:00003960       __mbctype_initialized      000000018004a960     <common>
 0003:00003964       __env_initialized          000000018004a964     <common>
 0003:00003980       encodedKERNEL32Functions   000000018004a980     <common>
 0003:00003a88       _acmdln                    000000018004aa88     <common>
 0003:00003a90       __piob                     000000018004aa90     <common>
 0003:00003a98       _nstream                   000000018004aa98     <common>
 0003:00003aa0       _bufin                     000000018004aaa0     <common>

 entry point at        0001:0001e6b0

 Static symbols

 0000:fffae000       .debug$S                   0000000180000000     node:node.exe
 0000:fffae000       .debug$S                   0000000180000000     node:node.exe
 0000:fffae000       .debug$S                   0000000180000000     node:node.exe
 0000:fffae000       .debug$S                   0000000180000000     AebellIpcastSdk:AebellIpcastSdk.dll
 0000:fffae000       .debug$S                   0000000180000000     node:node.exe
 0000:fffae000       .debug$S                   0000000180000000     kernel32:KERNEL32.dll
 0000:fffae000       .debug$S                   0000000180000000     node:node.exe
 0000:fffae000       .debug$S                   0000000180000000     AebellIpcastSdk:AebellIpcastSdk.dll
 0000:fffae000       .debug$S                   0000000180000000     kernel32:KERNEL32.dll
 0000:fffae000       .debug$S                   0000000180000000     AebellIpcastSdk:AebellIpcastSdk.dll
 0000:fffae000       .debug$S                   0000000180000000     AebellIpcastSdk:AebellIpcastSdk.dll
 0000:fffae000       .debug$S                   0000000180000000     AebellIpcastSdk:AebellIpcastSdk.dll
 0000:fffae000       .debug$S                   0000000180000000     kernel32:KERNEL32.dll
 0000:fffae000       .debug$S                   0000000180000000     AebellIpcastSdk:AebellIpcastSdk.dll
 0000:fffae000       .debug$S                   0000000180000000     AebellIpcastSdk:AebellIpcastSdk.dll
 0000:fffae000       .debug$S                   0000000180000000     node:node.exe
 0000:fffae000       .debug$S                   0000000180000000     kernel32:KERNEL32.dll
 0000:fffae000       .debug$S                   0000000180000000     AebellIpcastSdk:AebellIpcastSdk.dll
 0000:fffae000       .debug$S                   0000000180000000     node:node.exe
 0000:fffae000       .debug$S                   0000000180000000     node:node.exe
 0000:fffae000       .debug$S                   0000000180000000     AebellIpcastSdk:AebellIpcastSdk.dll
 0000:fffae000       .debug$S                   0000000180000000     node:node.exe
 0000:fffae000       .debug$S                   0000000180000000     AebellIpcastSdk:AebellIpcastSdk.dll
 0000:fffae000       .debug$S                   0000000180000000     node:node.exe
 0000:fffae000       .debug$S                   0000000180000000     kernel32:KERNEL32.dll
 0000:fffae000       .debug$S                   0000000180000000     node:node.exe
 0000:fffae000       .debug$S                   0000000180000000     node:node.exe
 0000:fffae000       .debug$S                   0000000180000000     node:node.exe
 0000:fffae000       .debug$S                   0000000180000000     AebellIpcastSdk:AebellIpcastSdk.dll
 0000:fffae000       .debug$S                   0000000180000000     node:node.exe
 0000:fffae000       .debug$S                   0000000180000000     AebellIpcastSdk:AebellIpcastSdk.dll
 0000:fffae000       .debug$S                   0000000180000000     node:node.exe
 0000:fffae000       .debug$S                   0000000180000000     kernel32:KERNEL32.dll
 0000:fffae000       .debug$S                   0000000180000000     kernel32:KERNEL32.dll
 0000:fffae000       .debug$S                   0000000180000000     kernel32:KERNEL32.dll
 0000:fffae000       .debug$S                   0000000180000000     node:node.exe
 0000:fffae000       .debug$S                   0000000180000000     AebellIpcastSdk:AebellIpcastSdk.dll
 0000:fffae000       .debug$S                   0000000180000000     AebellIpcastSdk:AebellIpcastSdk.dll
 0000:fffae000       .debug$S                   0000000180000000     AebellIpcastSdk:AebellIpcastSdk.dll
 0000:fffae000       .debug$S                   0000000180000000     node:node.exe
 0000:fffae000       .debug$S                   0000000180000000     kernel32:KERNEL32.dll
 0000:fffae000       .debug$S                   0000000180000000     kernel32:KERNEL32.dll
 0000:fffae000       .debug$S                   0000000180000000     kernel32:KERNEL32.dll
 0000:fffae000       .debug$S                   0000000180000000     kernel32:KERNEL32.dll
 0000:fffae000       .debug$S                   0000000180000000     kernel32:KERNEL32.dll
 0000:fffae000       .debug$S                   0000000180000000     node:node.exe
 0000:fffae000       .debug$S                   0000000180000000     kernel32:KERNEL32.dll
 0000:fffae000       .debug$S                   0000000180000000     kernel32:KERNEL32.dll
 0000:fffae000       .debug$S                   0000000180000000     AebellIpcastSdk:AebellIpcastSdk.dll
 0000:fffae000       .debug$S                   0000000180000000     node:node.exe
 0000:fffae000       .debug$S                   0000000180000000     AebellIpcastSdk:AebellIpcastSdk.dll
 0000:fffae000       .debug$S                   0000000180000000     ole32:ole32.dll
 0000:fffae000       .debug$S                   0000000180000000     AebellIpcastSdk:AebellIpcastSdk.dll
 0000:fffae000       .debug$S                   0000000180000000     ole32:ole32.dll
 0000:fffae000       .debug$S                   0000000180000000     node:node.exe
 0000:fffae000       .debug$S                   0000000180000000     kernel32:KERNEL32.dll
 0000:fffae000       .debug$S                   0000000180000000     kernel32:KERNEL32.dll
 0000:fffae000       .debug$S                   0000000180000000     AebellIpcastSdk:AebellIpcastSdk.dll
 0000:fffae000       .debug$S                   0000000180000000     kernel32:KERNEL32.dll
 0000:fffae000       .debug$S                   0000000180000000     ole32:ole32.dll
 0000:fffae000       .debug$S                   0000000180000000     AebellIpcastSdk:AebellIpcastSdk.dll
 0000:fffae000       .debug$S                   0000000180000000     kernel32:KERNEL32.dll
 0000:fffae000       .debug$S                   0000000180000000     kernel32:KERNEL32.dll
 0000:fffae000       .debug$S                   0000000180000000     kernel32:KERNEL32.dll
 0000:fffae000       .debug$S                   0000000180000000     kernel32:KERNEL32.dll
 0000:fffae000       .debug$S                   0000000180000000     kernel32:KERNEL32.dll
 0000:fffae000       .debug$S                   0000000180000000     kernel32:KERNEL32.dll
 0000:fffae000       .debug$S                   0000000180000000     kernel32:KERNEL32.dll
 0000:fffae000       .debug$S                   0000000180000000     kernel32:KERNEL32.dll
 0000:fffae000       .debug$S                   0000000180000000     kernel32:KERNEL32.dll
 0000:fffae000       .debug$S                   0000000180000000     kernel32:KERNEL32.dll
 0000:fffae000       .debug$S                   0000000180000000     kernel32:KERNEL32.dll
 0000:fffae000       .debug$S                   0000000180000000     AebellIpcastSdk:AebellIpcastSdk.dll
 0000:fffae000       .debug$S                   0000000180000000     kernel32:KERNEL32.dll
 0000:fffae000       .debug$S                   0000000180000000     kernel32:KERNEL32.dll
 0000:fffae000       .debug$S                   0000000180000000     kernel32:KERNEL32.dll
 0000:fffae000       .debug$S                   0000000180000000     kernel32:KERNEL32.dll
 0000:fffae000       .debug$S                   0000000180000000     kernel32:KERNEL32.dll
 0000:fffae000       .debug$S                   0000000180000000     AebellIpcastSdk:AebellIpcastSdk.dll
 0000:fffae000       .debug$S                   0000000180000000     kernel32:KERNEL32.dll
 0000:fffae000       .debug$S                   0000000180000000     AebellIpcastSdk:AebellIpcastSdk.dll
 0000:fffae000       .debug$S                   0000000180000000     kernel32:KERNEL32.dll
 0000:fffae000       .debug$S                   0000000180000000     node:node.exe
 0000:fffae000       .debug$S                   0000000180000000     kernel32:KERNEL32.dll
 0000:fffae000       .debug$S                   0000000180000000     kernel32:KERNEL32.dll
 0000:fffae000       .debug$S                   0000000180000000     AebellIpcastSdk:AebellIpcastSdk.dll
 0000:fffae000       .debug$S                   0000000180000000     AebellIpcastSdk:AebellIpcastSdk.dll
 0000:fffae000       .debug$S                   0000000180000000     kernel32:KERNEL32.dll
 0000:fffae000       .debug$S                   0000000180000000     AebellIpcastSdk:AebellIpcastSdk.dll
 0000:fffae000       .debug$S                   0000000180000000     AebellIpcastSdk:AebellIpcastSdk.dll
 0000:fffae000       .debug$S                   0000000180000000     AebellIpcastSdk:AebellIpcastSdk.dll
 0000:fffae000       .debug$S                   0000000180000000     kernel32:KERNEL32.dll
 0000:fffae000       .debug$S                   0000000180000000     node:node.exe
 0000:fffae000       .debug$S                   0000000180000000     kernel32:KERNEL32.dll
 0000:fffae000       .debug$S                   0000000180000000     kernel32:KERNEL32.dll
 0000:fffae000       .debug$S                   0000000180000000     AebellIpcastSdk:AebellIpcastSdk.dll
 0000:fffae000       .debug$S                   0000000180000000     node:node.exe
 0000:fffae000       .debug$S                   0000000180000000     kernel32:KERNEL32.dll
 0000:fffae000       .debug$S                   0000000180000000     node:node.exe
 0000:fffae000       .debug$S                   0000000180000000     kernel32:KERNEL32.dll
 0000:fffae000       .debug$S                   0000000180000000     AebellIpcastSdk:AebellIpcastSdk.dll
 0000:fffae000       .debug$S                   0000000180000000     AebellIpcastSdk:AebellIpcastSdk.dll
 0000:fffae000       .debug$S                   0000000180000000     kernel32:KERNEL32.dll
 0000:fffae000       .debug$S                   0000000180000000     AebellIpcastSdk:AebellIpcastSdk.dll
 0000:fffae000       .debug$S                   0000000180000000     AebellIpcastSdk:AebellIpcastSdk.dll
 0000:fffae000       .debug$S                   0000000180000000     kernel32:KERNEL32.dll
 0000:fffae000       .debug$S                   0000000180000000     kernel32:KERNEL32.dll
 0000:fffae000       .debug$S                   0000000180000000     kernel32:KERNEL32.dll
 0000:fffae000       .debug$S                   0000000180000000     kernel32:KERNEL32.dll
 0000:fffae000       .debug$S                   0000000180000000     kernel32:KERNEL32.dll
 0000:fffae000       .debug$S                   0000000180000000     AebellIpcastSdk:AebellIpcastSdk.dll
 0000:fffae000       .debug$S                   0000000180000000     kernel32:KERNEL32.dll
 0000:fffae000       .debug$S                   0000000180000000     kernel32:KERNEL32.dll
 0000:fffae000       .debug$S                   0000000180000000     kernel32:KERNEL32.dll
 0000:fffae000       .debug$S                   0000000180000000     AebellIpcastSdk:AebellIpcastSdk.dll
 0000:fffae000       .debug$S                   0000000180000000     kernel32:KERNEL32.dll
 0000:fffae000       .debug$S                   0000000180000000     kernel32:KERNEL32.dll
 0000:fffae000       .debug$S                   0000000180000000     kernel32:KERNEL32.dll
 0000:fffae000       .debug$S                   0000000180000000     AebellIpcastSdk:AebellIpcastSdk.dll
 0000:fffae000       .debug$S                   0000000180000000     kernel32:KERNEL32.dll
 0000:fffae000       .debug$S                   0000000180000000     kernel32:KERNEL32.dll
 0000:fffae000       .debug$S                   0000000180000000     kernel32:KERNEL32.dll
 0000:fffae000       .debug$S                   0000000180000000     AebellIpcastSdk:AebellIpcastSdk.dll
 0000:fffae000       .debug$S                   0000000180000000     kernel32:KERNEL32.dll
 0000:fffae000       .debug$S                   0000000180000000     AebellIpcastSdk:AebellIpcastSdk.dll
 0000:fffae000       .debug$S                   0000000180000000     kernel32:KERNEL32.dll
 0000:fffae000       .debug$S                   0000000180000000     kernel32:KERNEL32.dll
 0000:fffae000       .debug$S                   0000000180000000     AebellIpcastSdk:AebellIpcastSdk.dll
 0000:fffae000       .debug$S                   0000000180000000     AebellIpcastSdk:AebellIpcastSdk.dll
 0000:fffae000       .debug$S                   0000000180000000     kernel32:KERNEL32.dll
 0000:fffae000       .debug$S                   0000000180000000     kernel32:KERNEL32.dll
 0000:fffae000       .debug$S                   0000000180000000     kernel32:KERNEL32.dll
 0000:fffae000       .debug$S                   0000000180000000     AebellIpcastSdk:AebellIpcastSdk.dll
 0000:fffae000       .debug$S                   0000000180000000     kernel32:KERNEL32.dll
 0000:fffae000       .debug$S                   0000000180000000     kernel32:KERNEL32.dll
 0000:fffae000       .debug$S                   0000000180000000     AebellIpcastSdk:AebellIpcastSdk.dll
 0000:fffae000       .debug$S                   0000000180000000     kernel32:KERNEL32.dll
 0000:fffae000       .debug$S                   0000000180000000     AebellIpcastSdk:AebellIpcastSdk.dll
 0000:fffae000       .debug$S                   0000000180000000     kernel32:KERNEL32.dll
 0000:fffae000       .debug$S                   0000000180000000     kernel32:KERNEL32.dll
 0000:fffae000       .debug$S                   0000000180000000     AebellIpcastSdk:AebellIpcastSdk.dll
 0000:fffae000       .debug$S                   0000000180000000     kernel32:KERNEL32.dll
 0000:fffae000       .debug$S                   0000000180000000     AebellIpcastSdk:AebellIpcastSdk.dll
 0000:fffae000       .debug$S                   0000000180000000     kernel32:KERNEL32.dll
 0000:fffae000       .debug$S                   0000000180000000     kernel32:KERNEL32.dll
 0000:fffae000       .debug$S                   0000000180000000     kernel32:KERNEL32.dll
 0000:fffae000       .debug$S                   0000000180000000     kernel32:KERNEL32.dll
 0000:fffae000       .debug$S                   0000000180000000     kernel32:KERNEL32.dll
 0000:fffae000       .debug$S                   0000000180000000     AebellIpcastSdk:AebellIpcastSdk.dll
 0000:fffae000       .debug$S                   0000000180000000     kernel32:KERNEL32.dll
 0000:fffae000       .debug$S                   0000000180000000     kernel32:KERNEL32.dll
 0000:fffae000       .debug$S                   0000000180000000     kernel32:KERNEL32.dll
 0000:fffae000       .debug$S                   0000000180000000     AebellIpcastSdk:AebellIpcastSdk.dll
 0000:fffae000       .debug$S                   0000000180000000     kernel32:KERNEL32.dll
 0000:fffae000       .debug$S                   0000000180000000     AebellIpcastSdk:AebellIpcastSdk.dll
 0000:fffae000       .debug$S                   0000000180000000     kernel32:KERNEL32.dll
 0000:fffae000       .debug$S                   0000000180000000     kernel32:KERNEL32.dll
 0000:fffae000       .debug$S                   0000000180000000     AebellIpcastSdk:AebellIpcastSdk.dll
 0000:fffae000       .debug$S                   0000000180000000     AebellIpcastSdk:AebellIpcastSdk.dll
 0000:fffae000       .debug$S                   0000000180000000     kernel32:KERNEL32.dll
 0000:fffae000       .debug$S                   0000000180000000     kernel32:KERNEL32.dll
 0000:fffae000       .debug$S                   0000000180000000     kernel32:KERNEL32.dll
 0000:fffae000       .debug$S                   0000000180000000     kernel32:KERNEL32.dll
 0000:fffae000       .debug$S                   0000000180000000     kernel32:KERNEL32.dll
 0000:fffae000       .debug$S                   0000000180000000     kernel32:KERNEL32.dll
 0000:fffae000       .debug$S                   0000000180000000     kernel32:KERNEL32.dll
 0000:fffae000       .debug$S                   0000000180000000     AebellIpcastSdk:AebellIpcastSdk.dll
 0000:fffae000       .debug$S                   0000000180000000     kernel32:KERNEL32.dll
 0000:fffae000       .debug$S                   0000000180000000     AebellIpcastSdk:AebellIpcastSdk.dll
 0000:fffae000       .debug$S                   0000000180000000     AebellIpcastSdk:AebellIpcastSdk.dll
 0000:fffae000       .debug$S                   0000000180000000     AebellIpcastSdk:AebellIpcastSdk.dll
 0000:fffae000       .debug$S                   0000000180000000     kernel32:KERNEL32.dll
 0000:fffae000       .debug$S                   0000000180000000     AebellIpcastSdk:AebellIpcastSdk.dll
 0000:fffae000       .debug$S                   0000000180000000     kernel32:KERNEL32.dll
 0000:fffae000       .debug$S                   0000000180000000     AebellIpcastSdk:AebellIpcastSdk.dll
 0000:fffae000       .debug$S                   0000000180000000     kernel32:KERNEL32.dll
 0000:fffae000       .debug$S                   0000000180000000     kernel32:KERNEL32.dll
 0000:fffae000       .debug$S                   0000000180000000     kernel32:KERNEL32.dll
 0000:fffae000       .debug$S                   0000000180000000     kernel32:KERNEL32.dll
 0000:fffae000       .debug$S                   0000000180000000     kernel32:KERNEL32.dll
 0000:fffae000       .debug$S                   0000000180000000     kernel32:KERNEL32.dll
 0001:00000000       ??__EautoInfoLock_@@YAXXZ  0000000180001000 f   AebellBroadcast.obj
 0001:00000030       ??__EvAutoPushData_@@YAXXZ 0000000180001030 f   AebellBroadcast.obj
 0001:00000040       ??__EallDevStatusLock_@@YAXXZ 0000000180001040 f   AebellBroadcast.obj
 0001:00000070       ??__EvAllDevStatusData_@@YAXXZ 0000000180001070 f   AebellBroadcast.obj
 0001:00000080       ??__EautoInfoLock_@@YAXXZ  0000000180001080 f   UploadFileTask.obj
 0001:000000b0       ??__EvAutoPushData_@@YAXXZ 00000001800010b0 f   UploadFileTask.obj
 0001:000000c0       ??__EallDevStatusLock_@@YAXXZ 00000001800010c0 f   UploadFileTask.obj
 0001:000000f0       ??__EvAllDevStatusData_@@YAXXZ 00000001800010f0 f   UploadFileTask.obj
 0001:00000100       ??__EautoInfoLock_@@YAXXZ  0000000180001100 f   AebellBusiThread.obj
 0001:00000130       ??__EvAutoPushData_@@YAXXZ 0000000180001130 f   AebellBusiThread.obj
 0001:00000140       ??__EallDevStatusLock_@@YAXXZ 0000000180001140 f   AebellBusiThread.obj
 0001:00000170       ??__EvAllDevStatusData_@@YAXXZ 0000000180001170 f   AebellBusiThread.obj
 0001:00000180       ??__E?m_instanceLock@CAEBELLBusiThread@@0VCLock@@A@@YAXXZ 0000000180001180 f   AebellBusiThread.obj
 0001:000001b0       ??__EautoInfoLock_@@YAXXZ  00000001800011b0 f   AebellUploadThread.obj
 0001:000001e0       ??__EvAutoPushData_@@YAXXZ 00000001800011e0 f   AebellUploadThread.obj
 0001:000001f0       ??__EallDevStatusLock_@@YAXXZ 00000001800011f0 f   AebellUploadThread.obj
 0001:00000220       ??__EvAllDevStatusData_@@YAXXZ 0000000180001220 f   AebellUploadThread.obj
 0001:00000230       ??__E?m_instanceLock@CAEBELLUploadThread@@0VCLock@@A@@YAXXZ 0000000180001230 f   AebellUploadThread.obj
 0001:00000254       ??__E_Fac_tidy_reg@std@@YAXXZ 0000000180001254 f   libcpmt:locale0.obj
 0001:00000260       ??__Eclassic_locale@std@@YAXXZ 0000000180001260 f   libcpmt:locale0.obj
 0001:0000026c       ??__Einitlocks@std@@YAXXZ  000000018000126c f   libcpmt:xlock.obj
 0001:0000028c       ??__Einit_atexit@@YAXXZ    000000018000128c f   libcpmt:iosptrs.obj
 0001:00000298       ??__Einitlocks@std@@YAXXZ  0000000180001298 f   libcpmt:iosptrs.obj
 0001:0000727c       $LN362                     000000018000827c     AebellBroadcast.obj
 0001:00007738       $LN387                     0000000180008738     AebellBroadcast.obj
 0001:00007e00       _register_aebellBroadcast  0000000180008e00 f   AebellBroadcast.obj
 0001:0000e544       $LN62                      000000018000f544     AebellBusiThread.obj
 0001:0001b6b0       ?load_exe_hook@@YAP6A_JXZIPEAUDelayLoadInfo@@@Z 000000018001c6b0 f   win_delay_load_hook.obj
 0001:0001bdb8       tidy_global                000000018001cdb8 f   libcpmt:locale0.obj
 0001:0001c530       $$000000                   000000018001d530     LIBCMT:amdsecgs.obj
 0001:0001c560       $$000000                   000000018001d560     LIBCMT:memcpy.obj
 0001:0001c650       MoveSmall                  000000018001d650     LIBCMT:memcpy.obj
 0001:0001d95c       flsall                     000000018001e95c f   LIBCMT:fflush.obj
 0001:0001e110       _callthreadstartex         000000018001f110 f   LIBCMT:threadex.obj
 0001:0001e1cc       _threadstartex             000000018001f1cc f   LIBCMT:threadex.obj
 0001:0001e6f0       __DllMainCRTStartup        000000018001f6f0 f   LIBCMT:dllcrt0.obj
 0001:0001e810       $$000000                   000000018001f810     LIBCMT:strlen.obj
 0001:00020154       ?__crtLCMapStringA_stat@@YAHPEAUlocaleinfo_struct@@PEB_WKPEBDHPEADHHH@Z 0000000180021154 f   LIBCMT:a_map.obj
 0001:00020660       $$000000                   0000000180021660     LIBCMT:memset.obj
 0001:00020805       MsetTab                    0000000180021805     LIBCMT:memset.obj
 0001:000208a0       $$000000                   00000001800218a0     LIBCMT:strcmp.obj
 0001:0002108c       ?x_ismbbtype_l@@YAHPEAUlocaleinfo_struct@@IHH@Z 000000018002208c f   LIBCMT:ismbbyte.obj
 0001:000212b0       $$000000                   00000001800222b0     LIBCMT:memcmp.obj
 0001:0002153c       __crtEnumLocalesProc       000000018002253c f   LIBCMT:winapinls.obj
 0001:00022698       write_string               0000000180023698 f   LIBCMT:output.obj
 0001:00022698       write_string               0000000180023698 f   LIBCMT:output.obj
 0001:00023154       write_char                 0000000180024154 f   LIBCMT:outputs.obj
 0001:00023154       write_char                 0000000180024154 f   LIBCMT:outputs.obj
 0001:0002319c       write_multi_char           000000018002419c f   LIBCMT:outputs.obj
 0001:0002319c       write_multi_char           000000018002419c f   LIBCMT:outputs.obj
 0001:000235bc       _initterm                  00000001800245bc f   LIBCMT:crt0dat.obj
 0001:00023670       doexit                     0000000180024670 f   LIBCMT:crt0dat.obj
 0001:00023a28       ?strtoxq@@YA_KPEAUlocaleinfo_struct@@PEBDPEAPEBDHH@Z 0000000180024a28 f   LIBCMT:strtoq.obj
 0001:00026208       ?getSystemCP@@YAHH@Z       0000000180027208 f   LIBCMT:mbctype.obj
 0001:00026288       ?setSBCS@@YAXPEAUthreadmbcinfostruct@@@Z 0000000180027288 f   LIBCMT:mbctype.obj
 0001:00026318       ?setSBUpLow@@YAXPEAUthreadmbcinfostruct@@@Z 0000000180027318 f   LIBCMT:mbctype.obj
 0001:00026dd4       _copytlocinfo_nolock       0000000180027dd4 f   LIBCMT:wsetloca.obj
 0001:00027468       _wsetlocale_get_all        0000000180028468 f   LIBCMT:wsetloca.obj
 0001:0002763c       _wsetlocale_nolock         000000018002863c f   LIBCMT:wsetloca.obj
 0001:000278a8       _wsetlocale_set_cat        00000001800288a8 f   LIBCMT:wsetloca.obj
 0001:00027cac       parse_cmdline              0000000180028cac f   LIBCMT:stdargv.obj
 0001:00028298       ?CatchIt@@YAXPEAUEHExceptionRecord@@PEA_KPEAU_CONTEXT@@PEAU_xDISPATCHER_CONTEXT@@PEBU_s_FuncInfo@@PEBU_s_HandlerType@@PEBU_s_CatchableType@@PEBU_s_TryBlockMapEntry@@H1EE@Z 0000000180029298 f   LIBCMT:frame.obj
 0001:0002835c       ?FindHandler@@YAXPEAUEHExceptionRecord@@PEA_KPEAU_CONTEXT@@PEAU_xDISPATCHER_CONTEXT@@PEBU_s_FuncInfo@@EH1@Z 000000018002935c f   LIBCMT:frame.obj
 0001:00028810       ?FindHandlerForForeignException@@YAXPEAUEHExceptionRecord@@PEA_KPEAU_CONTEXT@@PEAU_xDISPATCHER_CONTEXT@@PEBU_s_FuncInfo@@HH1@Z 0000000180029810 f   LIBCMT:frame.obj
 0001:00028a78       ?IsInExceptionSpec@@YAEPEAUEHExceptionRecord@@PEBU_s_ESTypeList@@@Z 0000000180029a78 f   LIBCMT:frame.obj
 0001:00029c0c       _cftoe2_l                  000000018002ac0c f   LIBCMT:cvt.obj
 0001:00029f00       _cftof2_l                  000000018002af00 f   LIBCMT:cvt.obj
 0001:0002b2b0       $$000000                   000000018002c2b0     LIBCMT:jmpuwind.obj
 0001:0002bc6c       ?__crtGetStringTypeA_stat@@YAHPEAUlocaleinfo_struct@@KPEBDHPEAGHH@Z 000000018002cc6c f   LIBCMT:a_str.obj
 0001:0002be60       $$000000                   000000018002ce60     LIBCMT:chkstk.obj
 0001:0002c784       ?__crtGetLocaleInfoA_stat@@YAHPEAUlocaleinfo_struct@@PEB_WKPEADH@Z 000000018002d784 f   LIBCMT:a_loc.obj
 0001:0002c960       $$000000                   000000018002d960     LIBCMT:fpsr.obj
 0001:0002e76c       _get_lc_time               000000018002f76c f   LIBCMT:inittime.obj
 0001:0002f51c       GetLocaleNameFromLangCountry 000000018003051c f   LIBCMT:getqloc.obj
 0001:0002f5cc       GetLocaleNameFromLanguage  00000001800305cc f   LIBCMT:getqloc.obj
 0001:0002f654       LangCountryEnumProcEx      0000000180030654 f   LIBCMT:getqloc.obj
 0001:0002f9e0       LanguageEnumProcEx         00000001800309e0 f   LIBCMT:getqloc.obj
 0001:0002fac0       ProcessCodePage            0000000180030ac0 f   LIBCMT:getqloc.obj
 0001:0002fb74       TestDefaultCountry         0000000180030b74 f   LIBCMT:getqloc.obj
 0001:0002fbdc       TranslateName              0000000180030bdc f   LIBCMT:getqloc.obj
 0001:0002fbdc       TranslateName              0000000180030bdc f   LIBCMT:getqloc.obj
 0001:0002ff04       CountryEnumProc            0000000180030f04 f   LIBCMT:getqloc_downlevel.obj
 0001:0002fff0       GetLcidFromLangCountry     0000000180030ff0 f   LIBCMT:getqloc_downlevel.obj
 0001:000300a4       GetLcidFromLanguage        00000001800310a4 f   LIBCMT:getqloc_downlevel.obj
 0001:00030138       LangCountryEnumProc        0000000180031138 f   LIBCMT:getqloc_downlevel.obj
 0001:00030368       LanguageEnumProc           0000000180031368 f   LIBCMT:getqloc_downlevel.obj
 0001:00030464       LcidFromHexString          0000000180031464 f   LIBCMT:getqloc_downlevel.obj
 0001:000304b4       ProcessCodePage            00000001800314b4 f   LIBCMT:getqloc_downlevel.obj
 0001:00030564       TestDefaultLanguage        0000000180031564 f   LIBCMT:getqloc_downlevel.obj
 0001:000308b0       $$000000                   00000001800318b0     LIBCMT:handlers.obj
 0001:000313e8       __createFile               00000001800323e8 f   LIBCMT:wopen.obj
 0001:000334e8       xtow_s                     00000001800344e8 f   LIBCMT:xtows.obj
 0001:00034170       $$000000                   0000000180035170     LIBCMT:strncmp.obj
 0001:0003483c       ?wcstoxl@@YAKPEB_WPEAPEB_WHH@Z 000000018003583c f   LIBCMT:wcstol.obj
 0001:00034e70       ?dtor$0@?0??_Locimp_dtor@_Locimp@locale@std@@CAXPEAV123@@Z@4HA 0000000180035e70 f   libcpmt:locale0.obj
 0001:00034e70       ?dtor$0@?0??_Init@locale@std@@CAPEAV_Locimp@12@_N@Z@4HA 0000000180035e70 f   libcpmt:locale0.obj
 0001:00034e7c       _onexit$fin$0              0000000180035e7c f   LIBCMT:onexit.obj
 0001:00034e90       printf$fin$0               0000000180035e90 f   LIBCMT:printf.obj
 0001:00034eb7       fputc$fin$0                0000000180035eb7 f   LIBCMT:fputc.obj
 0001:00034eb7       ungetc$fin$0               0000000180035eb7 f   LIBCMT:fputc.obj
 0001:00034ecf       _fseeki64$fin$0            0000000180035ecf f   LIBCMT:fseeki64.obj
 0001:00034ecf       fclose$fin$0               0000000180035ecf f   LIBCMT:fseeki64.obj
 0001:00034ecf       fflush$fin$0               0000000180035ecf f   LIBCMT:fseeki64.obj
 0001:00034ecf       fseek$fin$0                0000000180035ecf f   LIBCMT:fseeki64.obj
 0001:00034ecf       fgetc$fin$0                0000000180035ecf f   LIBCMT:fseeki64.obj
 0001:00034ecf       _ftelli64$fin$0            0000000180035ecf f   LIBCMT:fseeki64.obj
 0001:00034ee7       flsall$fin$0               0000000180035ee7 f   LIBCMT:fflush.obj
 0001:00034f0f       flsall$fin$1               0000000180035f0f f   LIBCMT:fflush.obj
 0001:00034f28       setvbuf$fin$0              0000000180035f28 f   LIBCMT:setvbuf.obj
 0001:00034f40       fwrite$fin$0               0000000180035f40 f   LIBCMT:fwrite.obj
 0001:00034f58       _callthreadstartex$filt$0  0000000180035f58 f   LIBCMT:threadex.obj
 0001:00034f76       _CRT_INIT$fin$0            0000000180035f76 f   LIBCMT:dllcrt0.obj
 0001:00034f9c       __DllMainCRTStartup$filt$0 0000000180035f9c f   LIBCMT:dllcrt0.obj
 0001:00034fe5       _CallSETranslator$filt$0   0000000180035fe5 f   LIBCMT:trnsctrl.obj
 0001:0003502b       setlocale$fin$0            000000018003602b f   LIBCMT:setlocal.obj
 0001:00035046       _mtinitlocknum$fin$0       0000000180036046 f   LIBCMT:mlock.obj
 0001:00035063       _fsopen$fin$0              0000000180036063 f   LIBCMT:fopen.obj
 0001:0003507d       _wfsopen$fin$0             000000018003607d f   LIBCMT:wfopen.obj
 0001:00035097       doexit$fin$0               0000000180036097 f   LIBCMT:crt0dat.obj
 0001:000350bb       raise$fin$0                00000001800360bb f   LIBCMT:winsig.obj
 0001:000350d9       _ioinit$fin$0              00000001800360d9 f   LIBCMT:ioinit.obj
 0001:000350f4       _fcloseall$fin$0           00000001800360f4 f   LIBCMT:closeall.obj
 0001:000350f4       _getstream$fin$0           00000001800360f4 f   LIBCMT:closeall.obj
 0001:0003510d       _commit$fin$0              000000018003610d f   LIBCMT:commit.obj
 0001:0003510d       _close$fin$0               000000018003610d f   LIBCMT:commit.obj
 0001:00035124       _write$fin$0               0000000180036124 f   LIBCMT:write.obj
 0001:00035124       _lseek$fin$0               0000000180036124 f   LIBCMT:write.obj
 0001:00035124       _read$fin$0                0000000180036124 f   LIBCMT:write.obj
 0001:00035124       _lseeki64$fin$0            0000000180036124 f   LIBCMT:write.obj
 0001:0003513b       _initptd$fin$1             000000018003613b f   LIBCMT:tidtable.obj
 0001:0003513b       _freefls$fin$1             000000018003613b f   LIBCMT:tidtable.obj
 0001:00035154       _initptd$fin$0             0000000180036154 f   LIBCMT:tidtable.obj
 0001:00035154       _freefls$fin$0             0000000180036154 f   LIBCMT:tidtable.obj
 0001:0003516d       _locterm$fin$0             000000018003616d f   LIBCMT:localref.obj
 0001:0003516d       __updatetlocinfo$fin$0     000000018003616d f   LIBCMT:localref.obj
 0001:00035186       _setmbcp$fin$0             0000000180036186 f   LIBCMT:mbctype.obj
 0001:00035186       __updatetmbcinfo$fin$0     0000000180036186 f   LIBCMT:mbctype.obj
 0001:0003519f       _wsetlocale$fin$1          000000018003619f f   LIBCMT:wsetloca.obj
 0001:000351ba       _wsetlocale$fin$0          00000001800361ba f   LIBCMT:wsetloca.obj
 0001:000351d5       _wsetlocale$fin$2          00000001800361d5 f   LIBCMT:wsetloca.obj
 0001:000351f0       __CxxCallCatchBlock$filt$0 00000001800361f0 f   LIBCMT:frame.obj
 0001:000352e4       __CxxCallCatchBlock$fin$1  00000001800362e4 f   LIBCMT:frame.obj
 0001:00035362       __DestructExceptionObject$filt$0 0000000180036362 f   LIBCMT:frame.obj
 0001:0003537a       __FrameUnwindToState$filt$0 000000018003637a f   LIBCMT:frame.obj
 0001:00035390       __FrameUnwindToState$fin$1 0000000180036390 f   LIBCMT:frame.obj
 0001:000353b9       ?fin$0@?0??_Type_info_dtor@type_info@@CAXPEAV1@@Z@4HA 00000001800363b9 f   LIBCMT:typname.obj
 0001:000353e0       _IsNonwritableInCurrentImage$filt$0 00000001800363e0 f   LIBCMT:pesect.obj
 0001:00035400       __lock_fhandle$fin$0       0000000180036400 f   LIBCMT:osfinfo.obj
 0001:00035419       _alloc_osfhnd$fin$0        0000000180036419 f   LIBCMT:osfinfo.obj
 0001:00035434       _alloc_osfhnd$fin$1        0000000180036434 f   LIBCMT:osfinfo.obj
 0001:0003544d       _wsopen_helper$fin$0       000000018003644d f   LIBCMT:open.obj
 0001:0003544d       _sopen_helper$fin$0        000000018003644d f   LIBCMT:open.obj
 0001:000354a0       ??__FautoInfoLock_@@YAXXZ  00000001800364a0 f   AebellBroadcast.obj
 0001:000354b0       ??__FvAutoPushData_@@YAXXZ 00000001800364b0 f   AebellBroadcast.obj
 0001:00035580       ??__FallDevStatusLock_@@YAXXZ 0000000180036580 f   AebellBroadcast.obj
 0001:00035590       ??__FvAllDevStatusData_@@YAXXZ 0000000180036590 f   AebellBroadcast.obj
 0001:00035660       ??__FautoInfoLock_@@YAXXZ  0000000180036660 f   UploadFileTask.obj
 0001:00035670       ??__FvAutoPushData_@@YAXXZ 0000000180036670 f   UploadFileTask.obj
 0001:00035740       ??__FallDevStatusLock_@@YAXXZ 0000000180036740 f   UploadFileTask.obj
 0001:00035750       ??__FvAllDevStatusData_@@YAXXZ 0000000180036750 f   UploadFileTask.obj
 0001:00035820       ??__FautoInfoLock_@@YAXXZ  0000000180036820 f   AebellBusiThread.obj
 0001:00035830       ??__FvAutoPushData_@@YAXXZ 0000000180036830 f   AebellBusiThread.obj
 0001:00035900       ??__FallDevStatusLock_@@YAXXZ 0000000180036900 f   AebellBusiThread.obj
 0001:00035910       ??__FvAllDevStatusData_@@YAXXZ 0000000180036910 f   AebellBusiThread.obj
 0001:000359e0       ??__F?m_instanceLock@CAEBELLBusiThread@@0VCLock@@A@@YAXXZ 00000001800369e0 f   AebellBusiThread.obj
 0001:000359f0       ??__FautoInfoLock_@@YAXXZ  00000001800369f0 f   AebellUploadThread.obj
 0001:00035a00       ??__FvAutoPushData_@@YAXXZ 0000000180036a00 f   AebellUploadThread.obj
 0001:00035ad0       ??__FallDevStatusLock_@@YAXXZ 0000000180036ad0 f   AebellUploadThread.obj
 0001:00035ae0       ??__FvAllDevStatusData_@@YAXXZ 0000000180036ae0 f   AebellUploadThread.obj
 0001:00035bb0       ??__F?m_instanceLock@CAEBELLUploadThread@@0VCLock@@A@@YAXXZ 0000000180036bb0 f   AebellUploadThread.obj
 0001:00035bc0       ??__F_Fac_tidy_reg@std@@YAXXZ 0000000180036bc0 f   libcpmt:locale0.obj
 0001:00035c0c       ??__Fclassic_locale@std@@YAXXZ 0000000180036c0c f   libcpmt:locale0.obj
 0001:00035c3c       ??__Finitlocks@std@@YAXXZ  0000000180036c3c f   libcpmt:xlock.obj
 0001:00035c48       ??__Finit_atexit@@YAXXZ    0000000180036c48 f   libcpmt:iosptrs.obj
 0001:00035c84       ??__Finitlocks@std@@YAXXZ  0000000180036c84 f   libcpmt:iosptrs.obj
 0002:000004a8       initlocks$initializer$     00000001800374a8     libcpmt:xlock.obj
 0002:000004b0       initlocks$initializer$     00000001800374b0     libcpmt:iosptrs.obj
 0002:000004b8       init_atexit$initializer$   00000001800374b8     libcpmt:iosptrs.obj
 0002:000004c0       _Fac_tidy_reg$initializer$ 00000001800374c0     libcpmt:locale0.obj
 0002:000004c8       classic_locale$initializer$ 00000001800374c8     libcpmt:locale0.obj
 0002:000004d8       autoInfoLock_$initializer$ 00000001800374d8     AebellBroadcast.obj
 0002:000004e0       vAutoPushData_$initializer$ 00000001800374e0     AebellBroadcast.obj
 0002:000004e8       allDevStatusLock_$initializer$ 00000001800374e8     AebellBroadcast.obj
 0002:000004f0       vAllDevStatusData_$initializer$ 00000001800374f0     AebellBroadcast.obj
 0002:000004f8       autoInfoLock_$initializer$ 00000001800374f8     UploadFileTask.obj
 0002:00000500       vAutoPushData_$initializer$ 0000000180037500     UploadFileTask.obj
 0002:00000508       allDevStatusLock_$initializer$ 0000000180037508     UploadFileTask.obj
 0002:00000510       vAllDevStatusData_$initializer$ 0000000180037510     UploadFileTask.obj
 0002:00000518       autoInfoLock_$initializer$ 0000000180037518     AebellBusiThread.obj
 0002:00000520       vAutoPushData_$initializer$ 0000000180037520     AebellBusiThread.obj
 0002:00000528       allDevStatusLock_$initializer$ 0000000180037528     AebellBusiThread.obj
 0002:00000530       vAllDevStatusData_$initializer$ 0000000180037530     AebellBusiThread.obj
 0002:00000538       ?m_instanceLock$initializer$@CAEBELLBusiThread@@0P6AXXZEA 0000000180037538     AebellBusiThread.obj
 0002:00000540       autoInfoLock_$initializer$ 0000000180037540     AebellUploadThread.obj
 0002:00000548       vAutoPushData_$initializer$ 0000000180037548     AebellUploadThread.obj
 0002:00000550       allDevStatusLock_$initializer$ 0000000180037550     AebellUploadThread.obj
 0002:00000558       vAllDevStatusData_$initializer$ 0000000180037558     AebellUploadThread.obj
 0002:00000560       ?m_instanceLock$initializer$@CAEBELLUploadThread@@0P6AXXZEA 0000000180037560     AebellUploadThread.obj
 0002:00000578       pinit                      0000000180037578     LIBCMT:onexit.obj
 0002:00000580       pinit                      0000000180037580     LIBCMT:_file.obj
 0002:00000588       pinit                      0000000180037588     LIBCMT:cpu_disp.obj
 0002:00000590       pinit                      0000000180037590     LIBCMT:mbctype.obj
 0002:000005a8       pterm                      00000001800375a8     LIBCMT:wsetloca.obj
 0002:000005b0       pterm                      00000001800375b0     LIBCMT:initcon.obj
 0002:000005b8       pterm                      00000001800375b8     LIBCMT:_file.obj
 0002:00000630       _Win_errtab                0000000180037630     libcpmt:syserror.obj
 0002:00000ae0       _Sys_errtab                0000000180037ae0     libcpmt:syserror.obj
 0002:000019b0       $cppxdata$?_Locimp_dtor@_Locimp@locale@std@@CAXPEAV123@@Z 00000001800389b0     libcpmt:locale0.obj
 0002:000019d8       $cppxdata$?_Init@locale@std@@CAPEAV_Locimp@12@_N@Z 00000001800389d8     libcpmt:locale0.obj
 0002:00001a50       ?mods@?1??_Xfsopen@std@@YAPEAU_iobuf@@PEBDHH@Z@4QBQEBDB 0000000180038a50     libcpmt:fiopen.obj
 0002:00001b00       ?mods@?1??_Xfsopen@std@@YAPEAU_iobuf@@PEB_WHH@Z@4QBQEB_WB 0000000180038b00     libcpmt:fiopen.obj
 0002:00001d08       digits                     0000000180038d08     libcpmt:xstoul.obj
 0002:00001d30       ndigs                      0000000180038d30     libcpmt:xstoul.obj
 0002:00001d58       digits                     0000000180038d58     libcpmt:xstoull.obj
 0002:00001d80       ndigs                      0000000180038d80     libcpmt:xstoull.obj
 0002:00001da8       ?digits@?1??_Stoxflt@@9@9  0000000180038da8     libcpmt:xstoxflt.obj
 0002:00001dc0       ?vals@?1??_Stoxflt@@9@9    0000000180038dc0     libcpmt:xstoxflt.obj
 0002:00001dd8       tenth                      0000000180038dd8     libcpmt:xfdtento.obj
 0002:00001df0       tenth                      0000000180038df0     libcpmt:xdtento.obj
 0002:00001e08       tenth                      0000000180038e08     libcpmt:xldtento.obj
 0002:00001e20       ?mask@?3??_FDint@@9@9      0000000180038e20     libcpmt:xfdint.obj
 0002:00001e40       ?sub@?3??_FDint@@9@9       0000000180038e40     libcpmt:xfdint.obj
 0002:00001e50       ?mask@?3??_Dint@@9@9       0000000180038e50     libcpmt:xdint.obj
 0002:00001e70       ?sub@?3??_Dint@@9@9        0000000180038e70     libcpmt:xdint.obj
 0002:00001ee0       ?ExceptionTemplate@?1??_CxxThrowException@@9@4UEHExceptionRecord@@B 0000000180038ee0     LIBCMT:throw.obj
 0002:00001f20       ?ExceptionTemplate@?1??_UnwindNestedFrames@@9@4U_EXCEPTION_RECORD@@B 0000000180038f20     LIBCMT:trnsctrl.obj
 0002:00005e88       GS_ExceptionPointers       000000018003ce88     LIBCMT:gs_report.obj
 0002:00006070       _mb_locale_names           000000018003d070     LIBCMT:mbctype.obj
 0002:00006550       _first_127char             000000018003d550     LIBCMT:wsetloca.obj
 0002:00006630       rterrs                     000000018003d630     LIBCMT:crt0msg.obj
 0002:000071a0       ?ccsField@?P@??_openfile@@9@9 000000018003e1a0     LIBCMT:_open.obj
 0002:000071a4       ?utf8encoding@?P@??_openfile@@9@9 000000018003e1a4     LIBCMT:_open.obj
 0002:000071b0       ?utf16encoding@?P@??_openfile@@9@9 000000018003e1b0     LIBCMT:_open.obj
 0002:000071c0       ?unicodeencoding@?P@??_openfile@@9@9 000000018003e1c0     LIBCMT:_open.obj
 0002:000071c8       ?ccsField@?P@??_wopenfile@@9@9 000000018003e1c8     LIBCMT:_wopen.obj
 0002:000071d0       ?utf8encoding@?P@??_wopenfile@@9@9 000000018003e1d0     LIBCMT:_wopen.obj
 0002:000071e0       ?utf16encoding@?P@??_wopenfile@@9@9 000000018003e1e0     LIBCMT:_wopen.obj
 0002:000071f8       ?unicodeencoding@?P@??_wopenfile@@9@9 000000018003e1f8     LIBCMT:_wopen.obj
 0002:00007310       __real@433fffffffffffff    000000018003e310     LIBCMT:fpsr.obj
 0002:00007318       __real@c33fffffffffffff    000000018003e318     LIBCMT:fpsr.obj
 0002:000082e0       tokenTable                 000000018003f2e0     LIBCMT:undname.obj
 0002:00008350       nameTable                  000000018003f350     LIBCMT:undname.obj
 0002:000085d0       rttiTable                  000000018003f5d0     LIBCMT:undname.obj
 0002:00009b78       dwUser_                    0000000180040b78     UploadFileTask.obj
 0002:00009b7c       dwUser_                    0000000180040b7c     AebellBusiThread.obj
 0002:0000acb8       $unwind$?NODE_SET_METHOD@node@@YAXV?$Local@VObject@v8@@@v8@@PEBDP6AXAEBV?$FunctionCallbackInfo@VValue@v8@@@3@@Z@Z 0000000180041cb8     AebellBroadcast.obj
 0002:0000acc8       $unwind$??0ReqTaskInfo@@QEAA@AEBU0@@Z 0000000180041cc8     AebellBusiThread.obj
 0002:0000acc8       $unwind$??0DeviceInfo@@QEAA@XZ 0000000180041cc8     AebellBroadcast.obj
 0002:0000ace0       $unwind$??0ReqTaskInfo@@QEAA@XZ 0000000180041ce0     BroadcastTask.obj
 0002:0000ace0       $unwind$?onAddNewDevice@CAEBELLBusiThread@@QEAAXAEAV?$basic_string@DU?$char_traits@D@std@@V?$allocator@D@2@@std@@0@Z 0000000180041ce0     AebellBusiThread.obj
 0002:0000ace0       $unwind$xtow_s             0000000180041ce0     LIBCMT:xtows.obj
 0002:0000ace0       $unwind$??$?0V?$basic_string@DU?$char_traits@D@std@@V?$allocator@D@2@@std@@V01@X@?$pair@$$CBV?$basic_string@DU?$char_traits@D@std@@V?$allocator@D@2@@std@@V12@@std@@QEAA@$$QEAU?$pair@V?$basic_string@DU?$char_traits@D@std@@V?$allocator@D@2@@std@@V12@@1@@Z 0000000180041ce0     AebellBusiThread.obj
 0002:0000ace0       $unwind$?assign@?$basic_string@DU?$char_traits@D@std@@V?$allocator@D@2@@std@@QEAAAEAV12@AEBV12@_K1@Z 0000000180041ce0     AebellBroadcast.obj
 0002:0000ace0       $unwind$?read@?$basic_istream@DU?$char_traits@D@std@@@std@@QEAAAEAV12@PEAD_J@Z 0000000180041ce0     UploadFileTask.obj
 0002:0000ace0       $unwind$_mtdeletelocks     0000000180041ce0     LIBCMT:mlock.obj
 0002:0000ace0       $unwind$_initterm          0000000180041ce0     LIBCMT:crt0dat.obj
 0002:0000ace0       $unwind$_fseek_nolock      0000000180041ce0     LIBCMT:fseek.obj
 0002:0000ace0       $unwind$_XcptFilter        0000000180041ce0     LIBCMT:winxfltr.obj
 0002:0000ace0       $unwind$?_Copy@?$basic_string@DU?$char_traits@D@std@@V?$allocator@D@2@@std@@QEAAX_K0@Z 0000000180041ce0     AebellBroadcast.obj
 0002:0000ace0       $unwind$?__StateFromIp@@YAHPEBU_s_FuncInfo@@PEAU_xDISPATCHER_CONTEXT@@_J@Z 0000000180041ce0     LIBCMT:ehstate.obj
 0002:0000ace0       $unwind$??0BroadcastOperInfo@@QEAA@XZ 0000000180041ce0     AebellBroadcast.obj
 0002:0000ace0       $unwind$_fseeki64_nolock   0000000180041ce0     LIBCMT:fseeki64.obj
 0002:0000ace0       $unwind$__freetlocinfo     0000000180041ce0     LIBCMT:localref.obj
 0002:0000ace0       $unwind$?PushUploadTask@CAEBELLUploadThread@@QEAAXV?$shared_ptr@VCUploadFileTask@@@std@@@Z 0000000180041ce0     AebellUploadThread.obj
 0002:0000ace0       $unwind$?setSBCS@@YAXPEAUthreadmbcinfostruct@@@Z 0000000180041ce0     LIBCMT:mbctype.obj
 0002:0000acf4       $unwind$??_G?$basic_ios@DU?$char_traits@D@std@@@std@@UEAAPEAXI@Z 0000000180041cf4     UploadFileTask.obj
 0002:0000acf4       $unwind$??4DeviceInfo@@QEAAAEAU0@AEBU0@@Z 0000000180041cf4     BroadcastTask.obj
 0002:0000acf4       $unwind$_calloc_impl       0000000180041cf4     LIBCMT:calloc_impl.obj
 0002:0000acf4       $unwind$??_Glength_error@std@@UEAAPEAXI@Z 0000000180041cf4     libcpmt:xthrow.obj
 0002:0000acf4       $unwind$?erase@?$basic_string@DU?$char_traits@D@std@@V?$allocator@D@2@@std@@QEAAAEAV12@_K0@Z 0000000180041cf4     AebellBroadcast.obj
 0002:0000acf4       $unwind$??_G?$basic_istream@DU?$char_traits@D@std@@@std@@UEAAPEAXI@Z 0000000180041cf4     UploadFileTask.obj
 0002:0000acf4       $unwind$??_GCBaseThread@@UEAAPEAXI@Z 0000000180041cf4     BaseThread.obj
 0002:0000acf4       $unwind$_close_nolock      0000000180041cf4     LIBCMT:close.obj
 0002:0000acf4       $unwind$??_Glogic_error@std@@UEAAPEAXI@Z 0000000180041cf4     libcpmt:xthrow.obj
 0002:0000acf4       $unwind$?_New_Locimp@_Locimp@locale@std@@CAPEAV123@_N@Z 0000000180041cf4     libcpmt:locale0.obj
 0002:0000acf4       $unwind$?pbackfail@?$basic_filebuf@DU?$char_traits@D@std@@@std@@MEAAHH@Z 0000000180041cf4     UploadFileTask.obj
 0002:0000acf4       $unwind$??0TimerTaskInfo@@QEAA@XZ 0000000180041cf4     AebellBroadcast.obj
 0002:0000acf4       $unwind$??0CBroadcastTask@@QEAA@XZ 0000000180041cf4     BroadcastTask.obj
 0002:0000acf4       $unwind$_initp_misc_cfltcvt_tab 0000000180041cf4     LIBCMT:cmiscdat.obj
 0002:0000acf4       $unwind$_FindAndUnlinkFrame 0000000180041cf4     LIBCMT:trnsctrl.obj
 0002:0000acf4       $unwind$??_Gout_of_range@std@@UEAAPEAXI@Z 0000000180041cf4     libcpmt:xthrow.obj
 0002:0000acf4       $unwind$??1_Locinfo@std@@QEAA@XZ 0000000180041cf4     UploadFileTask.obj
 0002:0000acf4       $unwind$?__SetUnwindTryBlock@@YAXPEA_KPEAU_xDISPATCHER_CONTEXT@@PEBU_s_FuncInfo@@H@Z 0000000180041cf4     LIBCMT:ehstate.obj
 0002:0000acf4       $unwind$??1TimerTaskInfo@@QEAA@XZ 0000000180041cf4     AebellBroadcast.obj
 0002:0000acf4       $unwind$?push_back@?$vector@V?$basic_string@DU?$char_traits@D@std@@V?$allocator@D@2@@std@@V?$allocator@V?$basic_string@DU?$char_traits@D@std@@V?$allocator@D@2@@std@@@2@@std@@QEAAXAEBV?$basic_string@DU?$char_traits@D@std@@V?$allocator@D@2@@2@@Z 0000000180041cf4     AebellBroadcast.obj
 0002:0000acf4       $unwind$??_G?$basic_filebuf@DU?$char_traits@D@std@@@std@@UEAAPEAXI@Z 0000000180041cf4     UploadFileTask.obj
 0002:0000acf4       $unwind$_getptd_noexit     0000000180041cf4     LIBCMT:tidtable.obj
 0002:0000acf4       $unwind$??_G_Locimp@locale@std@@MEAAPEAXI@Z 0000000180041cf4     libcpmt:locale0.obj
 0002:0000acf4       $unwind$??_G?$ctype@D@std@@MEAAPEAXI@Z 0000000180041cf4     UploadFileTask.obj
 0002:0000acf4       $unwind$?AddDeviceAttachCB@@YAXHK@Z 0000000180041cf4     AebellBroadcast.obj
 0002:0000acf4       $unwind$_ungetc_nolock     0000000180041cf4     LIBCMT:ungetc.obj
 0002:0000acf4       $unwind$_initterm_e        0000000180041cf4     LIBCMT:crt0dat.obj
 0002:0000acf4       $unwind$_RTC_Terminate     0000000180041cf4     LIBCMT:initsect.obj
 0002:0000acf4       $unwind$??_Gbad_alloc@std@@UEAAPEAXI@Z 0000000180041cf4     libcpmt:xthrow.obj
 0002:0000acf4       $unwind$__initstdio        0000000180041cf4     LIBCMT:_file.obj
 0002:0000acf4       $unwind$GetLcidFromLangCountry 0000000180041cf4     LIBCMT:getqloc_downlevel.obj
 0002:0000acf4       $unwind$_lock              0000000180041cf4     LIBCMT:mlock.obj
 0002:0000acf4       $unwind$??0CAEBELLUploadThread@@AEAA@XZ 0000000180041cf4     AebellUploadThread.obj
 0002:0000acf4       $unwind$_dosmaperr         0000000180041cf4     LIBCMT:dosmap.obj
 0002:0000acf4       $unwind$_endthreadex       0000000180041cf4     LIBCMT:threadex.obj
 0002:0000acf4       $unwind$?_Initcvt@?$basic_filebuf@DU?$char_traits@D@std@@@std@@IEAAXPEBV?$codecvt@DDH@2@@Z 0000000180041cf4     UploadFileTask.obj
 0002:0000acf4       $unwind$??1_Init_locks@std@@QEAA@XZ 0000000180041cf4     libcpmt:xlock.obj
 0002:0000acf4       $unwind$??_GCAEBELLUploadThread@@EEAAPEAXI@Z 0000000180041cf4     AebellUploadThread.obj
 0002:0000acf4       $unwind$_RTC_Initialize    0000000180041cf4     LIBCMT:initsect.obj
 0002:0000acf4       $unwind$?RemoveDeviceCB@@YAXHK@Z 0000000180041cf4     AebellBroadcast.obj
 0002:0000acf4       $unwind$??_Gtype_info@@UEAAPEAXI@Z 0000000180041cf4     LIBCMT:typinfo.obj
 0002:0000acf4       $unwind$?_Tidy@ios_base@std@@AEAAXXZ 0000000180041cf4     libcpmt:ios.obj
 0002:0000acf4       $unwind$__crtGetUserDefaultLocaleName 0000000180041cf4     LIBCMT:winapinls.obj
 0002:0000acf4       $unwind$_fclose_nolock     0000000180041cf4     LIBCMT:fclose.obj
 0002:0000acf4       $unwind$__freeCrtMemory    0000000180041cf4     LIBCMT:crt0dat.obj
 0002:0000acf4       $unwind$??_Gexception@std@@UEAAPEAXI@Z 0000000180041cf4     LIBCMT:stdexcpt.obj
 0002:0000acf4       $unwind$??_GCAEBELLBusiThread@@EEAAPEAXI@Z 0000000180041cf4     AebellBusiThread.obj
 0002:0000acf4       $unwind$??_Gbad_exception@std@@UEAAPEAXI@Z 0000000180041cf4     LIBCMT:frame.obj
 0002:0000acf4       $unwind$?_Locinfo_ctor@_Locinfo@std@@SAXPEAV12@PEBD@Z 0000000180041cf4     libcpmt:locale0.obj
 0002:0000acf4       $unwind$?_Assign_rv@?$basic_string@DU?$char_traits@D@std@@V?$allocator@D@2@@std@@QEAAX$$QEAV12@@Z 0000000180041cf4     AebellBroadcast.obj
 0002:0000acf4       $unwind$??_Gios_base@std@@UEAAPEAXI@Z 0000000180041cf4     UploadFileTask.obj
 0002:0000acf4       $unwind$_fptostr           0000000180041cf4     LIBCMT:_fptostr.obj
 0002:0000acf4       $unwind$??1ReqTaskInfo@@QEAA@XZ 0000000180041cf4     AebellBroadcast.obj
 0002:0000acf4       $unwind$fgetpos            0000000180041cf4     LIBCMT:fgetpos.obj
 0002:0000acf4       $unwind$GetLcidFromLanguage 0000000180041cf4     LIBCMT:getqloc_downlevel.obj
 0002:0000acf4       $unwind$??4exception@std@@QEAAAEAV01@AEBV01@@Z 0000000180041cf4     LIBCMT:stdexcpt.obj
 0002:0000acf4       $unwind$?push_back@?$vector@UFileInfo@@V?$allocator@UFileInfo@@@std@@@std@@QEAAXAEBUFileInfo@@@Z 0000000180041cf4     AebellBroadcast.obj
 0002:0000acf4       $unwind$_updatetlocinfoEx_nolock 0000000180041cf4     LIBCMT:localref.obj
 0002:0000acf4       $unwind$??1DeviceInfo@@QEAA@XZ 0000000180041cf4     AebellBroadcast.obj
 0002:0000ad00       $unwind$??_G?$codecvt@DDH@std@@MEAAPEAXI@Z 0000000180041d00     UploadFileTask.obj
 0002:0000ad00       $unwind$??_Gruntime_error@std@@UEAAPEAXI@Z 0000000180041d00     UploadFileTask.obj
 0002:0000ad00       $unwind$calloc             0000000180041d00     LIBCMT:calloc.obj
 0002:0000ad00       $unwind$??0?$basic_filebuf@DU?$char_traits@D@std@@@std@@QEAA@PEAU_iobuf@@@Z 0000000180041d00     UploadFileTask.obj
 0002:0000ad00       $unwind$?_Ios_base_dtor@ios_base@std@@CAXPEAV12@@Z 0000000180041d00     libcpmt:ios.obj
 0002:0000ad00       $unwind$??$_Insert_at@AEAU?$pair@$$CBGH@std@@PEAU?$_Tree_node@U?$pair@$$CBGH@std@@PEAX@2@@?$_Tree@V?$_Tmap_traits@GHU?$less@G@std@@V?$allocator@U?$pair@$$CBGH@std@@@2@$0A@@std@@@std@@IEAA?AV?$_Tree_iterator@V?$_Tree_val@U?$_Tree_simple_types@U?$pair@$$CBGH@std@@@std@@@std@@@1@_NPEAU?$_Tree_node@U?$pair@$$CBGH@std@@PEAX@1@AEAU?$pair@$$CBGH@1@1@Z 0000000180041d00     AebellBusiThread.obj
 0002:0000ad00       $unwind$??_G_Ref_count_base@std@@UEAAPEAXI@Z 0000000180041d00     AebellBusiThread.obj
 0002:0000ad00       $unwind$??$_Insert_at@AEAU?$pair@$$CBGG@std@@PEAU?$_Tree_node@U?$pair@$$CBGG@std@@PEAX@2@@?$_Tree@V?$_Tmap_traits@GGU?$less@G@std@@V?$allocator@U?$pair@$$CBGG@std@@@2@$0A@@std@@@std@@IEAA?AV?$_Tree_iterator@V?$_Tree_val@U?$_Tree_simple_types@U?$pair@$$CBGG@std@@@std@@@std@@@1@_NPEAU?$_Tree_node@U?$pair@$$CBGG@std@@PEAX@1@AEAU?$pair@$$CBGG@1@1@Z 0000000180041d00     AebellBusiThread.obj
 0002:0000ad00       $unwind$??$_Insert_at@AEAU?$pair@$$CB_KUResTaskInfo@@@std@@PEAU?$_Tree_node@U?$pair@$$CB_KUResTaskInfo@@@std@@PEAX@2@@?$_Tree@V?$_Tmap_traits@_KUResTaskInfo@@U?$less@_K@std@@V?$allocator@U?$pair@$$CB_KUResTaskInfo@@@std@@@3@$0A@@std@@@std@@IEAA?AV?$_Tree_iterator@V?$_Tree_val@U?$_Tree_simple_types@U?$pair@$$CB_KUResTaskInfo@@@std@@@std@@@std@@@1@_NPEAU?$_Tree_node@U?$pair@$$CB_KUResTaskInfo@@@std@@PEAX@1@AEAU?$pair@$$CB_KUResTaskInfo@@@1@1@Z 0000000180041d00     AebellBusiThread.obj
 0002:0000ad00       $unwind$?load_exe_hook@@YAP6A_JXZIPEAUDelayLoadInfo@@@Z 0000000180041d00     win_delay_load_hook.obj
 0002:0000ad00       $unwind$??_G_Facet_base@std@@UEAAPEAXI@Z 0000000180041d00     UploadFileTask.obj
 0002:0000ad00       $unwind$??$_Insert_at@AEAU?$pair@$$CBHV?$basic_string@DU?$char_traits@D@std@@V?$allocator@D@2@@std@@@std@@PEAU?$_Tree_node@U?$pair@$$CBHV?$basic_string@DU?$char_traits@D@std@@V?$allocator@D@2@@std@@@std@@PEAX@2@@?$_Tree@V?$_Tmap_traits@HV?$basic_string@DU?$char_traits@D@std@@V?$allocator@D@2@@std@@U?$less@H@2@V?$allocator@U?$pair@$$CBHV?$basic_string@DU?$char_traits@D@std@@V?$allocator@D@2@@std@@@std@@@2@$0A@@std@@@std@@IEAA?AV?$_Tree_iterator@V?$_Tree_val@U?$_Tree_simple_types@U?$pair@$$CBHV?$basic_string@DU?$char_traits@D@std@@V?$allocator@D@2@@std@@@std@@@std@@@std@@@1@_NPEAU?$_Tree_node@U?$pair@$$CBHV?$basic_string@DU?$char_traits@D@std@@V?$allocator@D@2@@std@@@std@@PEAX@1@AEAU?$pair@$$CBHV?$basic_string@DU?$char_traits@D@std@@V?$allocator@D@2@@std@@@1@1@Z 0000000180041d00     AebellBusiThread.obj
 0002:0000ad00       $unwind$_lock_file         0000000180041d00     LIBCMT:_file.obj
 0002:0000ad00       $unwind$??$_Insert_at@AEAU?$pair@$$CBV?$basic_string@DU?$char_traits@D@std@@V?$allocator@D@2@@std@@H@std@@PEAU?$_Tree_node@U?$pair@$$CBV?$basic_string@DU?$char_traits@D@std@@V?$allocator@D@2@@std@@H@std@@PEAX@2@@?$_Tree@V?$_Tmap_traits@V?$basic_string@DU?$char_traits@D@std@@V?$allocator@D@2@@std@@HU?$less@V?$basic_string@DU?$char_traits@D@std@@V?$allocator@D@2@@std@@@2@V?$allocator@U?$pair@$$CBV?$basic_string@DU?$char_traits@D@std@@V?$allocator@D@2@@std@@H@std@@@2@$0A@@std@@@std@@IEAA?AV?$_Tree_iterator@V?$_Tree_val@U?$_Tree_simple_types@U?$pair@$$CBV?$basic_string@DU?$char_traits@D@std@@V?$allocator@D@2@@std@@H@std@@@std@@@std@@@1@_NPEAU?$_Tree_node@U?$pair@$$CBV?$basic_string@DU?$char_traits@D@std@@V?$allocator@D@2@@std@@H@std@@PEAX@1@AEAU?$pair@$$CBV?$basic_string@DU?$char_traits@D@std@@V?$allocator@D@2@@std@@H@1@1@Z 0000000180041d00     AebellBusiThread.obj
 0002:0000ad00       $unwind$??$_Insert_at@AEAU?$pair@$$CBGV?$basic_string@DU?$char_traits@D@std@@V?$allocator@D@2@@std@@@std@@PEAU?$_Tree_node@U?$pair@$$CBGV?$basic_string@DU?$char_traits@D@std@@V?$allocator@D@2@@std@@@std@@PEAX@2@@?$_Tree@V?$_Tmap_traits@GV?$basic_string@DU?$char_traits@D@std@@V?$allocator@D@2@@std@@U?$less@G@2@V?$allocator@U?$pair@$$CBGV?$basic_string@DU?$char_traits@D@std@@V?$allocator@D@2@@std@@@std@@@2@$0A@@std@@@std@@IEAA?AV?$_Tree_iterator@V?$_Tree_val@U?$_Tree_simple_types@U?$pair@$$CBGV?$basic_string@DU?$char_traits@D@std@@V?$allocator@D@2@@std@@@std@@@std@@@std@@@1@_NPEAU?$_Tree_node@U?$pair@$$CBGV?$basic_string@DU?$char_traits@D@std@@V?$allocator@D@2@@std@@@std@@PEAX@1@AEAU?$pair@$$CBGV?$basic_string@DU?$char_traits@D@std@@V?$allocator@D@2@@std@@@1@1@Z 0000000180041d00     AebellBusiThread.obj
 0002:0000ad00       $unwind$?queryAllFile@@YAXAEBV?$FunctionCallbackInfo@VValue@v8@@@v8@@@Z 0000000180041d00     AebellBroadcast.obj
 0002:0000ad00       $unwind$??$_Insert_at@AEAU?$pair@$$CBV?$basic_string@DU?$char_traits@D@std@@V?$allocator@D@2@@std@@G@std@@PEAU?$_Tree_node@U?$pair@$$CBV?$basic_string@DU?$char_traits@D@std@@V?$allocator@D@2@@std@@G@std@@PEAX@2@@?$_Tree@V?$_Tmap_traits@V?$basic_string@DU?$char_traits@D@std@@V?$allocator@D@2@@std@@GU?$less@V?$basic_string@DU?$char_traits@D@std@@V?$allocator@D@2@@std@@@2@V?$allocator@U?$pair@$$CBV?$basic_string@DU?$char_traits@D@std@@V?$allocator@D@2@@std@@G@std@@@2@$0A@@std@@@std@@IEAA?AV?$_Tree_iterator@V?$_Tree_val@U?$_Tree_simple_types@U?$pair@$$CBV?$basic_string@DU?$char_traits@D@std@@V?$allocator@D@2@@std@@G@std@@@std@@@std@@@1@_NPEAU?$_Tree_node@U?$pair@$$CBV?$basic_string@DU?$char_traits@D@std@@V?$allocator@D@2@@std@@G@std@@PEAX@1@AEAU?$pair@$$CBV?$basic_string@DU?$char_traits@D@std@@V?$allocator@D@2@@std@@G@1@1@Z 0000000180041d00     AebellBusiThread.obj
 0002:0000ad00       $unwind$?flush@?$basic_ostream@DU?$char_traits@D@std@@@std@@QEAAAEAV12@XZ 0000000180041d00     UploadFileTask.obj
 0002:0000ad00       $unwind$??$_Insert_at@AEAU?$pair@$$CBV?$basic_string@DU?$char_traits@D@std@@V?$allocator@D@2@@std@@V12@@std@@PEAU?$_Tree_node@U?$pair@$$CBV?$basic_string@DU?$char_traits@D@std@@V?$allocator@D@2@@std@@V12@@std@@PEAX@2@@?$_Tree@V?$_Tmap_traits@V?$basic_string@DU?$char_traits@D@std@@V?$allocator@D@2@@std@@V12@U?$less@V?$basic_string@DU?$char_traits@D@std@@V?$allocator@D@2@@std@@@2@V?$allocator@U?$pair@$$CBV?$basic_string@DU?$char_traits@D@std@@V?$allocator@D@2@@std@@V12@@std@@@2@$0A@@std@@@std@@IEAA?AV?$_Tree_iterator@V?$_Tree_val@U?$_Tree_simple_types@U?$pair@$$CBV?$basic_string@DU?$char_traits@D@std@@V?$allocator@D@2@@std@@V12@@std@@@std@@@std@@@1@_NPEAU?$_Tree_node@U?$pair@$$CBV?$basic_string@DU?$char_traits@D@std@@V?$allocator@D@2@@std@@V12@@std@@PEAX@1@AEAU?$pair@$$CBV?$basic_string@DU?$char_traits@D@std@@V?$allocator@D@2@@std@@V12@@1@1@Z 0000000180041d00     AebellBusiThread.obj
 0002:0000ad00       $unwind$_SetImageBase      0000000180041d00     LIBCMT:trnsctrl.obj
 0002:0000ad00       $unwind$__crtIsPackagedApp 0000000180041d00     LIBCMT:winapisupp.obj
 0002:0000ad00       $unwind$_SetThrowImageBase 0000000180041d00     LIBCMT:trnsctrl.obj
 0002:0000ad00       $unwind$__crtUnhandledException 0000000180041d00     LIBCMT:winapisupp.obj
 0002:0000ad00       $unwind$__crtTerminateProcess 0000000180041d00     LIBCMT:winapisupp.obj
 0002:0000ad00       $unwind$_lock_file2        0000000180041d00     LIBCMT:_file.obj
 0002:0000ad00       $unwind$??_G?$_Ref_count@VCUploadFileTask@@@std@@UEAAPEAXI@Z 0000000180041d00     AebellBusiThread.obj
 0002:0000ad00       $unwind$??_G?$_Ref_count@VCBroadcastTask@@@std@@UEAAPEAXI@Z 0000000180041d00     AebellBusiThread.obj
 0002:0000ad00       $unwind$_Getctype          0000000180041d00     libcpmt:_tolower.obj
 0002:0000ad00       $unwind$GetLocaleNameFromLangCountry 0000000180041d00     LIBCMT:getqloc.obj
 0002:0000ad00       $unwind$?_Destroy_if_not_nil@?$_Tree@V?$_Tmap_traits@V?$basic_string@DU?$char_traits@D@std@@V?$allocator@D@2@@std@@V12@U?$less@V?$basic_string@DU?$char_traits@D@std@@V?$allocator@D@2@@std@@@2@V?$allocator@U?$pair@$$CBV?$basic_string@DU?$char_traits@D@std@@V?$allocator@D@2@@std@@V12@@std@@@2@$0A@@std@@@std@@IEAAXPEAU?$_Tree_node@U?$pair@$$CBV?$basic_string@DU?$char_traits@D@std@@V?$allocator@D@2@@std@@V12@@std@@PEAX@2@@Z 0000000180041d00     AebellBusiThread.obj
 0002:0000ad00       $unwind$??_GCUploadFileTask@@QEAAPEAXI@Z 0000000180041d00     AebellBusiThread.obj
 0002:0000ad00       $unwind$__crtLoadWinApiPointers 0000000180041d00     LIBCMT:winapisupp.obj
 0002:0000ad00       $unwind$?imbue@?$basic_filebuf@DU?$char_traits@D@std@@@std@@MEAAXAEBVlocale@2@@Z 0000000180041d00     UploadFileTask.obj
 0002:0000ad00       $unwind$_init_pointers     0000000180041d00     LIBCMT:crt0dat.obj
 0002:0000ad00       $unwind$?sync@?$basic_filebuf@DU?$char_traits@D@std@@@std@@MEAAHXZ 0000000180041d00     UploadFileTask.obj
 0002:0000ad00       $unwind$??_GCBroadcastTask@@QEAAPEAXI@Z 0000000180041d00     AebellBusiThread.obj
 0002:0000ad00       $unwind$?setbuf@?$basic_filebuf@DU?$char_traits@D@std@@@std@@MEAAPEAV?$basic_streambuf@DU?$char_traits@D@std@@@2@PEAD_J@Z 0000000180041d00     UploadFileTask.obj
 0002:0000ad00       $unwind$?stopModule@@YAXAEBV?$FunctionCallbackInfo@VValue@v8@@@v8@@@Z 0000000180041d00     AebellBroadcast.obj
 0002:0000ad00       $unwind$?do_widen@?$ctype@D@std@@MEBAPEBDPEBD0PEAD@Z 0000000180041d00     UploadFileTask.obj
 0002:0000ad00       $unwind$__onexitinit       0000000180041d00     LIBCMT:onexit.obj
 0002:0000ad00       $unwind$_cinit             0000000180041d00     LIBCMT:crt0dat.obj
 0002:0000ad00       $unwind$?do_narrow@?$ctype@D@std@@MEBAPEBDPEBD0DPEAD@Z 0000000180041d00     UploadFileTask.obj
 0002:0000ad00       $unwind$GetLocaleNameFromLanguage 0000000180041d00     LIBCMT:getqloc.obj
 0002:0000ad00       $unwind$__crtCorExitProcess 0000000180041d00     LIBCMT:crt0dat.obj
 0002:0000ad00       $unwind$??_G_System_error@std@@UEAAPEAXI@Z 0000000180041d00     UploadFileTask.obj
 0002:0000ad00       $unwind$?_Reserve@?$vector@U_tagPlayTaskFile@@V?$allocator@U_tagPlayTaskFile@@@std@@@std@@IEAAX_K@Z 0000000180041d00     AebellBusiThread.obj
 0002:0000ad00       $unwind$_freebuf           0000000180041d00     LIBCMT:_freebuf.obj
 0002:0000ad00       $unwind$__GSHandlerCheckCommon 0000000180041d00     LIBCMT:gshandler.obj
 0002:0000ad00       $unwind$_getbuf            0000000180041d00     LIBCMT:_getbuf.obj
 0002:0000ad00       $unwind$write_char         0000000180041d00     LIBCMT:output.obj
 0002:0000ad00       $unwind$__crtExitProcess   0000000180041d00     LIBCMT:crt0dat.obj
 0002:0000ad00       $unwind$_getptd            0000000180041d00     LIBCMT:tidtable.obj
 0002:0000ad00       $unwind$?_Tidy@exception@std@@AEAAXXZ 0000000180041d00     LIBCMT:stdexcpt.obj
 0002:0000ad00       $unwind$_amsg_exit         0000000180041d00     LIBCMT:crt0dat.obj
 0002:0000ad00       $unwind$?underflow@?$basic_filebuf@DU?$char_traits@D@std@@@std@@MEAAHXZ 0000000180041d00     UploadFileTask.obj
 0002:0000ad00       $unwind$?TimerQueryAllFileCB@@YAXAEBV?$vector@U_tagNetFile@@V?$allocator@U_tagNetFile@@@std@@@std@@K@Z 0000000180041d00     AebellBroadcast.obj
 0002:0000ad00       $unwind$??0?$map@GHU?$less@G@std@@V?$allocator@U?$pair@$$CBGH@std@@@2@@std@@QEAA@XZ 0000000180041d00     AebellBusiThread.obj
 0002:0000ad00       $unwind$??_Gfailure@ios_base@std@@UEAAPEAXI@Z 0000000180041d00     UploadFileTask.obj
 0002:0000ad00       $unwind$?SetDeviceVolumeCB@@YAXHK@Z 0000000180041d00     AebellBroadcast.obj
 0002:0000ad00       $unwind$?UploadFileCB@@YAXHK@Z 0000000180041d00     AebellBroadcast.obj
 0002:0000ad00       $unwind$??0?$map@GGU?$less@G@std@@V?$allocator@U?$pair@$$CBGG@std@@@2@@std@@QEAA@XZ 0000000180041d00     AebellBusiThread.obj
 0002:0000ad00       $unwind$?OnFinishUploadFileCB@@YAXHK@Z 0000000180041d00     AebellBroadcast.obj
 0002:0000ad00       $unwind$?run@CAEBELLBusiThread@@UEAAKXZ 0000000180041d00     AebellBusiThread.obj
 0002:0000ad00       $unwind$??0?$map@V?$basic_string@DU?$char_traits@D@std@@V?$allocator@D@2@@std@@V?$map@V?$basic_string@DU?$char_traits@D@std@@V?$allocator@D@2@@std@@V12@U?$less@V?$basic_string@DU?$char_traits@D@std@@V?$allocator@D@2@@std@@@2@V?$allocator@U?$pair@$$CBV?$basic_string@DU?$char_traits@D@std@@V?$allocator@D@2@@std@@V12@@std@@@2@@2@U?$less@V?$basic_string@DU?$char_traits@D@std@@V?$allocator@D@2@@std@@@2@V?$allocator@U?$pair@$$CBV?$basic_string@DU?$char_traits@D@std@@V?$allocator@D@2@@std@@V?$map@V?$basic_string@DU?$char_traits@D@std@@V?$allocator@D@2@@std@@V12@U?$less@V?$basic_string@DU?$char_traits@D@std@@V?$allocator@D@2@@std@@@2@V?$allocator@U?$pair@$$CBV?$basic_string@DU?$char_traits@D@std@@V?$allocator@D@2@@std@@V12@@std@@@2@@2@@std@@@2@@std@@QEAA@XZ 0000000180041d00     AebellBusiThread.obj
 0002:0000ad00       $unwind$?TimerGetAllNetDevicesCB@@YAXAEBV?$vector@U_tagNetDevice@@V?$allocator@U_tagNetDevice@@@std@@@std@@K@Z 0000000180041d00     AebellBroadcast.obj
 0002:0000ad00       $unwind$??0out_of_range@std@@QEAA@AEBV01@@Z 0000000180041d00     libcpmt:xthrow.obj
 0002:0000ad00       $unwind$??0exception@std@@QEAA@AEBV01@@Z 0000000180041d00     LIBCMT:stdexcpt.obj
 0002:0000ad00       $unwind$_freeptd           0000000180041d00     LIBCMT:tidtable.obj
 0002:0000ad00       $unwind$??0bad_exception@std@@QEAA@AEBV01@@Z 0000000180041d00     LIBCMT:frame.obj
 0002:0000ad00       $unwind$?_Reserve@?$vector@UDeviceStatusInfo@@V?$allocator@UDeviceStatusInfo@@@std@@@std@@IEAAX_K@Z 0000000180041d00     AebellBroadcast.obj
 0002:0000ad00       $unwind$??0length_error@std@@QEAA@AEBV01@@Z 0000000180041d00     libcpmt:xthrow.obj
 0002:0000ad00       $unwind$strcpy_s           0000000180041d00     LIBCMT:strcpy_s.obj
 0002:0000ad00       $unwind$??0logic_error@std@@QEAA@AEBV01@@Z 0000000180041d00     libcpmt:xthrow.obj
 0002:0000ad00       $unwind$strncpy_s          0000000180041d00     LIBCMT:strncpy_s.obj
 0002:0000ad00       $unwind$??1?$basic_filebuf@DU?$char_traits@D@std@@@std@@UEAA@XZ 0000000180041d00     UploadFileTask.obj
 0002:0000ad00       $unwind$?_Reserve@?$vector@UFileInfo@@V?$allocator@UFileInfo@@@std@@@std@@IEAAX_K@Z 0000000180041d00     AebellBroadcast.obj
 0002:0000ad00       $unwind$??1?$basic_ifstream@DU?$char_traits@D@std@@@std@@UEAA@XZ 0000000180041d00     UploadFileTask.obj
 0002:0000ad00       $unwind$?TimerGetDeviceAttachInfoCB@@YAXAEBV?$vector@U_tagNetDeviceAttach@@V?$allocator@U_tagNetDeviceAttach@@@std@@@std@@K@Z 0000000180041d00     AebellBroadcast.obj
 0002:0000ad00       $unwind$_fflush_nolock     0000000180041d00     LIBCMT:fflush.obj
 0002:0000ad00       $unwind$??0exception@std@@QEAA@AEBQEBD@Z 0000000180041d00     LIBCMT:stdexcpt.obj
 0002:0000ad00       $unwind$wcscat_s           0000000180041d00     LIBCMT:wcscat_s.obj
 0002:0000ad00       $unwind$?__GetUnwindTryBlock@@YAHPEA_KPEAU_xDISPATCHER_CONTEXT@@PEBU_s_FuncInfo@@@Z 0000000180041d00     LIBCMT:ehstate.obj
 0002:0000ad00       $unwind$?_Reserve@?$vector@UTimerTaskInfo@@V?$allocator@UTimerTaskInfo@@@std@@@std@@IEAAX_K@Z 0000000180041d00     AebellBroadcast.obj
 0002:0000ad00       $unwind$write_char         0000000180041d00     LIBCMT:outputs.obj
 0002:0000ad00       $unwind$?_Setgloballocale@locale@std@@CAXPEAX@Z 0000000180041d00     libcpmt:locale0.obj
 0002:0000ad00       $unwind$??0bad_alloc@std@@QEAA@AEBV01@@Z 0000000180041d00     libcpmt:xthrow.obj
 0002:0000ad00       $unwind$wcscpy_s           0000000180041d00     LIBCMT:wcscpy_s.obj
 0002:0000ad00       $unwind$?OnGetAllPolicyCB@@YAXAEBV?$vector@U_tagTaskPolicy@@V?$allocator@U_tagTaskPolicy@@@std@@@std@@K@Z 0000000180041d00     AebellBroadcast.obj
 0002:0000ad00       $unwind$?OnAddUpdatePlanCB@@YAXHK@Z 0000000180041d00     AebellBroadcast.obj
 0002:0000ad00       $unwind$??0TimerTaskInfo@@QEAA@AEBU0@@Z 0000000180041d00     AebellBroadcast.obj
 0002:0000ad00       $unwind$__raise_securityfailure 0000000180041d00     LIBCMT:gs_report.obj
 0002:0000ad00       $unwind$_mtinit            0000000180041d00     LIBCMT:tidtable.obj
 0002:0000ad00       $unwind$?uflow@?$basic_streambuf@DU?$char_traits@D@std@@@std@@MEAAHXZ 0000000180041d00     UploadFileTask.obj
 0002:0000ad00       $unwind$?OnAddPlanTaskCB@@YAXHK@Z 0000000180041d00     AebellBroadcast.obj
 0002:0000ad00       $unwind$?OnDelPlanCB@@YAXHK@Z 0000000180041d00     AebellBroadcast.obj
 0002:0000ad00       $unwind$_callnewh          0000000180041d00     LIBCMT:handler.obj
 0002:0000ad00       $unwind$?OnSessionDeviceCB@@YAXHK@Z 0000000180041d00     AebellBroadcast.obj
 0002:0000ad00       $unwind$_CreateFrameInfo   0000000180041d00     LIBCMT:trnsctrl.obj
 0002:0000ad00       $unwind$??0?$map@V?$basic_string@DU?$char_traits@D@std@@V?$allocator@D@2@@std@@V12@U?$less@V?$basic_string@DU?$char_traits@D@std@@V?$allocator@D@2@@std@@@2@V?$allocator@U?$pair@$$CBV?$basic_string@DU?$char_traits@D@std@@V?$allocator@D@2@@std@@V12@@std@@@2@@std@@QEAA@XZ 0000000180041d00     AebellBusiThread.obj
 0002:0000ad00       $unwind$??0_Lockit@std@@QEAA@H@Z 0000000180041d00     libcpmt:xlock.obj
 0002:0000ad00       $unwind$?_Facet_Register@std@@YAXPEAV_Facet_base@1@@Z 0000000180041d00     libcpmt:locale0.obj
 0002:0000ad00       $unwind$wcsncpy_s          0000000180041d00     LIBCMT:wcsncpy_s.obj
 0002:0000ad00       $unwind$_IsExceptionObjectToBeDestroyed 0000000180041d00     LIBCMT:trnsctrl.obj
 0002:0000ad00       $unwind$??0_LocaleUpdate@@QEAA@PEAUlocaleinfo_struct@@@Z 0000000180041d00     LIBCMT:stricmp.obj
 0002:0000ad00       $unwind$??__F_Fac_tidy_reg@std@@YAXXZ 0000000180041d00     libcpmt:locale0.obj
 0002:0000ad00       $unwind$??_Gexception@stdext@@UEAAPEAXI@Z 0000000180041d00     UploadFileTask.obj
 0002:0000ad08       $unwind$??4TimerTaskInfo@@QEAAAEAU0@AEBU0@@Z 0000000180041d08     AebellBroadcast.obj
 0002:0000ad1c       $chain$4$??4TimerTaskInfo@@QEAAAEAU0@AEBU0@@Z 0000000180041d1c     AebellBroadcast.obj
 0002:0000ad40       $chain$5$??4TimerTaskInfo@@QEAAAEAU0@AEBU0@@Z 0000000180041d40     AebellBroadcast.obj
 0002:0000ad50       $unwind$_DllMainCRTStartup 0000000180041d50     LIBCMT:dllcrt0.obj
 0002:0000ad50       $unwind$??0?$basic_streambuf@DU?$char_traits@D@std@@@std@@IEAA@XZ 0000000180041d50     UploadFileTask.obj
 0002:0000ad50       $unwind$?logout@@YAXAEBV?$FunctionCallbackInfo@VValue@v8@@@v8@@@Z 0000000180041d50     AebellBroadcast.obj
 0002:0000ad50       $unwind$??_G?$basic_ifstream@DU?$char_traits@D@std@@@std@@UEAAPEAXI@Z 0000000180041d50     UploadFileTask.obj
 0002:0000ad50       $unwind$??_G?$basic_streambuf@DU?$char_traits@D@std@@@std@@UEAAPEAXI@Z 0000000180041d50     UploadFileTask.obj
 0002:0000ad50       $unwind$?_Erase@?$_Tree@V?$_Tmap_traits@GHU?$less@G@std@@V?$allocator@U?$pair@$$CBGH@std@@@2@$0A@@std@@@std@@IEAAXPEAU?$_Tree_node@U?$pair@$$CBGH@std@@PEAX@2@@Z 0000000180041d50     AebellBusiThread.obj
 0002:0000ad50       $unwind$?_Erase@?$_Tree@V?$_Tmap_traits@GGU?$less@G@std@@V?$allocator@U?$pair@$$CBGG@std@@@2@$0A@@std@@@std@@IEAAXPEAU?$_Tree_node@U?$pair@$$CBGG@std@@PEAX@2@@Z 0000000180041d50     AebellBusiThread.obj
 0002:0000ad50       $unwind$?compare@?$basic_string@DU?$char_traits@D@std@@V?$allocator@D@2@@std@@QEBAHAEBV12@@Z 0000000180041d50     AebellBusiThread.obj
 0002:0000ad50       $unwind$malloc             0000000180041d50     LIBCMT:malloc.obj
 0002:0000ad50       $unwind$?close@?$basic_filebuf@DU?$char_traits@D@std@@@std@@QEAAPEAV12@XZ 0000000180041d50     UploadFileTask.obj
 0002:0000ad50       $unwind$_threadstartex     0000000180041d50     LIBCMT:threadex.obj
 0002:0000ad50       $unwind$realloc            0000000180041d50     LIBCMT:realloc.obj
 0002:0000ad50       $unwind$??0CAEBELLBusiThread@@AEAA@XZ 0000000180041d50     AebellBusiThread.obj
 0002:0000ad50       $unwind$?clear@?$_Tree@V?$_Tmap_traits@GHU?$less@G@std@@V?$allocator@U?$pair@$$CBGH@std@@@2@$0A@@std@@@std@@QEAAXXZ 0000000180041d50     AebellBusiThread.obj
 0002:0000ad50       $unwind$??4?$_Yarn@D@std@@QEAAAEAV01@PEBD@Z 0000000180041d50     libcpmt:locale0.obj
 0002:0000ad50       $unwind$??0AddUpdPlanOperInfo@@QEAA@XZ 0000000180041d50     AebellBroadcast.obj
 0002:0000ad50       $unwind$?PushTask@CTaskQueue@@QEAAXV?$shared_ptr@VCBroadcastTask@@@std@@K@Z 0000000180041d50     TaskQueue.obj
 0002:0000ad50       $unwind$__crtGetLocaleInfoEx 0000000180041d50     LIBCMT:winapinls.obj
 0002:0000ad50       $unwind$?_Init@ios_base@std@@IEAAXXZ 0000000180041d50     UploadFileTask.obj
 0002:0000ad50       $unwind$?clear@?$_Tree@V?$_Tmap_traits@GGU?$less@G@std@@V?$allocator@U?$pair@$$CBGG@std@@@2@$0A@@std@@@std@@QEAAXXZ 0000000180041d50     AebellBusiThread.obj
 0002:0000ad50       $unwind$memcpy_s           0000000180041d50     LIBCMT:memcpy_s.obj
 0002:0000ad50       $unwind$??0_Init_locks@std@@QEAA@XZ 0000000180041d50     libcpmt:xlock.obj
 0002:0000ad50       $unwind$_lseeki64_nolock   0000000180041d50     LIBCMT:lseeki64.obj
 0002:0000ad50       $unwind$_filbuf            0000000180041d50     LIBCMT:_filbuf.obj
 0002:0000ad50       $unwind$?assign@?$basic_string@DU?$char_traits@D@std@@V?$allocator@D@2@@std@@QEAAAEAV12@PEBD_K@Z 0000000180041d50     AebellBroadcast.obj
 0002:0000ad50       $unwind$?GetUsefulPhoneNum@CAEBELLBusiThread@@AEAAGXZ 0000000180041d50     AebellBusiThread.obj
 0002:0000ad50       $unwind$??0?$basic_ifstream@DU?$char_traits@D@std@@@std@@QEAA@PEB_WHH@Z 0000000180041d50     UploadFileTask.obj
 0002:0000ad50       $unwind$_mtinitlocks       0000000180041d50     LIBCMT:mlock.obj
 0002:0000ad50       $unwind$_ioterm            0000000180041d50     LIBCMT:ioinit.obj
 0002:0000ad50       $unwind$_flush             0000000180041d50     LIBCMT:fflush.obj
 0002:0000ad60       $unwind$??1AddUpdPlanOperInfo@@QEAA@XZ 0000000180041d60     AebellBroadcast.obj
 0002:0000ad6c       $chain$0$??1AddUpdPlanOperInfo@@QEAA@XZ 0000000180041d6c     AebellBroadcast.obj
 0002:0000ad80       $chain$1$??1AddUpdPlanOperInfo@@QEAA@XZ 0000000180041d80     AebellBroadcast.obj
 0002:0000ad94       $chain$2$??1AddUpdPlanOperInfo@@QEAA@XZ 0000000180041d94     AebellBroadcast.obj
 0002:0000ada4       $chain$3$??1AddUpdPlanOperInfo@@QEAA@XZ 0000000180041da4     AebellBroadcast.obj
 0002:0000adb4       $unwind$??4ResFileInfo@@QEAAAEAU0@AEBU0@@Z 0000000180041db4     AebellBroadcast.obj
 0002:0000adc8       $chain$1$??4ResFileInfo@@QEAAAEAU0@AEBU0@@Z 0000000180041dc8     AebellBroadcast.obj
 0002:0000ade0       $chain$2$??4ResFileInfo@@QEAAAEAU0@AEBU0@@Z 0000000180041de0     AebellBroadcast.obj
 0002:0000adf0       $unwind$??__EautoInfoLock_@@YAXXZ 0000000180041df0     AebellUploadThread.obj
 0002:0000adf0       $unwind$??__Finit_atexit@@YAXXZ 0000000180041df0     libcpmt:iosptrs.obj
 0002:0000adf0       $unwind$__FrameUnwindFilter 0000000180041df0     LIBCMT:frame.obj
 0002:0000adf0       $unwind$??__Fclassic_locale@std@@YAXXZ 0000000180041df0     libcpmt:locale0.obj
 0002:0000adf0       $unwind$??__Einitlocks@std@@YAXXZ 0000000180041df0     libcpmt:iosptrs.obj
 0002:0000adf0       $unwind$?_Atexit@@YAXP6AXXZ@Z 0000000180041df0     libcpmt:iosptrs.obj
 0002:0000adf0       $unwind$?__GetCurrentState@@YAHPEA_KPEAU_xDISPATCHER_CONTEXT@@PEBU_s_FuncInfo@@@Z 0000000180041df0     LIBCMT:ehstate.obj
 0002:0000adf0       $unwind$??__EautoInfoLock_@@YAXXZ 0000000180041df0     UploadFileTask.obj
 0002:0000adf0       $unwind$_copytlocinfo_nolock 0000000180041df0     LIBCMT:wsetloca.obj
 0002:0000adf0       $unwind$_isatty            0000000180041df0     LIBCMT:isatty.obj
 0002:0000adf0       $unwind$_mtterm            0000000180041df0     LIBCMT:tidtable.obj
 0002:0000adf0       $unwind$?GetInstance@CAEBELLUploadThread@@SAAEAV1@XZ 0000000180041df0     AebellUploadThread.obj
 0002:0000adf0       $unwind$??__EallDevStatusLock_@@YAXXZ 0000000180041df0     AebellBroadcast.obj
 0002:0000adf0       $unwind$??__EautoInfoLock_@@YAXXZ 0000000180041df0     AebellBroadcast.obj
 0002:0000adf0       $unwind$_wcsnicmp          0000000180041df0     LIBCMT:wcsnicmp.obj
 0002:0000adf0       $unwind$??__E?m_instanceLock@CAEBELLUploadThread@@0VCLock@@A@@YAXXZ 0000000180041df0     AebellUploadThread.obj
 0002:0000adf0       $unwind$?_Reserve@?$vector@HV?$allocator@H@std@@@std@@IEAAX_K@Z 0000000180041df0     AebellBroadcast.obj
 0002:0000adf0       $unwind$?CallCB@@YAXGK@Z   0000000180041df0     AebellBroadcast.obj
 0002:0000adf0       $unwind$_Deletegloballocale 0000000180041df0     libcpmt:locale0.obj
 0002:0000adf0       $unwind$?BroadcastCB@@YAXGK@Z 0000000180041df0     AebellBroadcast.obj
 0002:0000adf0       $unwind$atexit             0000000180041df0     LIBCMT:onexit.obj
 0002:0000adf0       $unwind$_get_osfhandle     0000000180041df0     LIBCMT:osfinfo.obj
 0002:0000adf0       $unwind$?_Locinfo_dtor@_Locinfo@std@@SAXPEAV12@@Z 0000000180041df0     libcpmt:locale0.obj
 0002:0000adf0       $unwind$tidy_global        0000000180041df0     libcpmt:locale0.obj
 0002:0000adf0       $unwind$_stricmp           0000000180041df0     LIBCMT:stricmp.obj
 0002:0000adf0       $unwind$??__E?m_instanceLock@CAEBELLBusiThread@@0VCLock@@A@@YAXXZ 0000000180041df0     AebellBusiThread.obj
 0002:0000adf0       $unwind$_get_fmode         0000000180041df0     LIBCMT:setmode.obj
 0002:0000adf0       $unwind$__endstdio         0000000180041df0     LIBCMT:_file.obj
 0002:0000adf0       $unwind$___lc_locale_name_func 0000000180041df0     LIBCMT:initctyp.obj
 0002:0000adf0       $unwind$?startModule@@YAXAEBV?$FunctionCallbackInfo@VValue@v8@@@v8@@@Z 0000000180041df0     AebellBroadcast.obj
 0002:0000adf0       $unwind$_msize             0000000180041df0     LIBCMT:msize.obj
 0002:0000adf0       $unwind$__GSHandlerCheck   0000000180041df0     LIBCMT:gshandler.obj
 0002:0000adf0       $unwind$_initp_eh_hooks    0000000180041df0     LIBCMT:hooks.obj
 0002:0000adf0       $unwind$__initmbctable     0000000180041df0     LIBCMT:mbctype.obj
 0002:0000adf0       $unwind$_wcsicmp           0000000180041df0     LIBCMT:wcsicmp.obj
 0002:0000adf0       $unwind$_heap_init         0000000180041df0     LIBCMT:heapinit.obj
 0002:0000adf0       $unwind$___lc_codepage_func 0000000180041df0     LIBCMT:initctyp.obj
 0002:0000adf0       $unwind$?GetInstance@CAEBELLBusiThread@@SAAEAV1@XZ 0000000180041df0     AebellBusiThread.obj
 0002:0000adf0       $unwind$__crtInitializeCriticalSectionEx 0000000180041df0     LIBCMT:winapisupp.obj
 0002:0000adf0       $unwind$_FF_MSGBANNER      0000000180041df0     LIBCMT:crt0msg.obj
 0002:0000adf0       $unwind$??__EallDevStatusLock_@@YAXXZ 0000000180041df0     AebellUploadThread.obj
 0002:0000adf0       $unwind$_purecall          0000000180041df0     LIBCMT:purevirt.obj
 0002:0000adf0       $unwind$??1_Lockit@std@@QEAA@XZ 0000000180041df0     libcpmt:xlock.obj
 0002:0000adf0       $unwind$_GetThrowImageBase 0000000180041df0     LIBCMT:trnsctrl.obj
 0002:0000adf0       $unwind$??__EallDevStatusLock_@@YAXXZ 0000000180041df0     UploadFileTask.obj
 0002:0000adf0       $unwind$?_Reserve@?$vector@V?$basic_string@DU?$char_traits@D@std@@V?$allocator@D@2@@std@@V?$allocator@V?$basic_string@DU?$char_traits@D@std@@V?$allocator@D@2@@std@@@2@@std@@IEAAX_K@Z 0000000180041df0     AebellBroadcast.obj
 0002:0000adf0       $unwind$__crtIsValidLocaleName 0000000180041df0     LIBCMT:winapinls.obj
 0002:0000adf0       $unwind$_strnicmp          0000000180041df0     LIBCMT:strnicmp.obj
 0002:0000adf0       $unwind$??__EallDevStatusLock_@@YAXXZ 0000000180041df0     AebellBusiThread.obj
 0002:0000adf0       $unwind$_invoke_watson     0000000180041df0     LIBCMT:invarg.obj
 0002:0000adf0       $unwind$?registerDevStatusCB@@YAXAEBV?$FunctionCallbackInfo@VValue@v8@@@v8@@@Z 0000000180041df0     AebellBroadcast.obj
 0002:0000adf0       $unwind$??__Einitlocks@std@@YAXXZ 0000000180041df0     libcpmt:xlock.obj
 0002:0000adf0       $unwind$??8type_info@@QEBA_NAEBV0@@Z 0000000180041df0     LIBCMT:typinfo.obj
 0002:0000adf0       $unwind$_errno             0000000180041df0     LIBCMT:dosmap.obj
 0002:0000adf0       $unwind$_GetImageBase      0000000180041df0     LIBCMT:trnsctrl.obj
 0002:0000adf0       $unwind$__doserrno         0000000180041df0     LIBCMT:dosmap.obj
 0002:0000adf0       $unwind$__crtEnumSystemLocalesEx 0000000180041df0     LIBCMT:winapinls.obj
 0002:0000adf0       $unwind$__report_rangecheckfailure 0000000180041df0     LIBCMT:gs_report.obj
 0002:0000adf0       $unwind$_set_error_mode    0000000180041df0     LIBCMT:errmode.obj
 0002:0000adf0       $unwind$??__EautoInfoLock_@@YAXXZ 0000000180041df0     AebellBusiThread.obj
 0002:0000adf0       $unwind$__pctype_func      0000000180041df0     LIBCMT:ctype.obj
 0002:0000adf0       $unwind$__crtDownlevelLocaleNameToLCID 0000000180041df0     LIBCMT:winapinls.obj
 0002:0000adf0       $unwind$_fileno            0000000180041df0     LIBCMT:fileno.obj
 0002:0000adf0       $unwind$fsetpos            0000000180041df0     LIBCMT:fsetpos.obj
 0002:0000adf0       $unwind$abort              0000000180041df0     LIBCMT:abort.obj
 0002:0000adf0       $unwind$__termconout       0000000180041df0     LIBCMT:initcon.obj
 0002:0000adf8       $unwind$??__FvAutoPushData_@@YAXXZ 0000000180041df8     AebellUploadThread.obj
 0002:0000adf8       $unwind$??__FvAutoPushData_@@YAXXZ 0000000180041df8     AebellBusiThread.obj
 0002:0000adf8       $unwind$??__FvAutoPushData_@@YAXXZ 0000000180041df8     UploadFileTask.obj
 0002:0000adf8       $unwind$??__FvAllDevStatusData_@@YAXXZ 0000000180041df8     UploadFileTask.obj
 0002:0000adf8       $unwind$??__FvAllDevStatusData_@@YAXXZ 0000000180041df8     AebellBroadcast.obj
 0002:0000adf8       $unwind$??__FvAutoPushData_@@YAXXZ 0000000180041df8     AebellBroadcast.obj
 0002:0000adf8       $unwind$??__FvAllDevStatusData_@@YAXXZ 0000000180041df8     AebellBusiThread.obj
 0002:0000adf8       $unwind$??__FvAllDevStatusData_@@YAXXZ 0000000180041df8     AebellUploadThread.obj
 0002:0000adf8       $unwind$_fassign_l         0000000180041df8     LIBCMT:cvt.obj
 0002:0000adf8       $unwind$?startModule@CAEBELLBusiThread@@QEAAXXZ 0000000180041df8     AebellBusiThread.obj
 0002:0000ae00       $chain$1$??__FvAutoPushData_@@YAXXZ 0000000180041e00     AebellBroadcast.obj
 0002:0000ae18       $chain$2$??__FvAutoPushData_@@YAXXZ 0000000180041e18     AebellBroadcast.obj
 0002:0000ae2c       $chain$3$??__FvAutoPushData_@@YAXXZ 0000000180041e2c     AebellBroadcast.obj
 0002:0000ae3c       $chain$4$??__FvAutoPushData_@@YAXXZ 0000000180041e3c     AebellBroadcast.obj
 0002:0000ae4c       $chain$1$??__FvAllDevStatusData_@@YAXXZ 0000000180041e4c     AebellBroadcast.obj
 0002:0000ae64       $chain$2$??__FvAllDevStatusData_@@YAXXZ 0000000180041e64     AebellBroadcast.obj
 0002:0000ae78       $chain$3$??__FvAllDevStatusData_@@YAXXZ 0000000180041e78     AebellBroadcast.obj
 0002:0000ae88       $chain$4$??__FvAllDevStatusData_@@YAXXZ 0000000180041e88     AebellBroadcast.obj
 0002:0000ae98       $unwind$?login@@YAXAEBV?$FunctionCallbackInfo@VValue@v8@@@v8@@@Z 0000000180041e98     AebellBroadcast.obj
 0002:0000aebc       $unwind$?startBroadcast@@YAXAEBV?$FunctionCallbackInfo@VValue@v8@@@v8@@@Z 0000000180041ebc     AebellBroadcast.obj
 0002:0000aee4       $unwind$?startCall@@YAXAEBV?$FunctionCallbackInfo@VValue@v8@@@v8@@@Z 0000000180041ee4     AebellBroadcast.obj
 0002:0000af08       $chain$0$?startCall@@YAXAEBV?$FunctionCallbackInfo@VValue@v8@@@v8@@@Z 0000000180041f08     AebellBroadcast.obj
 0002:0000af1c       $unwind$?delDevice@@YAXAEBV?$FunctionCallbackInfo@VValue@v8@@@v8@@@Z 0000000180041f1c     AebellBroadcast.obj
 0002:0000af1c       $unwind$?stopCall@@YAXAEBV?$FunctionCallbackInfo@VValue@v8@@@v8@@@Z 0000000180041f1c     AebellBroadcast.obj
 0002:0000af1c       $unwind$?stopBroadcast@@YAXAEBV?$FunctionCallbackInfo@VValue@v8@@@v8@@@Z 0000000180041f1c     AebellBroadcast.obj
 0002:0000af30       $unwind$?adjustVolume@@YAXAEBV?$FunctionCallbackInfo@VValue@v8@@@v8@@@Z 0000000180041f30     AebellBroadcast.obj
 0002:0000af50       $unwind$?addDevice@@YAXAEBV?$FunctionCallbackInfo@VValue@v8@@@v8@@@Z 0000000180041f50     AebellBroadcast.obj
 0002:0000af78       $unwind$?updateDevice@@YAXAEBV?$FunctionCallbackInfo@VValue@v8@@@v8@@@Z 0000000180041f78     AebellBroadcast.obj
 0002:0000af9c       $unwind$?uploadFile@@YAXAEBV?$FunctionCallbackInfo@VValue@v8@@@v8@@@Z 0000000180041f9c     AebellBroadcast.obj
 0002:0000afc0       $unwind$?updatePlan@@YAXAEBV?$FunctionCallbackInfo@VValue@v8@@@v8@@@Z 0000000180041fc0     AebellBroadcast.obj
 0002:0000afc0       $unwind$?addPlan@@YAXAEBV?$FunctionCallbackInfo@VValue@v8@@@v8@@@Z 0000000180041fc0     AebellBroadcast.obj
 0002:0000afd4       $chain$0$?addPlan@@YAXAEBV?$FunctionCallbackInfo@VValue@v8@@@v8@@@Z 0000000180041fd4     AebellBroadcast.obj
 0002:0000afe8       $chain$5$?addPlan@@YAXAEBV?$FunctionCallbackInfo@VValue@v8@@@v8@@@Z 0000000180041fe8     AebellBroadcast.obj
 0002:0000b00c       $chain$6$?addPlan@@YAXAEBV?$FunctionCallbackInfo@VValue@v8@@@v8@@@Z 000000018004200c     AebellBroadcast.obj
 0002:0000b020       $chain$7$?addPlan@@YAXAEBV?$FunctionCallbackInfo@VValue@v8@@@v8@@@Z 0000000180042020     AebellBroadcast.obj
 0002:0000b030       $chain$8$?addPlan@@YAXAEBV?$FunctionCallbackInfo@VValue@v8@@@v8@@@Z 0000000180042030     AebellBroadcast.obj
 0002:0000b048       $chain$9$?addPlan@@YAXAEBV?$FunctionCallbackInfo@VValue@v8@@@v8@@@Z 0000000180042048     AebellBroadcast.obj
 0002:0000b05c       $chain$10$?addPlan@@YAXAEBV?$FunctionCallbackInfo@VValue@v8@@@v8@@@Z 000000018004205c     AebellBroadcast.obj
 0002:0000b06c       $chain$0$?updatePlan@@YAXAEBV?$FunctionCallbackInfo@VValue@v8@@@v8@@@Z 000000018004206c     AebellBroadcast.obj
 0002:0000b080       $chain$5$?updatePlan@@YAXAEBV?$FunctionCallbackInfo@VValue@v8@@@v8@@@Z 0000000180042080     AebellBroadcast.obj
 0002:0000b0a4       $chain$6$?updatePlan@@YAXAEBV?$FunctionCallbackInfo@VValue@v8@@@v8@@@Z 00000001800420a4     AebellBroadcast.obj
 0002:0000b0b8       $chain$7$?updatePlan@@YAXAEBV?$FunctionCallbackInfo@VValue@v8@@@v8@@@Z 00000001800420b8     AebellBroadcast.obj
 0002:0000b0c8       $chain$8$?updatePlan@@YAXAEBV?$FunctionCallbackInfo@VValue@v8@@@v8@@@Z 00000001800420c8     AebellBroadcast.obj
 0002:0000b0e0       $chain$9$?updatePlan@@YAXAEBV?$FunctionCallbackInfo@VValue@v8@@@v8@@@Z 00000001800420e0     AebellBroadcast.obj
 0002:0000b0f4       $chain$10$?updatePlan@@YAXAEBV?$FunctionCallbackInfo@VValue@v8@@@v8@@@Z 00000001800420f4     AebellBroadcast.obj
 0002:0000b104       $unwind$?delPlan@@YAXAEBV?$FunctionCallbackInfo@VValue@v8@@@v8@@@Z 0000000180042104     AebellBroadcast.obj
 0002:0000b124       $unwind$?delSessionDev@@YAXAEBV?$FunctionCallbackInfo@VValue@v8@@@v8@@@Z 0000000180042124     AebellBroadcast.obj
 0002:0000b124       $unwind$?addSessionDev@@YAXAEBV?$FunctionCallbackInfo@VValue@v8@@@v8@@@Z 0000000180042124     AebellBroadcast.obj
 0002:0000b144       $unwind$?getTaskResponse@@YAXAEBV?$FunctionCallbackInfo@VValue@v8@@@v8@@@Z 0000000180042144     AebellBroadcast.obj
 0002:0000b158       $chain$3$?getTaskResponse@@YAXAEBV?$FunctionCallbackInfo@VValue@v8@@@v8@@@Z 0000000180042158     AebellBroadcast.obj
 0002:0000b178       $chain$4$?getTaskResponse@@YAXAEBV?$FunctionCallbackInfo@VValue@v8@@@v8@@@Z 0000000180042178     AebellBroadcast.obj
 0002:0000b18c       $chain$5$?getTaskResponse@@YAXAEBV?$FunctionCallbackInfo@VValue@v8@@@v8@@@Z 000000018004218c     AebellBroadcast.obj
 0002:0000b1a0       $chain$6$?getTaskResponse@@YAXAEBV?$FunctionCallbackInfo@VValue@v8@@@v8@@@Z 00000001800421a0     AebellBroadcast.obj
 0002:0000b1b0       $chain$7$?getTaskResponse@@YAXAEBV?$FunctionCallbackInfo@VValue@v8@@@v8@@@Z 00000001800421b0     AebellBroadcast.obj
 0002:0000b1c0       $chain$8$?getTaskResponse@@YAXAEBV?$FunctionCallbackInfo@VValue@v8@@@v8@@@Z 00000001800421c0     AebellBroadcast.obj
 0002:0000b1d0       $unwind$?getAutoDeviceStatus@@YAXAEBV?$FunctionCallbackInfo@VValue@v8@@@v8@@@Z 00000001800421d0     AebellBroadcast.obj
 0002:0000b1d0       $unwind$?getAllDeviceStatus@@YAXAEBV?$FunctionCallbackInfo@VValue@v8@@@v8@@@Z 00000001800421d0     AebellBroadcast.obj
 0002:0000b1e8       $chain$2$?getAutoDeviceStatus@@YAXAEBV?$FunctionCallbackInfo@VValue@v8@@@v8@@@Z 00000001800421e8     AebellBroadcast.obj
 0002:0000b204       $chain$3$?getAutoDeviceStatus@@YAXAEBV?$FunctionCallbackInfo@VValue@v8@@@v8@@@Z 0000000180042204     AebellBroadcast.obj
 0002:0000b218       $chain$4$?getAutoDeviceStatus@@YAXAEBV?$FunctionCallbackInfo@VValue@v8@@@v8@@@Z 0000000180042218     AebellBroadcast.obj
 0002:0000b228       $chain$5$?getAutoDeviceStatus@@YAXAEBV?$FunctionCallbackInfo@VValue@v8@@@v8@@@Z 0000000180042228     AebellBroadcast.obj
 0002:0000b238       $chain$2$?getAllDeviceStatus@@YAXAEBV?$FunctionCallbackInfo@VValue@v8@@@v8@@@Z 0000000180042238     AebellBroadcast.obj
 0002:0000b254       $chain$3$?getAllDeviceStatus@@YAXAEBV?$FunctionCallbackInfo@VValue@v8@@@v8@@@Z 0000000180042254     AebellBroadcast.obj
 0002:0000b268       $chain$4$?getAllDeviceStatus@@YAXAEBV?$FunctionCallbackInfo@VValue@v8@@@v8@@@Z 0000000180042268     AebellBroadcast.obj
 0002:0000b278       $chain$5$?getAllDeviceStatus@@YAXAEBV?$FunctionCallbackInfo@VValue@v8@@@v8@@@Z 0000000180042278     AebellBroadcast.obj
 0002:0000b288       $unwind$?QueryAllFileCB@@YAXAEBV?$vector@U_tagNetFile@@V?$allocator@U_tagNetFile@@@std@@@std@@K@Z 0000000180042288     AebellBroadcast.obj
 0002:0000b2a4       $chain$0$?QueryAllFileCB@@YAXAEBV?$vector@U_tagNetFile@@V?$allocator@U_tagNetFile@@@std@@@std@@K@Z 00000001800422a4     AebellBroadcast.obj
 0002:0000b2b8       $chain$2$?QueryAllFileCB@@YAXAEBV?$vector@U_tagNetFile@@V?$allocator@U_tagNetFile@@@std@@@std@@K@Z 00000001800422b8     AebellBroadcast.obj
 0002:0000b2d0       $chain$3$?QueryAllFileCB@@YAXAEBV?$vector@U_tagNetFile@@V?$allocator@U_tagNetFile@@@std@@@std@@K@Z 00000001800422d0     AebellBroadcast.obj
 0002:0000b2e0       $chain$4$?QueryAllFileCB@@YAXAEBV?$vector@U_tagNetFile@@V?$allocator@U_tagNetFile@@@std@@@std@@K@Z 00000001800422e0     AebellBroadcast.obj
 0002:0000b2f0       $unwind$ProcessCodePage    00000001800422f0     LIBCMT:getqloc.obj
 0002:0000b2f0       $unwind$?QueryDevStatCB_Broadcast@@YAXU_tagDeviceStatus@@K@Z 00000001800422f0     AebellBroadcast.obj
 0002:0000b2f0       $unwind$?_Erase@?$_Tree@V?$_Tmap_traits@HV?$basic_string@DU?$char_traits@D@std@@V?$allocator@D@2@@std@@U?$less@H@2@V?$allocator@U?$pair@$$CBHV?$basic_string@DU?$char_traits@D@std@@V?$allocator@D@2@@std@@@std@@@2@$0A@@std@@@std@@IEAAXPEAU?$_Tree_node@U?$pair@$$CBHV?$basic_string@DU?$char_traits@D@std@@V?$allocator@D@2@@std@@@std@@PEAX@2@@Z 00000001800422f0     AebellBusiThread.obj
 0002:0000b2f0       $unwind$?do_toupper@?$ctype@D@std@@MEBAPEBDPEADPEBD@Z 00000001800422f0     UploadFileTask.obj
 0002:0000b2f0       $unwind$?QueryDevStatCB_Call@@YAXU_tagDeviceStatus@@K@Z 00000001800422f0     AebellBroadcast.obj
 0002:0000b2f0       $unwind$??$_Umove@PEAV?$basic_string@DU?$char_traits@D@std@@V?$allocator@D@2@@std@@@?$vector@V?$basic_string@DU?$char_traits@D@std@@V?$allocator@D@2@@std@@V?$allocator@V?$basic_string@DU?$char_traits@D@std@@V?$allocator@D@2@@std@@@2@@std@@IEAAPEAV?$basic_string@DU?$char_traits@D@std@@V?$allocator@D@2@@1@PEAV21@00@Z 00000001800422f0     AebellBroadcast.obj
 0002:0000b2f0       $unwind$?_Erase@?$_Tree@V?$_Tmap_traits@V?$basic_string@DU?$char_traits@D@std@@V?$allocator@D@2@@std@@GU?$less@V?$basic_string@DU?$char_traits@D@std@@V?$allocator@D@2@@std@@@2@V?$allocator@U?$pair@$$CBV?$basic_string@DU?$char_traits@D@std@@V?$allocator@D@2@@std@@G@std@@@2@$0A@@std@@@std@@IEAAXPEAU?$_Tree_node@U?$pair@$$CBV?$basic_string@DU?$char_traits@D@std@@V?$allocator@D@2@@std@@G@std@@PEAX@2@@Z 00000001800422f0     AebellBusiThread.obj
 0002:0000b2f0       $unwind$?clear@?$vector@V?$basic_string@DU?$char_traits@D@std@@V?$allocator@D@2@@std@@V?$allocator@V?$basic_string@DU?$char_traits@D@std@@V?$allocator@D@2@@std@@@2@@std@@QEAAXXZ 00000001800422f0     AebellBroadcast.obj
 0002:0000b2f0       $unwind$?do_tolower@?$ctype@D@std@@MEBAPEBDPEADPEBD@Z 00000001800422f0     UploadFileTask.obj
 0002:0000b2f0       $unwind$?_Erase@?$_Tree@V?$_Tmap_traits@V?$basic_string@DU?$char_traits@D@std@@V?$allocator@D@2@@std@@V12@U?$less@V?$basic_string@DU?$char_traits@D@std@@V?$allocator@D@2@@std@@@2@V?$allocator@U?$pair@$$CBV?$basic_string@DU?$char_traits@D@std@@V?$allocator@D@2@@std@@V12@@std@@@2@$0A@@std@@@std@@IEAAXPEAU?$_Tree_node@U?$pair@$$CBV?$basic_string@DU?$char_traits@D@std@@V?$allocator@D@2@@std@@V12@@std@@PEAX@2@@Z 00000001800422f0     AebellBusiThread.obj
 0002:0000b2f0       $unwind$?_Erase@?$_Tree@V?$_Tmap_traits@V?$basic_string@DU?$char_traits@D@std@@V?$allocator@D@2@@std@@HU?$less@V?$basic_string@DU?$char_traits@D@std@@V?$allocator@D@2@@std@@@2@V?$allocator@U?$pair@$$CBV?$basic_string@DU?$char_traits@D@std@@V?$allocator@D@2@@std@@H@std@@@2@$0A@@std@@@std@@IEAAXPEAU?$_Tree_node@U?$pair@$$CBV?$basic_string@DU?$char_traits@D@std@@V?$allocator@D@2@@std@@H@std@@PEAX@2@@Z 00000001800422f0     AebellBusiThread.obj
 0002:0000b2f0       $unwind$?_Reallocate@?$vector@HV?$allocator@H@std@@@std@@IEAAX_K@Z 00000001800422f0     AebellBroadcast.obj
 0002:0000b2f0       $unwind$?init@?$basic_ios@DU?$char_traits@D@std@@@std@@IEAAXPEAV?$basic_streambuf@DU?$char_traits@D@std@@@2@_N@Z 00000001800422f0     UploadFileTask.obj
 0002:0000b2f0       $unwind$ProcessCodePage    00000001800422f0     LIBCMT:getqloc_downlevel.obj
 0002:0000b2f0       $unwind$?_Erase@?$_Tree@V?$_Tmap_traits@GV?$basic_string@DU?$char_traits@D@std@@V?$allocator@D@2@@std@@U?$less@G@2@V?$allocator@U?$pair@$$CBGV?$basic_string@DU?$char_traits@D@std@@V?$allocator@D@2@@std@@@std@@@2@$0A@@std@@@std@@IEAAXPEAU?$_Tree_node@U?$pair@$$CBGV?$basic_string@DU?$char_traits@D@std@@V?$allocator@D@2@@std@@@std@@PEAX@2@@Z 00000001800422f0     AebellBusiThread.obj
 0002:0000b2f0       $unwind$?removeTaskPtrByID@CAEBELLBusiThread@@QEAAX_K@Z 00000001800422f0     AebellBusiThread.obj
 0002:0000b300       $unwind$?AddDeviceCB@@YAXHK@Z 0000000180042300     AebellBroadcast.obj
 0002:0000b31c       $unwind$?TimerQueryAllDeviceStatusCB@@YAXAEBV?$vector@U_tagDeviceStatus@@V?$allocator@U_tagDeviceStatus@@@std@@@std@@K@Z 000000018004231c     AebellBroadcast.obj
 0002:0000b338       $chain$2$?TimerQueryAllDeviceStatusCB@@YAXAEBV?$vector@U_tagDeviceStatus@@V?$allocator@U_tagDeviceStatus@@@std@@@std@@K@Z 0000000180042338     AebellBroadcast.obj
 0002:0000b354       $chain$3$?TimerQueryAllDeviceStatusCB@@YAXAEBV?$vector@U_tagDeviceStatus@@V?$allocator@U_tagDeviceStatus@@@std@@@std@@K@Z 0000000180042354     AebellBroadcast.obj
 0002:0000b364       $unwind$?AutoGetDeviceStatusCB@@YAXAEBV?$vector@U_tagDeviceStatus@@V?$allocator@U_tagDeviceStatus@@@std@@@std@@K@Z 0000000180042364     AebellBroadcast.obj
 0002:0000b384       $chain$1$?AutoGetDeviceStatusCB@@YAXAEBV?$vector@U_tagDeviceStatus@@V?$allocator@U_tagDeviceStatus@@@std@@@std@@K@Z 0000000180042384     AebellBroadcast.obj
 0002:0000b39c       $chain$2$?AutoGetDeviceStatusCB@@YAXAEBV?$vector@U_tagDeviceStatus@@V?$allocator@U_tagDeviceStatus@@@std@@@std@@K@Z 000000018004239c     AebellBroadcast.obj
 0002:0000b3ac       $unwind$?OnPolicyStatusCB@@YAXU_tagPolicyStatus@@K@Z 00000001800423ac     AebellBroadcast.obj
 0002:0000b3bc       $unwind$?getUtf8String@@YA?AV?$basic_string@DU?$char_traits@D@std@@V?$allocator@D@2@@std@@PEBD@Z 00000001800423bc     AebellBroadcast.obj
 0002:0000b3d4       $unwind$?GenerateGUID@@YA?AV?$basic_string@DU?$char_traits@D@std@@V?$allocator@D@2@@std@@XZ 00000001800423d4     AebellBroadcast.obj
 0002:0000b3e8       $chain$2$?GenerateGUID@@YA?AV?$basic_string@DU?$char_traits@D@std@@V?$allocator@D@2@@std@@XZ 00000001800423e8     AebellBroadcast.obj
 0002:0000b404       $chain$3$?GenerateGUID@@YA?AV?$basic_string@DU?$char_traits@D@std@@V?$allocator@D@2@@std@@XZ 0000000180042404     AebellBroadcast.obj
 0002:0000b414       $unwind$?RegisterModule@@YAXV?$Local@VObject@v8@@@v8@@@Z 0000000180042414     AebellBroadcast.obj
 0002:0000b41c       $chain$0$?clear@?$vector@V?$basic_string@DU?$char_traits@D@std@@V?$allocator@D@2@@std@@V?$allocator@V?$basic_string@DU?$char_traits@D@std@@V?$allocator@D@2@@std@@@2@@std@@QEAAXXZ 000000018004241c     AebellBroadcast.obj
 0002:0000b430       $chain$1$?clear@?$vector@V?$basic_string@DU?$char_traits@D@std@@V?$allocator@D@2@@std@@V?$allocator@V?$basic_string@DU?$char_traits@D@std@@V?$allocator@D@2@@std@@@2@@std@@QEAAXXZ 0000000180042430     AebellBroadcast.obj
 0002:0000b440       $unwind$?clear@?$vector@UFileInfo@@V?$allocator@UFileInfo@@@std@@@std@@QEAAXXZ 0000000180042440     AebellBroadcast.obj
 0002:0000b450       $chain$1$?clear@?$vector@UFileInfo@@V?$allocator@UFileInfo@@@std@@@std@@QEAAXXZ 0000000180042450     AebellBroadcast.obj
 0002:0000b468       $chain$2$?clear@?$vector@UFileInfo@@V?$allocator@UFileInfo@@@std@@@std@@QEAAXXZ 0000000180042468     AebellBroadcast.obj
 0002:0000b478       $unwind$??4ResTaskInfo@@QEAAAEAU0@AEBU0@@Z 0000000180042478     BroadcastTask.obj
 0002:0000b478       $unwind$?_Tidy@?$vector@V?$basic_string@DU?$char_traits@D@std@@V?$allocator@D@2@@std@@V?$allocator@V?$basic_string@DU?$char_traits@D@std@@V?$allocator@D@2@@std@@@2@@std@@IEAAXXZ 0000000180042478     AebellBroadcast.obj
 0002:0000b484       $chain$1$?_Tidy@?$vector@V?$basic_string@DU?$char_traits@D@std@@V?$allocator@D@2@@std@@V?$allocator@V?$basic_string@DU?$char_traits@D@std@@V?$allocator@D@2@@std@@@2@@std@@IEAAXXZ 0000000180042484     AebellBroadcast.obj
 0002:0000b49c       $chain$2$?_Tidy@?$vector@V?$basic_string@DU?$char_traits@D@std@@V?$allocator@D@2@@std@@V?$allocator@V?$basic_string@DU?$char_traits@D@std@@V?$allocator@D@2@@std@@@2@@std@@IEAAXXZ 000000018004249c     AebellBroadcast.obj
 0002:0000b4ac       $unwind$?_Destroy@?$vector@UFileInfo@@V?$allocator@UFileInfo@@@std@@@std@@IEAAXPEAUFileInfo@@0@Z 00000001800424ac     AebellBroadcast.obj
 0002:0000b4b4       $chain$1$?_Destroy@?$vector@UFileInfo@@V?$allocator@UFileInfo@@@std@@@std@@IEAAXPEAUFileInfo@@0@Z 00000001800424b4     AebellBroadcast.obj
 0002:0000b4cc       $chain$2$?_Destroy@?$vector@UFileInfo@@V?$allocator@UFileInfo@@@std@@@std@@IEAAXPEAUFileInfo@@0@Z 00000001800424cc     AebellBroadcast.obj
 0002:0000b4dc       $unwind$?_Tidy@?$vector@UFileInfo@@V?$allocator@UFileInfo@@@std@@@std@@IEAAXXZ 00000001800424dc     AebellBroadcast.obj
 0002:0000b4e8       $chain$1$?_Tidy@?$vector@UFileInfo@@V?$allocator@UFileInfo@@@std@@@std@@IEAAXXZ 00000001800424e8     AebellBroadcast.obj
 0002:0000b500       $chain$2$?_Tidy@?$vector@UFileInfo@@V?$allocator@UFileInfo@@@std@@@std@@IEAAXXZ 0000000180042500     AebellBroadcast.obj
 0002:0000b514       $chain$3$?_Tidy@?$vector@UFileInfo@@V?$allocator@UFileInfo@@@std@@@std@@IEAAXXZ 0000000180042514     AebellBroadcast.obj
 0002:0000b524       $chain$4$?_Tidy@?$vector@UFileInfo@@V?$allocator@UFileInfo@@@std@@@std@@IEAAXXZ 0000000180042524     AebellBroadcast.obj
 0002:0000b534       $unwind$?_Reallocate@?$vector@UDeviceStatusInfo@@V?$allocator@UDeviceStatusInfo@@@std@@@std@@IEAAX_K@Z 0000000180042534     AebellBroadcast.obj
 0002:0000b534       $unwind$?_Reallocate@?$vector@V?$basic_string@DU?$char_traits@D@std@@V?$allocator@D@2@@std@@V?$allocator@V?$basic_string@DU?$char_traits@D@std@@V?$allocator@D@2@@std@@@2@@std@@IEAAX_K@Z 0000000180042534     AebellBroadcast.obj
 0002:0000b544       $chain$2$?_Reallocate@?$vector@V?$basic_string@DU?$char_traits@D@std@@V?$allocator@D@2@@std@@V?$allocator@V?$basic_string@DU?$char_traits@D@std@@V?$allocator@D@2@@std@@@2@@std@@IEAAX_K@Z 0000000180042544     AebellBroadcast.obj
 0002:0000b560       $chain$3$?_Reallocate@?$vector@V?$basic_string@DU?$char_traits@D@std@@V?$allocator@D@2@@std@@V?$allocator@V?$basic_string@DU?$char_traits@D@std@@V?$allocator@D@2@@std@@@2@@std@@IEAAX_K@Z 0000000180042560     AebellBroadcast.obj
 0002:0000b570       $chain$0$?_Reallocate@?$vector@HV?$allocator@H@std@@@std@@IEAAX_K@Z 0000000180042570     AebellBroadcast.obj
 0002:0000b584       $chain$1$?_Reallocate@?$vector@HV?$allocator@H@std@@@std@@IEAAX_K@Z 0000000180042584     AebellBroadcast.obj
 0002:0000b594       $unwind$?_Reallocate@?$vector@UTimerTaskInfo@@V?$allocator@UTimerTaskInfo@@@std@@@std@@IEAAX_K@Z 0000000180042594     AebellBroadcast.obj
 0002:0000b5a0       $chain$2$?_Reallocate@?$vector@UTimerTaskInfo@@V?$allocator@UTimerTaskInfo@@@std@@@std@@IEAAX_K@Z 00000001800425a0     AebellBroadcast.obj
 0002:0000b5bc       $chain$3$?_Reallocate@?$vector@UTimerTaskInfo@@V?$allocator@UTimerTaskInfo@@@std@@@std@@IEAAX_K@Z 00000001800425bc     AebellBroadcast.obj
 0002:0000b5cc       $unwind$?_Reallocate@?$vector@UFileInfo@@V?$allocator@UFileInfo@@@std@@@std@@IEAAX_K@Z 00000001800425cc     AebellBroadcast.obj
 0002:0000b5dc       $chain$2$?_Reallocate@?$vector@UFileInfo@@V?$allocator@UFileInfo@@@std@@@std@@IEAAX_K@Z 00000001800425dc     AebellBroadcast.obj
 0002:0000b5f8       $chain$3$?_Reallocate@?$vector@UFileInfo@@V?$allocator@UFileInfo@@@std@@@std@@IEAAX_K@Z 00000001800425f8     AebellBroadcast.obj
 0002:0000b60c       $chain$4$?_Reallocate@?$vector@UFileInfo@@V?$allocator@UFileInfo@@@std@@@std@@IEAAX_K@Z 000000018004260c     AebellBroadcast.obj
 0002:0000b61c       $chain$5$?_Reallocate@?$vector@UFileInfo@@V?$allocator@UFileInfo@@@std@@@std@@IEAAX_K@Z 000000018004261c     AebellBroadcast.obj
 0002:0000b62c       $chain$2$?_Reallocate@?$vector@UDeviceStatusInfo@@V?$allocator@UDeviceStatusInfo@@@std@@@std@@IEAAX_K@Z 000000018004262c     AebellBroadcast.obj
 0002:0000b648       $chain$3$?_Reallocate@?$vector@UDeviceStatusInfo@@V?$allocator@UDeviceStatusInfo@@@std@@@std@@IEAAX_K@Z 0000000180042648     AebellBroadcast.obj
 0002:0000b658       $unwind$??$_snprintf_s@$0EA@@@YAHAEAY0EA@D_KPEBDZZ 0000000180042658     AebellBroadcast.obj
 0002:0000b660       $chain$0$??$_Umove@PEAV?$basic_string@DU?$char_traits@D@std@@V?$allocator@D@2@@std@@@?$vector@V?$basic_string@DU?$char_traits@D@std@@V?$allocator@D@2@@std@@V?$allocator@V?$basic_string@DU?$char_traits@D@std@@V?$allocator@D@2@@std@@@2@@std@@IEAAPEAV?$basic_string@DU?$char_traits@D@std@@V?$allocator@D@2@@1@PEAV21@00@Z 0000000180042660     AebellBroadcast.obj
 0002:0000b674       $chain$1$??$_Umove@PEAV?$basic_string@DU?$char_traits@D@std@@V?$allocator@D@2@@std@@@?$vector@V?$basic_string@DU?$char_traits@D@std@@V?$allocator@D@2@@std@@V?$allocator@V?$basic_string@DU?$char_traits@D@std@@V?$allocator@D@2@@std@@@2@@std@@IEAAPEAV?$basic_string@DU?$char_traits@D@std@@V?$allocator@D@2@@1@PEAV21@00@Z 0000000180042674     AebellBroadcast.obj
 0002:0000b684       $unwind$??$_Umove@PEAUDeviceStatusInfo@@@?$vector@UDeviceStatusInfo@@V?$allocator@UDeviceStatusInfo@@@std@@@std@@IEAAPEAUDeviceStatusInfo@@PEAU2@00@Z 0000000180042684     AebellBroadcast.obj
 0002:0000b684       $unwind$??$_Umove@PEAUFileInfo@@@?$vector@UFileInfo@@V?$allocator@UFileInfo@@@std@@@std@@IEAAPEAUFileInfo@@PEAU2@00@Z 0000000180042684     AebellBroadcast.obj
 0002:0000b684       $unwind$??$_Ucopy@PEAUFileInfo@@@?$vector@UFileInfo@@V?$allocator@UFileInfo@@@std@@@std@@IEAAPEAUFileInfo@@PEAU2@00@Z 0000000180042684     AebellBusiThread.obj
 0002:0000b690       $chain$2$??$_Umove@PEAUFileInfo@@@?$vector@UFileInfo@@V?$allocator@UFileInfo@@@std@@@std@@IEAAPEAUFileInfo@@PEAU2@00@Z 0000000180042690     AebellBroadcast.obj
 0002:0000b690       $chain$2$??$_Ucopy@PEAUFileInfo@@@?$vector@UFileInfo@@V?$allocator@UFileInfo@@@std@@@std@@IEAAPEAUFileInfo@@PEAU2@00@Z 0000000180042690     AebellBusiThread.obj
 0002:0000b6ac       $chain$3$??$_Umove@PEAUFileInfo@@@?$vector@UFileInfo@@V?$allocator@UFileInfo@@@std@@@std@@IEAAPEAUFileInfo@@PEAU2@00@Z 00000001800426ac     AebellBroadcast.obj
 0002:0000b6ac       $chain$3$??$_Ucopy@PEAUFileInfo@@@?$vector@UFileInfo@@V?$allocator@UFileInfo@@@std@@@std@@IEAAPEAUFileInfo@@PEAU2@00@Z 00000001800426ac     AebellBusiThread.obj
 0002:0000b6bc       $chain$2$??$_Umove@PEAUDeviceStatusInfo@@@?$vector@UDeviceStatusInfo@@V?$allocator@UDeviceStatusInfo@@@std@@@std@@IEAAPEAUDeviceStatusInfo@@PEAU2@00@Z 00000001800426bc     AebellBroadcast.obj
 0002:0000b6d8       $chain$3$??$_Umove@PEAUDeviceStatusInfo@@@?$vector@UDeviceStatusInfo@@V?$allocator@UDeviceStatusInfo@@@std@@@std@@IEAAPEAUDeviceStatusInfo@@PEAU2@00@Z 00000001800426d8     AebellBroadcast.obj
 0002:0000b6e8       $unwind$?PopTask@CTaskQueue@@QEAA?AV?$shared_ptr@VCBroadcastTask@@@std@@K@Z 00000001800426e8     TaskQueue.obj
 0002:0000b6f4       $chain$1$?PopTask@CTaskQueue@@QEAA?AV?$shared_ptr@VCBroadcastTask@@@std@@K@Z 00000001800426f4     TaskQueue.obj
 0002:0000b70c       $chain$2$?PopTask@CTaskQueue@@QEAA?AV?$shared_ptr@VCBroadcastTask@@@std@@K@Z 000000018004270c     TaskQueue.obj
 0002:0000b720       $chain$3$?PopTask@CTaskQueue@@QEAA?AV?$shared_ptr@VCBroadcastTask@@@std@@K@Z 0000000180042720     TaskQueue.obj
 0002:0000b730       $chain$4$?PopTask@CTaskQueue@@QEAA?AV?$shared_ptr@VCBroadcastTask@@@std@@K@Z 0000000180042730     TaskQueue.obj
 0002:0000b740       $unwind$?clear@?$list@V?$shared_ptr@VCUploadFileTask@@@std@@V?$allocator@V?$shared_ptr@VCUploadFileTask@@@std@@@2@@std@@QEAAXXZ 0000000180042740     AebellUploadThread.obj
 0002:0000b740       $unwind$?clear@?$list@V?$shared_ptr@VCBroadcastTask@@@std@@V?$allocator@V?$shared_ptr@VCBroadcastTask@@@std@@@2@@std@@QEAAXXZ 0000000180042740     TaskQueue.obj
 0002:0000b74c       $chain$1$?clear@?$list@V?$shared_ptr@VCUploadFileTask@@@std@@V?$allocator@V?$shared_ptr@VCUploadFileTask@@@std@@@2@@std@@QEAAXXZ 000000018004274c     AebellUploadThread.obj
 0002:0000b74c       $chain$1$?clear@?$list@V?$shared_ptr@VCBroadcastTask@@@std@@V?$allocator@V?$shared_ptr@VCBroadcastTask@@@std@@@2@@std@@QEAAXXZ 000000018004274c     TaskQueue.obj
 0002:0000b764       $chain$2$?clear@?$list@V?$shared_ptr@VCUploadFileTask@@@std@@V?$allocator@V?$shared_ptr@VCUploadFileTask@@@std@@@2@@std@@QEAAXXZ 0000000180042764     AebellUploadThread.obj
 0002:0000b764       $chain$2$?clear@?$list@V?$shared_ptr@VCBroadcastTask@@@std@@V?$allocator@V?$shared_ptr@VCBroadcastTask@@@std@@@2@@std@@QEAAXXZ 0000000180042764     TaskQueue.obj
 0002:0000b774       $unwind$??4?$shared_ptr@VCBroadcastTask@@@std@@QEAAAEAV01@AEBV01@@Z 0000000180042774     TaskQueue.obj
 0002:0000b774       $unwind$??4?$shared_ptr@VCUploadFileTask@@@std@@QEAAAEAV01@AEBV01@@Z 0000000180042774     AebellUploadThread.obj
 0002:0000b77c       $chain$0$??4?$shared_ptr@VCBroadcastTask@@@std@@QEAAAEAV01@AEBV01@@Z 000000018004277c     TaskQueue.obj
 0002:0000b77c       $chain$0$??4?$shared_ptr@VCUploadFileTask@@@std@@QEAAAEAV01@AEBV01@@Z 000000018004277c     AebellUploadThread.obj
 0002:0000b790       $chain$1$??4?$shared_ptr@VCUploadFileTask@@@std@@QEAAAEAV01@AEBV01@@Z 0000000180042790     AebellUploadThread.obj
 0002:0000b790       $chain$1$??4?$shared_ptr@VCBroadcastTask@@@std@@QEAAAEAV01@AEBV01@@Z 0000000180042790     TaskQueue.obj
 0002:0000b7a4       $chain$2$??4?$shared_ptr@VCUploadFileTask@@@std@@QEAAAEAV01@AEBV01@@Z 00000001800427a4     AebellUploadThread.obj
 0002:0000b7a4       $chain$2$??4?$shared_ptr@VCBroadcastTask@@@std@@QEAAAEAV01@AEBV01@@Z 00000001800427a4     TaskQueue.obj
 0002:0000b7b4       $chain$3$??4?$shared_ptr@VCUploadFileTask@@@std@@QEAAAEAV01@AEBV01@@Z 00000001800427b4     AebellUploadThread.obj
 0002:0000b7b4       $chain$3$??4?$shared_ptr@VCBroadcastTask@@@std@@QEAAAEAV01@AEBV01@@Z 00000001800427b4     TaskQueue.obj
 0002:0000b7c4       $unwind$?GetSessionIDByPhoneNum@CAEBELLBusiThread@@AEAAGG@Z 00000001800427c4     AebellBusiThread.obj
 0002:0000b7c4       $unwind$?_Reset0@?$_Ptr_base@VCUploadFileTask@@@std@@QEAAXPEAVCUploadFileTask@@PEAV_Ref_count_base@2@@Z 00000001800427c4     AebellBusiThread.obj
 0002:0000b7c4       $unwind$TestDefaultLanguage 00000001800427c4     LIBCMT:getqloc_downlevel.obj
 0002:0000b7c4       $unwind$?_Reset0@?$_Ptr_base@VCBroadcastTask@@@std@@QEAAXPEAVCBroadcastTask@@PEAV_Ref_count_base@2@@Z 00000001800427c4     TaskQueue.obj
 0002:0000b7d8       $chain$0$?_Reset0@?$_Ptr_base@VCBroadcastTask@@@std@@QEAAXPEAVCBroadcastTask@@PEAV_Ref_count_base@2@@Z 00000001800427d8     TaskQueue.obj
 0002:0000b7d8       $chain$0$?_Reset0@?$_Ptr_base@VCUploadFileTask@@@std@@QEAAXPEAVCUploadFileTask@@PEAV_Ref_count_base@2@@Z 00000001800427d8     AebellBusiThread.obj
 0002:0000b7ec       $chain$1$?_Reset0@?$_Ptr_base@VCBroadcastTask@@@std@@QEAAXPEAVCBroadcastTask@@PEAV_Ref_count_base@2@@Z 00000001800427ec     TaskQueue.obj
 0002:0000b7ec       $chain$3$?_Reset0@?$_Ptr_base@VCUploadFileTask@@@std@@QEAAXPEAVCUploadFileTask@@PEAV_Ref_count_base@2@@Z 00000001800427ec     AebellBusiThread.obj
 0002:0000b7ec       $chain$1$?_Reset0@?$_Ptr_base@VCUploadFileTask@@@std@@QEAAXPEAVCUploadFileTask@@PEAV_Ref_count_base@2@@Z 00000001800427ec     AebellBusiThread.obj
 0002:0000b7ec       $chain$3$?_Reset0@?$_Ptr_base@VCBroadcastTask@@@std@@QEAAXPEAVCBroadcastTask@@PEAV_Ref_count_base@2@@Z 00000001800427ec     TaskQueue.obj
 0002:0000b7fc       $chain$2$?_Reset0@?$_Ptr_base@VCBroadcastTask@@@std@@QEAAXPEAVCBroadcastTask@@PEAV_Ref_count_base@2@@Z 00000001800427fc     TaskQueue.obj
 0002:0000b7fc       $chain$2$?_Reset0@?$_Ptr_base@VCUploadFileTask@@@std@@QEAAXPEAVCUploadFileTask@@PEAV_Ref_count_base@2@@Z 00000001800427fc     AebellBusiThread.obj
 0002:0000b810       $unwind$_wcstombs_s_l      0000000180042810     LIBCMT:wcstombs.obj
 0002:0000b810       $unwind$??$_Buynode@AEBV?$shared_ptr@VCBroadcastTask@@@std@@@?$_List_buy@V?$shared_ptr@VCBroadcastTask@@@std@@V?$allocator@V?$shared_ptr@VCBroadcastTask@@@std@@@2@@std@@QEAAPEAU?$_List_node@V?$shared_ptr@VCBroadcastTask@@@std@@PEAX@1@PEAU21@0AEBV?$shared_ptr@VCBroadcastTask@@@1@@Z 0000000180042810     TaskQueue.obj
 0002:0000b810       $unwind$??4?$vector@UFileInfo@@V?$allocator@UFileInfo@@@std@@@std@@QEAAAEAV01@AEBV01@@Z 0000000180042810     AebellBusiThread.obj
 0002:0000b810       $unwind$_set_osfhnd        0000000180042810     LIBCMT:osfinfo.obj
 0002:0000b810       $unwind$??$_Buynode@AEBV?$shared_ptr@VCUploadFileTask@@@std@@@?$_List_buy@V?$shared_ptr@VCUploadFileTask@@@std@@V?$allocator@V?$shared_ptr@VCUploadFileTask@@@std@@@2@@std@@QEAAPEAU?$_List_node@V?$shared_ptr@VCUploadFileTask@@@std@@PEAX@1@PEAU21@0AEBV?$shared_ptr@VCUploadFileTask@@@1@@Z 0000000180042810     AebellUploadThread.obj
 0002:0000b824       $unwind$??4BroadcastOperInfo@@QEAAAEAU0@AEBU0@@Z 0000000180042824     BroadcastTask.obj
 0002:0000b844       $chain$0$??4BroadcastOperInfo@@QEAAAEAU0@AEBU0@@Z 0000000180042844     BroadcastTask.obj
 0002:0000b858       $unwind$??4CallOperInfo@@QEAAAEAU0@AEBU0@@Z 0000000180042858     BroadcastTask.obj
 0002:0000b870       $chain$1$??4CallOperInfo@@QEAAAEAU0@AEBU0@@Z 0000000180042870     BroadcastTask.obj
 0002:0000b888       $chain$2$??4CallOperInfo@@QEAAAEAU0@AEBU0@@Z 0000000180042888     BroadcastTask.obj
 0002:0000b898       $unwind$??4AddUpdPlanOperInfo@@QEAAAEAU0@AEBU0@@Z 0000000180042898     BroadcastTask.obj
 0002:0000b8b4       $chain$1$??4AddUpdPlanOperInfo@@QEAAAEAU0@AEBU0@@Z 00000001800428b4     BroadcastTask.obj
 0002:0000b8cc       $chain$2$??4AddUpdPlanOperInfo@@QEAAAEAU0@AEBU0@@Z 00000001800428cc     BroadcastTask.obj
 0002:0000b8dc       $unwind$??4ReqTaskInfo@@QEAAAEAU0@AEBU0@@Z 00000001800428dc     BroadcastTask.obj
 0002:0000b8e8       $chain$2$??4ReqTaskInfo@@QEAAAEAU0@AEBU0@@Z 00000001800428e8     BroadcastTask.obj
 0002:0000b904       $chain$3$??4ReqTaskInfo@@QEAAAEAU0@AEBU0@@Z 0000000180042904     BroadcastTask.obj
 0002:0000b91c       $chain$4$??4ReqTaskInfo@@QEAAAEAU0@AEBU0@@Z 000000018004291c     BroadcastTask.obj
 0002:0000b930       $chain$5$??4ReqTaskInfo@@QEAAAEAU0@AEBU0@@Z 0000000180042930     BroadcastTask.obj
 0002:0000b940       $unwind$_cfltcvt_l         0000000180042940     LIBCMT:cvt.obj
 0002:0000b940       $unwind$_sopen_s           0000000180042940     LIBCMT:open.obj
 0002:0000b940       $unwind$_strtoi64          0000000180042940     LIBCMT:strtoq.obj
 0002:0000b940       $unwind$_wsopen_s          0000000180042940     LIBCMT:wopen.obj
 0002:0000b940       $unwind$?_Doraise@failure@ios_base@std@@MEBAXXZ 0000000180042940     UploadFileTask.obj
 0002:0000b940       $unwind$_vsnprintf_s       0000000180042940     LIBCMT:vsnprnc.obj
 0002:0000b940       $unwind$wctomb_s           0000000180042940     LIBCMT:wctomb.obj
 0002:0000b940       $unwind$_invalid_parameter_noinfo 0000000180042940     LIBCMT:invarg.obj
 0002:0000b940       $unwind$?_Doraise@runtime_error@std@@MEBAXXZ 0000000180042940     UploadFileTask.obj
 0002:0000b940       $unwind$mbstowcs_s         0000000180042940     LIBCMT:mbstowcs.obj
 0002:0000b940       $unwind$_itow_s            0000000180042940     LIBCMT:xtows.obj
 0002:0000b948       $unwind$_stricmp_l         0000000180042948     LIBCMT:stricmp.obj
 0002:0000b948       $unwind$?x_ismbbtype_l@@YAHPEAUlocaleinfo_struct@@IHH@Z 0000000180042948     LIBCMT:ismbbyte.obj
 0002:0000b948       $unwind$??0_Locinfo@std@@QEAA@PEBD@Z 0000000180042948     UploadFileTask.obj
 0002:0000b958       $unwind$?_Getcat@?$ctype@D@std@@SA_KPEAPEBVfacet@locale@2@PEBV42@@Z 0000000180042958     UploadFileTask.obj
 0002:0000b96c       $chain$0$?_Getcat@?$ctype@D@std@@SA_KPEAPEBVfacet@locale@2@PEBV42@@Z 000000018004296c     UploadFileTask.obj
 0002:0000b980       $chain$1$?_Getcat@?$ctype@D@std@@SA_KPEAPEBVfacet@locale@2@PEBV42@@Z 0000000180042980     UploadFileTask.obj
 0002:0000b990       $chain$0$?do_tolower@?$ctype@D@std@@MEBAPEBDPEADPEBD@Z 0000000180042990     UploadFileTask.obj
 0002:0000b9a4       $chain$1$?do_tolower@?$ctype@D@std@@MEBAPEBDPEADPEBD@Z 00000001800429a4     UploadFileTask.obj
 0002:0000b9b4       $chain$0$?do_toupper@?$ctype@D@std@@MEBAPEBDPEADPEBD@Z 00000001800429b4     UploadFileTask.obj
 0002:0000b9c8       $chain$1$?do_toupper@?$ctype@D@std@@MEBAPEBDPEADPEBD@Z 00000001800429c8     UploadFileTask.obj
 0002:0000b9d8       $unwind$??0_System_error@std@@IEAA@Verror_code@1@AEBV?$basic_string@DU?$char_traits@D@std@@V?$allocator@D@2@@1@@Z 00000001800429d8     UploadFileTask.obj
 0002:0000b9f4       $unwind$?clear@ios_base@std@@QEAAXH_N@Z 00000001800429f4     UploadFileTask.obj
 0002:0000ba08       $chain$0$?clear@ios_base@std@@QEAAXH_N@Z 0000000180042a08     UploadFileTask.obj
 0002:0000ba1c       $chain$1$?clear@ios_base@std@@QEAAXH_N@Z 0000000180042a1c     UploadFileTask.obj
 0002:0000ba2c       $chain$2$?clear@ios_base@std@@QEAAXH_N@Z 0000000180042a2c     UploadFileTask.obj
 0002:0000ba40       $chain$1$??__FvAutoPushData_@@YAXXZ 0000000180042a40     UploadFileTask.obj
 0002:0000ba58       $chain$2$??__FvAutoPushData_@@YAXXZ 0000000180042a58     UploadFileTask.obj
 0002:0000ba6c       $chain$3$??__FvAutoPushData_@@YAXXZ 0000000180042a6c     UploadFileTask.obj
 0002:0000ba7c       $chain$4$??__FvAutoPushData_@@YAXXZ 0000000180042a7c     UploadFileTask.obj
 0002:0000ba8c       $chain$1$??__FvAllDevStatusData_@@YAXXZ 0000000180042a8c     UploadFileTask.obj
 0002:0000baa4       $chain$2$??__FvAllDevStatusData_@@YAXXZ 0000000180042aa4     UploadFileTask.obj
 0002:0000bab8       $chain$3$??__FvAllDevStatusData_@@YAXXZ 0000000180042ab8     UploadFileTask.obj
 0002:0000bac8       $chain$4$??__FvAllDevStatusData_@@YAXXZ 0000000180042ac8     UploadFileTask.obj
 0002:0000bad8       $unwind$?DealUploadFileTask@CUploadFileTask@@AEAAXXZ 0000000180042ad8     UploadFileTask.obj
 0002:0000baf8       $chain$0$?DealUploadFileTask@CUploadFileTask@@AEAAXXZ 0000000180042af8     UploadFileTask.obj
 0002:0000bb0c       $chain$1$?DealUploadFileTask@CUploadFileTask@@AEAAXXZ 0000000180042b0c     UploadFileTask.obj
 0002:0000bb20       $chain$2$?DealUploadFileTask@CUploadFileTask@@AEAAXXZ 0000000180042b20     UploadFileTask.obj
 0002:0000bb30       $chain$3$?DealUploadFileTask@CUploadFileTask@@AEAAXXZ 0000000180042b30     UploadFileTask.obj
 0002:0000bb40       $unwind$?GetUploadSession@CUploadFileTask@@AEAAXXZ 0000000180042b40     UploadFileTask.obj
 0002:0000bb54       $chain$0$?GetUploadSession@CUploadFileTask@@AEAAXXZ 0000000180042b54     UploadFileTask.obj
 0002:0000bb68       $chain$1$?GetUploadSession@CUploadFileTask@@AEAAXXZ 0000000180042b68     UploadFileTask.obj
 0002:0000bb7c       $chain$5$?GetUploadSession@CUploadFileTask@@AEAAXXZ 0000000180042b7c     UploadFileTask.obj
 0002:0000bb9c       $chain$6$?GetUploadSession@CUploadFileTask@@AEAAXXZ 0000000180042b9c     UploadFileTask.obj
 0002:0000bbb0       $chain$7$?GetUploadSession@CUploadFileTask@@AEAAXXZ 0000000180042bb0     UploadFileTask.obj
 0002:0000bbc4       $chain$8$?GetUploadSession@CUploadFileTask@@AEAAXXZ 0000000180042bc4     UploadFileTask.obj
 0002:0000bbd4       $chain$9$?GetUploadSession@CUploadFileTask@@AEAAXXZ 0000000180042bd4     UploadFileTask.obj
 0002:0000bbe4       $unwind$?onUploadTaskEnd@CUploadFileTask@@QEAAX_N@Z 0000000180042be4     UploadFileTask.obj
 0002:0000bbfc       $chain$2$?onUploadTaskEnd@CUploadFileTask@@QEAAX_N@Z 0000000180042bfc     UploadFileTask.obj
 0002:0000bc18       $chain$3$?onUploadTaskEnd@CUploadFileTask@@QEAAX_N@Z 0000000180042c18     UploadFileTask.obj
 0002:0000bc2c       $chain$4$?onUploadTaskEnd@CUploadFileTask@@QEAAX_N@Z 0000000180042c2c     UploadFileTask.obj
 0002:0000bc3c       $unwind$?seekg@?$basic_istream@DU?$char_traits@D@std@@@std@@QEAAAEAV12@_JH@Z 0000000180042c3c     UploadFileTask.obj
 0002:0000bc48       $unwind$?xsgetn@?$basic_streambuf@DU?$char_traits@D@std@@@std@@MEAA_JPEAD_J@Z 0000000180042c48     UploadFileTask.obj
 0002:0000bc48       $unwind$?xsputn@?$basic_streambuf@DU?$char_traits@D@std@@@std@@MEAA_JPEBD_J@Z 0000000180042c48     UploadFileTask.obj
 0002:0000bc5c       $chain$0$?xsgetn@?$basic_streambuf@DU?$char_traits@D@std@@@std@@MEAA_JPEAD_J@Z 0000000180042c5c     UploadFileTask.obj
 0002:0000bc70       $chain$1$?xsgetn@?$basic_streambuf@DU?$char_traits@D@std@@@std@@MEAA_JPEAD_J@Z 0000000180042c70     UploadFileTask.obj
 0002:0000bc80       $chain$0$?xsputn@?$basic_streambuf@DU?$char_traits@D@std@@@std@@MEAA_JPEBD_J@Z 0000000180042c80     UploadFileTask.obj
 0002:0000bc94       $chain$1$?xsputn@?$basic_streambuf@DU?$char_traits@D@std@@@std@@MEAA_JPEBD_J@Z 0000000180042c94     UploadFileTask.obj
 0002:0000bca4       $unwind$?overflow@?$basic_filebuf@DU?$char_traits@D@std@@@std@@MEAAHH@Z 0000000180042ca4     UploadFileTask.obj
 0002:0000bcbc       $chain$0$?overflow@?$basic_filebuf@DU?$char_traits@D@std@@@std@@MEAAHH@Z 0000000180042cbc     UploadFileTask.obj
 0002:0000bcd0       $chain$3$?overflow@?$basic_filebuf@DU?$char_traits@D@std@@@std@@MEAAHH@Z 0000000180042cd0     UploadFileTask.obj
 0002:0000bcec       $chain$4$?overflow@?$basic_filebuf@DU?$char_traits@D@std@@@std@@MEAAHH@Z 0000000180042cec     UploadFileTask.obj
 0002:0000bcfc       $chain$5$?overflow@?$basic_filebuf@DU?$char_traits@D@std@@@std@@MEAAHH@Z 0000000180042cfc     UploadFileTask.obj
 0002:0000bd0c       $chain$6$?overflow@?$basic_filebuf@DU?$char_traits@D@std@@@std@@MEAAHH@Z 0000000180042d0c     UploadFileTask.obj
 0002:0000bd2c       $chain$0$?underflow@?$basic_filebuf@DU?$char_traits@D@std@@@std@@MEAAHXZ 0000000180042d2c     UploadFileTask.obj
 0002:0000bd40       $chain$2$?underflow@?$basic_filebuf@DU?$char_traits@D@std@@@std@@MEAAHXZ 0000000180042d40     UploadFileTask.obj
 0002:0000bd54       $unwind$?uflow@?$basic_filebuf@DU?$char_traits@D@std@@@std@@MEAAHXZ 0000000180042d54     UploadFileTask.obj
 0002:0000bd68       $chain$0$?uflow@?$basic_filebuf@DU?$char_traits@D@std@@@std@@MEAAHXZ 0000000180042d68     UploadFileTask.obj
 0002:0000bd7c       $chain$3$?uflow@?$basic_filebuf@DU?$char_traits@D@std@@@std@@MEAAHXZ 0000000180042d7c     UploadFileTask.obj
 0002:0000bd98       $chain$4$?uflow@?$basic_filebuf@DU?$char_traits@D@std@@@std@@MEAAHXZ 0000000180042d98     UploadFileTask.obj
 0002:0000bda8       $chain$5$?uflow@?$basic_filebuf@DU?$char_traits@D@std@@@std@@MEAAHXZ 0000000180042da8     UploadFileTask.obj
 0002:0000bdb8       $chain$6$?uflow@?$basic_filebuf@DU?$char_traits@D@std@@@std@@MEAAHXZ 0000000180042db8     UploadFileTask.obj
 0002:0000bdd8       $unwind$?seekoff@?$basic_filebuf@DU?$char_traits@D@std@@@std@@MEAA?AV?$fpos@H@2@_JHH@Z 0000000180042dd8     UploadFileTask.obj
 0002:0000bdd8       $unwind$?GetFileFullNameByID@CAEBELLBusiThread@@AEAA_NHAEAV?$basic_string@DU?$char_traits@D@std@@V?$allocator@D@2@@std@@@Z 0000000180042dd8     AebellBusiThread.obj
 0002:0000bdd8       $unwind$?GetPlanIDByName@CAEBELLBusiThread@@QEAA?AV?$basic_string@DU?$char_traits@D@std@@V?$allocator@D@2@@std@@AEBV23@@Z 0000000180042dd8     AebellBusiThread.obj
 0002:0000bdec       $unwind$?seekpos@?$basic_filebuf@DU?$char_traits@D@std@@@std@@MEAA?AV?$fpos@H@2@V32@H@Z 0000000180042dec     UploadFileTask.obj
 0002:0000be00       $unwind$?append@?$basic_string@DU?$char_traits@D@std@@V?$allocator@D@2@@std@@QEAAAEAV12@AEBV12@_K1@Z 0000000180042e00     UploadFileTask.obj
 0002:0000be14       $chain$0$?append@?$basic_string@DU?$char_traits@D@std@@V?$allocator@D@2@@std@@QEAAAEAV12@AEBV12@_K1@Z 0000000180042e14     UploadFileTask.obj
 0002:0000be28       $chain$1$?append@?$basic_string@DU?$char_traits@D@std@@V?$allocator@D@2@@std@@QEAAAEAV12@AEBV12@_K1@Z 0000000180042e28     UploadFileTask.obj
 0002:0000be38       $chain$2$?append@?$basic_string@DU?$char_traits@D@std@@V?$allocator@D@2@@std@@QEAAAEAV12@AEBV12@_K1@Z 0000000180042e38     UploadFileTask.obj
 0002:0000be4c       $unwind$?append@?$basic_string@DU?$char_traits@D@std@@V?$allocator@D@2@@std@@QEAAAEAV12@_KD@Z 0000000180042e4c     UploadFileTask.obj
 0002:0000be4c       $unwind$?append@?$basic_string@DU?$char_traits@D@std@@V?$allocator@D@2@@std@@QEAAAEAV12@PEBD_K@Z 0000000180042e4c     UploadFileTask.obj
 0002:0000be5c       $chain$0$?append@?$basic_string@DU?$char_traits@D@std@@V?$allocator@D@2@@std@@QEAAAEAV12@PEBD_K@Z 0000000180042e5c     UploadFileTask.obj
 0002:0000be70       $chain$1$?append@?$basic_string@DU?$char_traits@D@std@@V?$allocator@D@2@@std@@QEAAAEAV12@PEBD_K@Z 0000000180042e70     UploadFileTask.obj
 0002:0000be80       $chain$2$?append@?$basic_string@DU?$char_traits@D@std@@V?$allocator@D@2@@std@@QEAAAEAV12@PEBD_K@Z 0000000180042e80     UploadFileTask.obj
 0002:0000be94       $chain$0$?append@?$basic_string@DU?$char_traits@D@std@@V?$allocator@D@2@@std@@QEAAAEAV12@_KD@Z 0000000180042e94     UploadFileTask.obj
 0002:0000bea8       $chain$1$?append@?$basic_string@DU?$char_traits@D@std@@V?$allocator@D@2@@std@@QEAAAEAV12@_KD@Z 0000000180042ea8     UploadFileTask.obj
 0002:0000beb8       $chain$2$?append@?$basic_string@DU?$char_traits@D@std@@V?$allocator@D@2@@std@@QEAAAEAV12@_KD@Z 0000000180042eb8     UploadFileTask.obj
 0002:0000becc       $unwind$??1CAEBELLUploadThread@@EEAA@XZ 0000000180042ecc     AebellUploadThread.obj
 0002:0000becc       $unwind$?open@?$basic_filebuf@DU?$char_traits@D@std@@@std@@QEAAPEAV12@PEB_WHH@Z 0000000180042ecc     UploadFileTask.obj
 0002:0000becc       $unwind$?open@?$basic_filebuf@DU?$char_traits@D@std@@@std@@QEAAPEAV12@PEBDHH@Z 0000000180042ecc     UploadFileTask.obj
 0002:0000bed4       $chain$0$?open@?$basic_filebuf@DU?$char_traits@D@std@@@std@@QEAAPEAV12@PEB_WHH@Z 0000000180042ed4     UploadFileTask.obj
 0002:0000bee8       $chain$1$?open@?$basic_filebuf@DU?$char_traits@D@std@@@std@@QEAAPEAV12@PEB_WHH@Z 0000000180042ee8     UploadFileTask.obj
 0002:0000bef8       $unwind$?_Endwrite@?$basic_filebuf@DU?$char_traits@D@std@@@std@@IEAA_NXZ 0000000180042ef8     UploadFileTask.obj
 0002:0000bf0c       $chain$2$?_Endwrite@?$basic_filebuf@DU?$char_traits@D@std@@@std@@IEAA_NXZ 0000000180042f0c     UploadFileTask.obj
 0002:0000bf28       $chain$3$?_Endwrite@?$basic_filebuf@DU?$char_traits@D@std@@@std@@IEAA_NXZ 0000000180042f28     UploadFileTask.obj
 0002:0000bf38       $chain$4$?_Endwrite@?$basic_filebuf@DU?$char_traits@D@std@@@std@@IEAA_NXZ 0000000180042f38     UploadFileTask.obj
 0002:0000bf54       $chain$0$?open@?$basic_filebuf@DU?$char_traits@D@std@@@std@@QEAAPEAV12@PEBDHH@Z 0000000180042f54     UploadFileTask.obj
 0002:0000bf68       $chain$1$?open@?$basic_filebuf@DU?$char_traits@D@std@@@std@@QEAAPEAV12@PEBDHH@Z 0000000180042f68     UploadFileTask.obj
 0002:0000bf78       $unwind$??$use_facet@V?$codecvt@DDH@std@@@std@@YAAEBV?$codecvt@DDH@0@AEBVlocale@0@@Z 0000000180042f78     UploadFileTask.obj
 0002:0000bf78       $unwind$??$use_facet@V?$ctype@D@std@@@std@@YAAEBV?$ctype@D@0@AEBVlocale@0@@Z 0000000180042f78     UploadFileTask.obj
 0002:0000bf88       $unwind$?_Getcat@?$codecvt@DDH@std@@SA_KPEAPEBVfacet@locale@2@PEBV42@@Z 0000000180042f88     UploadFileTask.obj
 0002:0000bf9c       $chain$0$?_Getcat@?$codecvt@DDH@std@@SA_KPEAPEBVfacet@locale@2@PEBV42@@Z 0000000180042f9c     UploadFileTask.obj
 0002:0000bfb0       $chain$1$?_Getcat@?$codecvt@DDH@std@@SA_KPEAPEBVfacet@locale@2@PEBV42@@Z 0000000180042fb0     UploadFileTask.obj
 0002:0000bfc0       $chain$1$??__FvAutoPushData_@@YAXXZ 0000000180042fc0     AebellBusiThread.obj
 0002:0000bfd8       $chain$2$??__FvAutoPushData_@@YAXXZ 0000000180042fd8     AebellBusiThread.obj
 0002:0000bfec       $chain$3$??__FvAutoPushData_@@YAXXZ 0000000180042fec     AebellBusiThread.obj
 0002:0000bffc       $chain$4$??__FvAutoPushData_@@YAXXZ 0000000180042ffc     AebellBusiThread.obj
 0002:0000c00c       $chain$1$??__FvAllDevStatusData_@@YAXXZ 000000018004300c     AebellBusiThread.obj
 0002:0000c024       $chain$2$??__FvAllDevStatusData_@@YAXXZ 0000000180043024     AebellBusiThread.obj
 0002:0000c038       $chain$3$??__FvAllDevStatusData_@@YAXXZ 0000000180043038     AebellBusiThread.obj
 0002:0000c048       $chain$4$??__FvAllDevStatusData_@@YAXXZ 0000000180043048     AebellBusiThread.obj
 0002:0000c058       $unwind$??1CAEBELLBusiThread@@EEAA@XZ 0000000180043058     AebellBusiThread.obj
 0002:0000c064       $unwind$?DealTaskQueue@CAEBELLBusiThread@@AEAAXXZ 0000000180043064     AebellBusiThread.obj
 0002:0000c070       $chain$1$?DealTaskQueue@CAEBELLBusiThread@@AEAAXXZ 0000000180043070     AebellBusiThread.obj
 0002:0000c088       $chain$2$?DealTaskQueue@CAEBELLBusiThread@@AEAAXXZ 0000000180043088     AebellBusiThread.obj
 0002:0000c098       $unwind$?SetTaskTimeoutRes@CAEBELLBusiThread@@AEAAXXZ 0000000180043098     AebellBusiThread.obj
 0002:0000c0b4       $chain$0$?SetTaskTimeoutRes@CAEBELLBusiThread@@AEAAXXZ 00000001800430b4     AebellBusiThread.obj
 0002:0000c0c8       $chain$1$?SetTaskTimeoutRes@CAEBELLBusiThread@@AEAAXXZ 00000001800430c8     AebellBusiThread.obj
 0002:0000c0d8       $unwind$?DealBroadcastTask@CAEBELLBusiThread@@AEAAXAEAUBroadcastOperInfo@@@Z 00000001800430d8     AebellBusiThread.obj
 0002:0000c0fc       $unwind$?DealCallTask@CAEBELLBusiThread@@AEAAXAEAUCallOperInfo@@@Z 00000001800430fc     AebellBusiThread.obj
 0002:0000c124       $unwind$?DealAdjustVolumeTask@CAEBELLBusiThread@@AEAAXAEAUAdjustVolumeOperInfo@@@Z 0000000180043124     AebellBusiThread.obj
 0002:0000c138       $chain$0$?DealAdjustVolumeTask@CAEBELLBusiThread@@AEAAXAEAUAdjustVolumeOperInfo@@@Z 0000000180043138     AebellBusiThread.obj
 0002:0000c14c       $chain$1$?DealAdjustVolumeTask@CAEBELLBusiThread@@AEAAXAEAUAdjustVolumeOperInfo@@@Z 000000018004314c     AebellBusiThread.obj
 0002:0000c160       $chain$2$?DealAdjustVolumeTask@CAEBELLBusiThread@@AEAAXAEAUAdjustVolumeOperInfo@@@Z 0000000180043160     AebellBusiThread.obj
 0002:0000c170       $chain$3$?DealAdjustVolumeTask@CAEBELLBusiThread@@AEAAXAEAUAdjustVolumeOperInfo@@@Z 0000000180043170     AebellBusiThread.obj
 0002:0000c180       $unwind$?DealAddDeviceTask@CAEBELLBusiThread@@AEAAXAEAUAddDeviceOperInfo@@@Z 0000000180043180     AebellBusiThread.obj
 0002:0000c1a0       $unwind$?onAddDevAttachTask@CAEBELLBusiThread@@QEAAXAEAUAddDeviceOperInfo@@@Z 00000001800431a0     AebellBusiThread.obj
 0002:0000c1b8       $unwind$?DealDelDeviceTask@CAEBELLBusiThread@@AEAAXAEAUDelOperInfo@@@Z 00000001800431b8     AebellBusiThread.obj
 0002:0000c1d0       $chain$0$?DealDelDeviceTask@CAEBELLBusiThread@@AEAAXAEAUDelOperInfo@@@Z 00000001800431d0     AebellBusiThread.obj
 0002:0000c1e4       $chain$1$?DealDelDeviceTask@CAEBELLBusiThread@@AEAAXAEAUDelOperInfo@@@Z 00000001800431e4     AebellBusiThread.obj
 0002:0000c1f8       $chain$4$?DealDelDeviceTask@CAEBELLBusiThread@@AEAAXAEAUDelOperInfo@@@Z 00000001800431f8     AebellBusiThread.obj
 0002:0000c214       $chain$5$?DealDelDeviceTask@CAEBELLBusiThread@@AEAAXAEAUDelOperInfo@@@Z 0000000180043214     AebellBusiThread.obj
 0002:0000c224       $chain$6$?DealDelDeviceTask@CAEBELLBusiThread@@AEAAXAEAUDelOperInfo@@@Z 0000000180043224     AebellBusiThread.obj
 0002:0000c234       $chain$7$?DealDelDeviceTask@CAEBELLBusiThread@@AEAAXAEAUDelOperInfo@@@Z 0000000180043234     AebellBusiThread.obj
 0002:0000c244       $unwind$?DealStopCallTask@CAEBELLBusiThread@@AEAAXAEAUStopOperInfo@@@Z 0000000180043244     AebellBusiThread.obj
 0002:0000c244       $unwind$?DealStopBroadcastTask@CAEBELLBusiThread@@AEAAXAEAUStopOperInfo@@@Z 0000000180043244     AebellBusiThread.obj
 0002:0000c250       $unwind$?onAddPlanTask@CAEBELLBusiThread@@QEAAXAEAUAddUpdPlanOperInfo@@@Z 0000000180043250     AebellBusiThread.obj
 0002:0000c268       $chain$3$?onAddPlanTask@CAEBELLBusiThread@@QEAAXAEAUAddUpdPlanOperInfo@@@Z 0000000180043268     AebellBusiThread.obj
 0002:0000c288       $chain$4$?onAddPlanTask@CAEBELLBusiThread@@QEAAXAEAUAddUpdPlanOperInfo@@@Z 0000000180043288     AebellBusiThread.obj
 0002:0000c298       $chain$5$?onAddPlanTask@CAEBELLBusiThread@@QEAAXAEAUAddUpdPlanOperInfo@@@Z 0000000180043298     AebellBusiThread.obj
 0002:0000c2b8       $unwind$?DealAddPlanTask@CAEBELLBusiThread@@AEAAXAEAUAddUpdPlanOperInfo@@@Z 00000001800432b8     AebellBusiThread.obj
 0002:0000c2d0       $unwind$?DealDelPlanTask@CAEBELLBusiThread@@AEAAXAEAUDelPlanOperInfo@@@Z 00000001800432d0     AebellBusiThread.obj
 0002:0000c2e0       $unwind$?DealDelSessionDevTask@CAEBELLBusiThread@@AEAAXAEAUSessionDevOperInfo@@@Z 00000001800432e0     AebellBusiThread.obj
 0002:0000c2e0       $unwind$?DealAddSessionDevTask@CAEBELLBusiThread@@AEAAXAEAUSessionDevOperInfo@@@Z 00000001800432e0     AebellBusiThread.obj
 0002:0000c2f4       $chain$0$?DealAddSessionDevTask@CAEBELLBusiThread@@AEAAXAEAUSessionDevOperInfo@@@Z 00000001800432f4     AebellBusiThread.obj
 0002:0000c308       $chain$1$?DealAddSessionDevTask@CAEBELLBusiThread@@AEAAXAEAUSessionDevOperInfo@@@Z 0000000180043308     AebellBusiThread.obj
 0002:0000c31c       $chain$2$?DealAddSessionDevTask@CAEBELLBusiThread@@AEAAXAEAUSessionDevOperInfo@@@Z 000000018004331c     AebellBusiThread.obj
 0002:0000c32c       $chain$3$?DealAddSessionDevTask@CAEBELLBusiThread@@AEAAXAEAUSessionDevOperInfo@@@Z 000000018004332c     AebellBusiThread.obj
 0002:0000c33c       $chain$0$?DealDelSessionDevTask@CAEBELLBusiThread@@AEAAXAEAUSessionDevOperInfo@@@Z 000000018004333c     AebellBusiThread.obj
 0002:0000c350       $chain$1$?DealDelSessionDevTask@CAEBELLBusiThread@@AEAAXAEAUSessionDevOperInfo@@@Z 0000000180043350     AebellBusiThread.obj
 0002:0000c364       $chain$2$?DealDelSessionDevTask@CAEBELLBusiThread@@AEAAXAEAUSessionDevOperInfo@@@Z 0000000180043364     AebellBusiThread.obj
 0002:0000c374       $chain$3$?DealDelSessionDevTask@CAEBELLBusiThread@@AEAAXAEAUSessionDevOperInfo@@@Z 0000000180043374     AebellBusiThread.obj
 0002:0000c384       $unwind$?onCurTaskFinish@CAEBELLBusiThread@@QEAAX_N@Z 0000000180043384     AebellBusiThread.obj
 0002:0000c3a0       $chain$0$?onCurTaskFinish@CAEBELLBusiThread@@QEAAX_N@Z 00000001800433a0     AebellBusiThread.obj
 0002:0000c3b4       $chain$1$?onCurTaskFinish@CAEBELLBusiThread@@QEAAX_N@Z 00000001800433b4     AebellBusiThread.obj
 0002:0000c3c4       $unwind$?onGetFileFinish@CAEBELLBusiThread@@QEAAXUResFileInfo@@_N@Z 00000001800433c4     AebellBusiThread.obj
 0002:0000c3dc       $chain$1$?onGetFileFinish@CAEBELLBusiThread@@QEAAXUResFileInfo@@_N@Z 00000001800433dc     AebellBusiThread.obj
 0002:0000c3f4       $chain$2$?onGetFileFinish@CAEBELLBusiThread@@QEAAXUResFileInfo@@_N@Z 00000001800433f4     AebellBusiThread.obj
 0002:0000c408       $chain$3$?onGetFileFinish@CAEBELLBusiThread@@QEAAXUResFileInfo@@_N@Z 0000000180043408     AebellBusiThread.obj
 0002:0000c418       $unwind$?onDeviceRemoveFinish@CAEBELLBusiThread@@QEAAXH_N@Z 0000000180043418     AebellBusiThread.obj
 0002:0000c434       $chain$0$?onDeviceRemoveFinish@CAEBELLBusiThread@@QEAAXH_N@Z 0000000180043434     AebellBusiThread.obj
 0002:0000c448       $chain$1$?onDeviceRemoveFinish@CAEBELLBusiThread@@QEAAXH_N@Z 0000000180043448     AebellBusiThread.obj
 0002:0000c458       $unwind$?onDeviceAddFinish@CAEBELLBusiThread@@QEAAXH_N@Z 0000000180043458     AebellBusiThread.obj
 0002:0000c470       $chain$2$?onDeviceAddFinish@CAEBELLBusiThread@@QEAAXH_N@Z 0000000180043470     AebellBusiThread.obj
 0002:0000c48c       $chain$3$?onDeviceAddFinish@CAEBELLBusiThread@@QEAAXH_N@Z 000000018004348c     AebellBusiThread.obj
 0002:0000c4a0       $chain$4$?onDeviceAddFinish@CAEBELLBusiThread@@QEAAXH_N@Z 00000001800434a0     AebellBusiThread.obj
 0002:0000c4b0       $chain$5$?onDeviceAddFinish@CAEBELLBusiThread@@QEAAXH_N@Z 00000001800434b0     AebellBusiThread.obj
 0002:0000c4c0       $unwind$?onAddPlanFinish@CAEBELLBusiThread@@QEAAX_N@Z 00000001800434c0     AebellBusiThread.obj
 0002:0000c4e0       $unwind$?onAddPlanTaskFinish@CAEBELLBusiThread@@QEAAX_N@Z 00000001800434e0     AebellBusiThread.obj
 0002:0000c4f4       $unwind$?getTaskResInfo@CAEBELLBusiThread@@QEAA?AUResTaskInfo@@_K@Z 00000001800434f4     AebellBusiThread.obj
 0002:0000c50c       $unwind$?GetAllNetDevices@CAEBELLBusiThread@@QEAAXAEBV?$vector@U_tagNetDevice@@V?$allocator@U_tagNetDevice@@@std@@@std@@@Z 000000018004350c     AebellBusiThread.obj
 0002:0000c534       $unwind$?GetAllPolicyCB@CAEBELLBusiThread@@QEAAXAEBV?$vector@U_tagTaskPolicy@@V?$allocator@U_tagTaskPolicy@@@std@@@std@@@Z 0000000180043534     AebellBusiThread.obj
 0002:0000c534       $unwind$?GetDeviceAttachInfo@CAEBELLBusiThread@@QEAAXAEBV?$vector@U_tagNetDeviceAttach@@V?$allocator@U_tagNetDeviceAttach@@@std@@@std@@@Z 0000000180043534     AebellBusiThread.obj
 0002:0000c55c       $unwind$?GetPhoneNumByIP@CAEBELLBusiThread@@QEAA_NAEAV?$basic_string@DU?$char_traits@D@std@@V?$allocator@D@2@@std@@AEAG@Z 000000018004355c     AebellBusiThread.obj
 0002:0000c570       $chain$5$?GetPhoneNumByIP@CAEBELLBusiThread@@QEAA_NAEAV?$basic_string@DU?$char_traits@D@std@@V?$allocator@D@2@@std@@AEAG@Z 0000000180043570     AebellBusiThread.obj
 0002:0000c598       $chain$6$?GetPhoneNumByIP@CAEBELLBusiThread@@QEAA_NAEAV?$basic_string@DU?$char_traits@D@std@@V?$allocator@D@2@@std@@AEAG@Z 0000000180043598     AebellBusiThread.obj
 0002:0000c5ac       $chain$7$?GetPhoneNumByIP@CAEBELLBusiThread@@QEAA_NAEAV?$basic_string@DU?$char_traits@D@std@@V?$allocator@D@2@@std@@AEAG@Z 00000001800435ac     AebellBusiThread.obj
 0002:0000c5bc       $chain$8$?GetPhoneNumByIP@CAEBELLBusiThread@@QEAA_NAEAV?$basic_string@DU?$char_traits@D@std@@V?$allocator@D@2@@std@@AEAG@Z 00000001800435bc     AebellBusiThread.obj
 0002:0000c5cc       $unwind$?GetIPByPhoneNum@CAEBELLBusiThread@@QEAA_NAEAGAEAV?$basic_string@DU?$char_traits@D@std@@V?$allocator@D@2@@std@@@Z 00000001800435cc     AebellBusiThread.obj
 0002:0000c5dc       $chain$3$?GetIPByPhoneNum@CAEBELLBusiThread@@QEAA_NAEAGAEAV?$basic_string@DU?$char_traits@D@std@@V?$allocator@D@2@@std@@@Z 00000001800435dc     AebellBusiThread.obj
 0002:0000c5fc       $chain$6$?GetIPByPhoneNum@CAEBELLBusiThread@@QEAA_NAEAGAEAV?$basic_string@DU?$char_traits@D@std@@V?$allocator@D@2@@std@@@Z 00000001800435fc     AebellBusiThread.obj
 0002:0000c618       $chain$7$?GetIPByPhoneNum@CAEBELLBusiThread@@QEAA_NAEAGAEAV?$basic_string@DU?$char_traits@D@std@@V?$allocator@D@2@@std@@@Z 0000000180043618     AebellBusiThread.obj
 0002:0000c628       $chain$8$?GetIPByPhoneNum@CAEBELLBusiThread@@QEAA_NAEAGAEAV?$basic_string@DU?$char_traits@D@std@@V?$allocator@D@2@@std@@@Z 0000000180043628     AebellBusiThread.obj
 0002:0000c638       $unwind$?queryAllFileTask@CAEBELLBusiThread@@QEAAX_K@Z 0000000180043638     AebellBusiThread.obj
 0002:0000c658       $chain$0$?queryAllFileTask@CAEBELLBusiThread@@QEAAX_K@Z 0000000180043658     AebellBusiThread.obj
 0002:0000c66c       $chain$1$?queryAllFileTask@CAEBELLBusiThread@@QEAAX_K@Z 000000018004366c     AebellBusiThread.obj
 0002:0000c67c       $unwind$?startCallTask@CAEBELLBusiThread@@QEAAX_KAEAUCallOperInfo@@@Z 000000018004367c     AebellBusiThread.obj
 0002:0000c67c       $unwind$?startBroadcastTask@CAEBELLBusiThread@@QEAAX_KAEAUBroadcastOperInfo@@@Z 000000018004367c     AebellBusiThread.obj
 0002:0000c694       $unwind$?stopCallTask@CAEBELLBusiThread@@QEAAX_KAEAUStopOperInfo@@@Z 0000000180043694     AebellBusiThread.obj
 0002:0000c694       $unwind$?delSessionDevTask@CAEBELLBusiThread@@QEAAX_KAEAUSessionDevOperInfo@@@Z 0000000180043694     AebellBusiThread.obj
 0002:0000c694       $unwind$?adjustVolumeTask@CAEBELLBusiThread@@QEAAX_KAEAUAdjustVolumeOperInfo@@@Z 0000000180043694     AebellBusiThread.obj
 0002:0000c694       $unwind$?delDeviceTask@CAEBELLBusiThread@@QEAAX_KAEAUDelOperInfo@@@Z 0000000180043694     AebellBusiThread.obj
 0002:0000c694       $unwind$?addSessionDevTask@CAEBELLBusiThread@@QEAAX_KAEAUSessionDevOperInfo@@@Z 0000000180043694     AebellBusiThread.obj
 0002:0000c694       $unwind$?delPlanTask@CAEBELLBusiThread@@QEAAX_KAEAUDelPlanOperInfo@@@Z 0000000180043694     AebellBusiThread.obj
 0002:0000c694       $unwind$?stopBroadcastTask@CAEBELLBusiThread@@QEAAX_KAEAUStopOperInfo@@@Z 0000000180043694     AebellBusiThread.obj
 0002:0000c6b0       $unwind$?addDeviceTask@CAEBELLBusiThread@@QEAAX_KAEAUAddDeviceOperInfo@@@Z 00000001800436b0     AebellBusiThread.obj
 0002:0000c6b0       $unwind$?addPlanTask@CAEBELLBusiThread@@QEAAX_KAEAUAddUpdPlanOperInfo@@@Z 00000001800436b0     AebellBusiThread.obj
 0002:0000c6b0       $unwind$?updateDeviceTask@CAEBELLBusiThread@@QEAAX_KAEAUAddDeviceOperInfo@@@Z 00000001800436b0     AebellBusiThread.obj
 0002:0000c6b0       $unwind$?updatePlanTask@CAEBELLBusiThread@@QEAAX_KAEAUAddUpdPlanOperInfo@@@Z 00000001800436b0     AebellBusiThread.obj
 0002:0000c6c8       $unwind$?uploadFileTask@CAEBELLBusiThread@@QEAAX_KAEAUUploadFileOperInfo@@@Z 00000001800436c8     AebellBusiThread.obj
 0002:0000c6dc       $chain$1$?uploadFileTask@CAEBELLBusiThread@@QEAAX_KAEAUUploadFileOperInfo@@@Z 00000001800436dc     AebellBusiThread.obj
 0002:0000c6f4       $chain$3$?uploadFileTask@CAEBELLBusiThread@@QEAAX_KAEAUUploadFileOperInfo@@@Z 00000001800436f4     AebellBusiThread.obj
 0002:0000c70c       $chain$4$?uploadFileTask@CAEBELLBusiThread@@QEAAX_KAEAUUploadFileOperInfo@@@Z 000000018004370c     AebellBusiThread.obj
 0002:0000c720       $chain$6$?uploadFileTask@CAEBELLBusiThread@@QEAAX_KAEAUUploadFileOperInfo@@@Z 0000000180043720     AebellBusiThread.obj
 0002:0000c738       $chain$7$?uploadFileTask@CAEBELLBusiThread@@QEAAX_KAEAUUploadFileOperInfo@@@Z 0000000180043738     AebellBusiThread.obj
 0002:0000c748       $chain$8$?uploadFileTask@CAEBELLBusiThread@@QEAAX_KAEAUUploadFileOperInfo@@@Z 0000000180043748     AebellBusiThread.obj
 0002:0000c758       $chain$9$?uploadFileTask@CAEBELLBusiThread@@QEAAX_KAEAUUploadFileOperInfo@@@Z 0000000180043758     AebellBusiThread.obj
 0002:0000c76c       $chain$10$?uploadFileTask@CAEBELLBusiThread@@QEAAX_KAEAUUploadFileOperInfo@@@Z 000000018004376c     AebellBusiThread.obj
 0002:0000c780       $chain$11$?uploadFileTask@CAEBELLBusiThread@@QEAAX_KAEAUUploadFileOperInfo@@@Z 0000000180043780     AebellBusiThread.obj
 0002:0000c790       $unwind$?GetAllFileCB@CAEBELLBusiThread@@QEAAXAEBV?$vector@U_tagNetFile@@V?$allocator@U_tagNetFile@@@std@@@std@@@Z 0000000180043790     AebellBusiThread.obj
 0002:0000c7b8       $unwind$?AutoPolicyStatusCB@CAEBELLBusiThread@@QEAAXU_tagPolicyStatus@@@Z 00000001800437b8     AebellBusiThread.obj
 0002:0000c7cc       $chain$1$?AutoPolicyStatusCB@CAEBELLBusiThread@@QEAAXU_tagPolicyStatus@@@Z 00000001800437cc     AebellBusiThread.obj
 0002:0000c7e4       $chain$2$?AutoPolicyStatusCB@CAEBELLBusiThread@@QEAAXU_tagPolicyStatus@@@Z 00000001800437e4     AebellBusiThread.obj
 0002:0000c7f4       $unwind$?DeviceStatusCB@CAEBELLBusiThread@@QEAAXAEBV?$vector@U_tagDeviceStatus@@V?$allocator@U_tagDeviceStatus@@@std@@@std@@_N@Z 00000001800437f4     AebellBusiThread.obj
 0002:0000c814       $unwind$?GetGuidByPhoneNum@CAEBELLBusiThread@@AEAA?AV?$basic_string@DU?$char_traits@D@std@@V?$allocator@D@2@@std@@G@Z 0000000180043814     AebellBusiThread.obj
 0002:0000c830       $unwind$??A?$map@V?$basic_string@DU?$char_traits@D@std@@V?$allocator@D@2@@std@@V12@U?$less@V?$basic_string@DU?$char_traits@D@std@@V?$allocator@D@2@@std@@@2@V?$allocator@U?$pair@$$CBV?$basic_string@DU?$char_traits@D@std@@V?$allocator@D@2@@std@@V12@@std@@@2@@std@@QEAAAEAV?$basic_string@DU?$char_traits@D@std@@V?$allocator@D@2@@1@AEBV21@@Z 0000000180043830     AebellBusiThread.obj
 0002:0000c840       $chain$0$??A?$map@V?$basic_string@DU?$char_traits@D@std@@V?$allocator@D@2@@std@@V12@U?$less@V?$basic_string@DU?$char_traits@D@std@@V?$allocator@D@2@@std@@@2@V?$allocator@U?$pair@$$CBV?$basic_string@DU?$char_traits@D@std@@V?$allocator@D@2@@std@@V12@@std@@@2@@std@@QEAAAEAV?$basic_string@DU?$char_traits@D@std@@V?$allocator@D@2@@1@AEBV21@@Z 0000000180043840     AebellBusiThread.obj
 0002:0000c854       $chain$1$??A?$map@V?$basic_string@DU?$char_traits@D@std@@V?$allocator@D@2@@std@@V12@U?$less@V?$basic_string@DU?$char_traits@D@std@@V?$allocator@D@2@@std@@@2@V?$allocator@U?$pair@$$CBV?$basic_string@DU?$char_traits@D@std@@V?$allocator@D@2@@std@@V12@@std@@@2@@std@@QEAAAEAV?$basic_string@DU?$char_traits@D@std@@V?$allocator@D@2@@1@AEBV21@@Z 0000000180043854     AebellBusiThread.obj
 0002:0000c864       $unwind$?erase@?$_Tree@V?$_Tmap_traits@V?$basic_string@DU?$char_traits@D@std@@V?$allocator@D@2@@std@@GU?$less@V?$basic_string@DU?$char_traits@D@std@@V?$allocator@D@2@@std@@@2@V?$allocator@U?$pair@$$CBV?$basic_string@DU?$char_traits@D@std@@V?$allocator@D@2@@std@@G@std@@@2@$0A@@std@@@std@@QEAA?AV?$_Tree_iterator@V?$_Tree_val@U?$_Tree_simple_types@U?$pair@$$CBV?$basic_string@DU?$char_traits@D@std@@V?$allocator@D@2@@std@@G@std@@@std@@@std@@@2@V?$_Tree_const_iterator@V?$_Tree_val@U?$_Tree_simple_types@U?$pair@$$CBV?$basic_string@DU?$char_traits@D@std@@V?$allocator@D@2@@std@@G@std@@@std@@@std@@@2@@Z 0000000180043864     AebellBusiThread.obj
 0002:0000c864       $unwind$?erase@?$_Tree@V?$_Tmap_traits@V?$basic_string@DU?$char_traits@D@std@@V?$allocator@D@2@@std@@V?$map@V?$basic_string@DU?$char_traits@D@std@@V?$allocator@D@2@@std@@V12@U?$less@V?$basic_string@DU?$char_traits@D@std@@V?$allocator@D@2@@std@@@2@V?$allocator@U?$pair@$$CBV?$basic_string@DU?$char_traits@D@std@@V?$allocator@D@2@@std@@V12@@std@@@2@@2@U?$less@V?$basic_string@DU?$char_traits@D@std@@V?$allocator@D@2@@std@@@2@V?$allocator@U?$pair@$$CBV?$basic_string@DU?$char_traits@D@std@@V?$allocator@D@2@@std@@V?$map@V?$basic_string@DU?$char_traits@D@std@@V?$allocator@D@2@@std@@V12@U?$less@V?$basic_string@DU?$char_traits@D@std@@V?$allocator@D@2@@std@@@2@V?$allocator@U?$pair@$$CBV?$basic_string@DU?$char_traits@D@std@@V?$allocator@D@2@@std@@V12@@std@@@2@@2@@std@@@2@$0A@@std@@@std@@QEAA?AV?$_Tree_iterator@V?$_Tree_val@U?$_Tree_simple_types@U?$pair@$$CBV?$basic_string@DU?$char_traits@D@std@@V?$allocator@D@2@@std@@V?$map@V?$basic_string@DU?$char_traits@D@std@@V?$allocator@D@2@@std@@V12@U?$less@V?$basic_string@DU?$char_traits@D@std@@V?$allocator@D@2@@std@@@2@V?$allocator@U?$pair@$$CBV?$basic_string@DU?$char_traits@D@std@@V?$allocator@D@2@@std@@V12@@std@@@2@@2@@std@@@std@@@std@@@2@V?$_Tree_const_iterator@V?$_Tree_val@U?$_Tree_simple_types@U?$pair@$$CBV?$basic_string@DU?$char_traits@D@std@@V?$allocator@D@2@@std@@V?$map@V?$basic_string@DU?$char_traits@D@std@@V?$allocator@D@2@@std@@V12@U?$less@V?$basic_string@DU?$char_traits@D@std@@V?$allocator@D@2@@std@@@2@V?$allocator@U?$pair@$$CBV?$basic_string@DU?$char_traits@D@std@@V?$allocator@D@2@@std@@V12@@std@@@2@@2@@std@@@std@@@std@@@2@@Z 0000000180043864     AebellBusiThread.obj
 0002:0000c864       $unwind$?erase@?$_Tree@V?$_Tmap_traits@V?$basic_string@DU?$char_traits@D@std@@V?$allocator@D@2@@std@@V12@U?$less@V?$basic_string@DU?$char_traits@D@std@@V?$allocator@D@2@@std@@@2@V?$allocator@U?$pair@$$CBV?$basic_string@DU?$char_traits@D@std@@V?$allocator@D@2@@std@@V12@@std@@@2@$0A@@std@@@std@@QEAA?AV?$_Tree_iterator@V?$_Tree_val@U?$_Tree_simple_types@U?$pair@$$CBV?$basic_string@DU?$char_traits@D@std@@V?$allocator@D@2@@std@@V12@@std@@@std@@@std@@@2@V?$_Tree_const_iterator@V?$_Tree_val@U?$_Tree_simple_types@U?$pair@$$CBV?$basic_string@DU?$char_traits@D@std@@V?$allocator@D@2@@std@@V12@@std@@@std@@@std@@@2@@Z 0000000180043864     AebellBusiThread.obj
 0002:0000c864       $unwind$?erase@?$_Tree@V?$_Tmap_traits@V?$basic_string@DU?$char_traits@D@std@@V?$allocator@D@2@@std@@HU?$less@V?$basic_string@DU?$char_traits@D@std@@V?$allocator@D@2@@std@@@2@V?$allocator@U?$pair@$$CBV?$basic_string@DU?$char_traits@D@std@@V?$allocator@D@2@@std@@H@std@@@2@$0A@@std@@@std@@QEAA?AV?$_Tree_iterator@V?$_Tree_val@U?$_Tree_simple_types@U?$pair@$$CBV?$basic_string@DU?$char_traits@D@std@@V?$allocator@D@2@@std@@H@std@@@std@@@std@@@2@V?$_Tree_const_iterator@V?$_Tree_val@U?$_Tree_simple_types@U?$pair@$$CBV?$basic_string@DU?$char_traits@D@std@@V?$allocator@D@2@@std@@H@std@@@std@@@std@@@2@@Z 0000000180043864     AebellBusiThread.obj
 0002:0000c864       $unwind$?erase@?$_Tree@V?$_Tmap_traits@GV?$basic_string@DU?$char_traits@D@std@@V?$allocator@D@2@@std@@U?$less@G@2@V?$allocator@U?$pair@$$CBGV?$basic_string@DU?$char_traits@D@std@@V?$allocator@D@2@@std@@@std@@@2@$0A@@std@@@std@@QEAA?AV?$_Tree_iterator@V?$_Tree_val@U?$_Tree_simple_types@U?$pair@$$CBGV?$basic_string@DU?$char_traits@D@std@@V?$allocator@D@2@@std@@@std@@@std@@@std@@@2@V?$_Tree_const_iterator@V?$_Tree_val@U?$_Tree_simple_types@U?$pair@$$CBGV?$basic_string@DU?$char_traits@D@std@@V?$allocator@D@2@@std@@@std@@@std@@@std@@@2@@Z 0000000180043864     AebellBusiThread.obj
 0002:0000c864       $unwind$?erase@?$_Tree@V?$_Tmap_traits@HV?$basic_string@DU?$char_traits@D@std@@V?$allocator@D@2@@std@@U?$less@H@2@V?$allocator@U?$pair@$$CBHV?$basic_string@DU?$char_traits@D@std@@V?$allocator@D@2@@std@@@std@@@2@$0A@@std@@@std@@QEAA?AV?$_Tree_iterator@V?$_Tree_val@U?$_Tree_simple_types@U?$pair@$$CBHV?$basic_string@DU?$char_traits@D@std@@V?$allocator@D@2@@std@@@std@@@std@@@std@@@2@V?$_Tree_const_iterator@V?$_Tree_val@U?$_Tree_simple_types@U?$pair@$$CBHV?$basic_string@DU?$char_traits@D@std@@V?$allocator@D@2@@std@@@std@@@std@@@std@@@2@@Z 0000000180043864     AebellBusiThread.obj
 0002:0000c864       $unwind$?erase@?$_Tree@V?$_Tmap_traits@_KV?$shared_ptr@VCBroadcastTask@@@std@@U?$less@_K@2@V?$allocator@U?$pair@$$CB_KV?$shared_ptr@VCBroadcastTask@@@std@@@std@@@2@$0A@@std@@@std@@QEAA?AV?$_Tree_iterator@V?$_Tree_val@U?$_Tree_simple_types@U?$pair@$$CB_KV?$shared_ptr@VCBroadcastTask@@@std@@@std@@@std@@@std@@@2@V?$_Tree_const_iterator@V?$_Tree_val@U?$_Tree_simple_types@U?$pair@$$CB_KV?$shared_ptr@VCBroadcastTask@@@std@@@std@@@std@@@std@@@2@@Z 0000000180043864     AebellBusiThread.obj
 0002:0000c870       $chain$1$?erase@?$_Tree@V?$_Tmap_traits@V?$basic_string@DU?$char_traits@D@std@@V?$allocator@D@2@@std@@V12@U?$less@V?$basic_string@DU?$char_traits@D@std@@V?$allocator@D@2@@std@@@2@V?$allocator@U?$pair@$$CBV?$basic_string@DU?$char_traits@D@std@@V?$allocator@D@2@@std@@V12@@std@@@2@$0A@@std@@@std@@QEAA?AV?$_Tree_iterator@V?$_Tree_val@U?$_Tree_simple_types@U?$pair@$$CBV?$basic_string@DU?$char_traits@D@std@@V?$allocator@D@2@@std@@V12@@std@@@std@@@std@@@2@V?$_Tree_const_iterator@V?$_Tree_val@U?$_Tree_simple_types@U?$pair@$$CBV?$basic_string@DU?$char_traits@D@std@@V?$allocator@D@2@@std@@V12@@std@@@std@@@std@@@2@@Z 0000000180043870     AebellBusiThread.obj
 0002:0000c888       $chain$2$?erase@?$_Tree@V?$_Tmap_traits@V?$basic_string@DU?$char_traits@D@std@@V?$allocator@D@2@@std@@V12@U?$less@V?$basic_string@DU?$char_traits@D@std@@V?$allocator@D@2@@std@@@2@V?$allocator@U?$pair@$$CBV?$basic_string@DU?$char_traits@D@std@@V?$allocator@D@2@@std@@V12@@std@@@2@$0A@@std@@@std@@QEAA?AV?$_Tree_iterator@V?$_Tree_val@U?$_Tree_simple_types@U?$pair@$$CBV?$basic_string@DU?$char_traits@D@std@@V?$allocator@D@2@@std@@V12@@std@@@std@@@std@@@2@V?$_Tree_const_iterator@V?$_Tree_val@U?$_Tree_simple_types@U?$pair@$$CBV?$basic_string@DU?$char_traits@D@std@@V?$allocator@D@2@@std@@V12@@std@@@std@@@std@@@2@@Z 0000000180043888     AebellBusiThread.obj
 0002:0000c89c       $chain$3$?erase@?$_Tree@V?$_Tmap_traits@V?$basic_string@DU?$char_traits@D@std@@V?$allocator@D@2@@std@@V12@U?$less@V?$basic_string@DU?$char_traits@D@std@@V?$allocator@D@2@@std@@@2@V?$allocator@U?$pair@$$CBV?$basic_string@DU?$char_traits@D@std@@V?$allocator@D@2@@std@@V12@@std@@@2@$0A@@std@@@std@@QEAA?AV?$_Tree_iterator@V?$_Tree_val@U?$_Tree_simple_types@U?$pair@$$CBV?$basic_string@DU?$char_traits@D@std@@V?$allocator@D@2@@std@@V12@@std@@@std@@@std@@@2@V?$_Tree_const_iterator@V?$_Tree_val@U?$_Tree_simple_types@U?$pair@$$CBV?$basic_string@DU?$char_traits@D@std@@V?$allocator@D@2@@std@@V12@@std@@@std@@@std@@@2@@Z 000000018004389c     AebellBusiThread.obj
 0002:0000c8ac       $chain$4$?erase@?$_Tree@V?$_Tmap_traits@V?$basic_string@DU?$char_traits@D@std@@V?$allocator@D@2@@std@@V12@U?$less@V?$basic_string@DU?$char_traits@D@std@@V?$allocator@D@2@@std@@@2@V?$allocator@U?$pair@$$CBV?$basic_string@DU?$char_traits@D@std@@V?$allocator@D@2@@std@@V12@@std@@@2@$0A@@std@@@std@@QEAA?AV?$_Tree_iterator@V?$_Tree_val@U?$_Tree_simple_types@U?$pair@$$CBV?$basic_string@DU?$char_traits@D@std@@V?$allocator@D@2@@std@@V12@@std@@@std@@@std@@@2@V?$_Tree_const_iterator@V?$_Tree_val@U?$_Tree_simple_types@U?$pair@$$CBV?$basic_string@DU?$char_traits@D@std@@V?$allocator@D@2@@std@@V12@@std@@@std@@@std@@@2@@Z 00000001800438ac     AebellBusiThread.obj
 0002:0000c8bc       $unwind$?erase@?$_Tree@V?$_Tmap_traits@V?$basic_string@DU?$char_traits@D@std@@V?$allocator@D@2@@std@@V12@U?$less@V?$basic_string@DU?$char_traits@D@std@@V?$allocator@D@2@@std@@@2@V?$allocator@U?$pair@$$CBV?$basic_string@DU?$char_traits@D@std@@V?$allocator@D@2@@std@@V12@@std@@@2@$0A@@std@@@std@@QEAA_KAEBV?$basic_string@DU?$char_traits@D@std@@V?$allocator@D@2@@2@@Z 00000001800438bc     AebellBusiThread.obj
 0002:0000c8c8       $unwind$??A?$map@V?$basic_string@DU?$char_traits@D@std@@V?$allocator@D@2@@std@@GU?$less@V?$basic_string@DU?$char_traits@D@std@@V?$allocator@D@2@@std@@@2@V?$allocator@U?$pair@$$CBV?$basic_string@DU?$char_traits@D@std@@V?$allocator@D@2@@std@@G@std@@@2@@std@@QEAAAEAGAEBV?$basic_string@DU?$char_traits@D@std@@V?$allocator@D@2@@1@@Z 00000001800438c8     AebellBusiThread.obj
 0002:0000c8d8       $chain$0$??A?$map@V?$basic_string@DU?$char_traits@D@std@@V?$allocator@D@2@@std@@GU?$less@V?$basic_string@DU?$char_traits@D@std@@V?$allocator@D@2@@std@@@2@V?$allocator@U?$pair@$$CBV?$basic_string@DU?$char_traits@D@std@@V?$allocator@D@2@@std@@G@std@@@2@@std@@QEAAAEAGAEBV?$basic_string@DU?$char_traits@D@std@@V?$allocator@D@2@@1@@Z 00000001800438d8     AebellBusiThread.obj
 0002:0000c8ec       $chain$1$??A?$map@V?$basic_string@DU?$char_traits@D@std@@V?$allocator@D@2@@std@@GU?$less@V?$basic_string@DU?$char_traits@D@std@@V?$allocator@D@2@@std@@@2@V?$allocator@U?$pair@$$CBV?$basic_string@DU?$char_traits@D@std@@V?$allocator@D@2@@std@@G@std@@@2@@std@@QEAAAEAGAEBV?$basic_string@DU?$char_traits@D@std@@V?$allocator@D@2@@1@@Z 00000001800438ec     AebellBusiThread.obj
 0002:0000c900       $chain$2$??A?$map@V?$basic_string@DU?$char_traits@D@std@@V?$allocator@D@2@@std@@GU?$less@V?$basic_string@DU?$char_traits@D@std@@V?$allocator@D@2@@std@@@2@V?$allocator@U?$pair@$$CBV?$basic_string@DU?$char_traits@D@std@@V?$allocator@D@2@@std@@G@std@@@2@@std@@QEAAAEAGAEBV?$basic_string@DU?$char_traits@D@std@@V?$allocator@D@2@@1@@Z 0000000180043900     AebellBusiThread.obj
 0002:0000c910       $chain$3$??A?$map@V?$basic_string@DU?$char_traits@D@std@@V?$allocator@D@2@@std@@GU?$less@V?$basic_string@DU?$char_traits@D@std@@V?$allocator@D@2@@std@@@2@V?$allocator@U?$pair@$$CBV?$basic_string@DU?$char_traits@D@std@@V?$allocator@D@2@@std@@G@std@@@2@@std@@QEAAAEAGAEBV?$basic_string@DU?$char_traits@D@std@@V?$allocator@D@2@@1@@Z 0000000180043910     AebellBusiThread.obj
 0002:0000c920       $chain$0$?erase@?$_Tree@V?$_Tmap_traits@V?$basic_string@DU?$char_traits@D@std@@V?$allocator@D@2@@std@@GU?$less@V?$basic_string@DU?$char_traits@D@std@@V?$allocator@D@2@@std@@@2@V?$allocator@U?$pair@$$CBV?$basic_string@DU?$char_traits@D@std@@V?$allocator@D@2@@std@@G@std@@@2@$0A@@std@@@std@@QEAA?AV?$_Tree_iterator@V?$_Tree_val@U?$_Tree_simple_types@U?$pair@$$CBV?$basic_string@DU?$char_traits@D@std@@V?$allocator@D@2@@std@@G@std@@@std@@@std@@@2@V?$_Tree_const_iterator@V?$_Tree_val@U?$_Tree_simple_types@U?$pair@$$CBV?$basic_string@DU?$char_traits@D@std@@V?$allocator@D@2@@std@@G@std@@@std@@@std@@@2@@Z 0000000180043920     AebellBusiThread.obj
 0002:0000c920       $chain$0$?erase@?$_Tree@V?$_Tmap_traits@V?$basic_string@DU?$char_traits@D@std@@V?$allocator@D@2@@std@@HU?$less@V?$basic_string@DU?$char_traits@D@std@@V?$allocator@D@2@@std@@@2@V?$allocator@U?$pair@$$CBV?$basic_string@DU?$char_traits@D@std@@V?$allocator@D@2@@std@@H@std@@@2@$0A@@std@@@std@@QEAA?AV?$_Tree_iterator@V?$_Tree_val@U?$_Tree_simple_types@U?$pair@$$CBV?$basic_string@DU?$char_traits@D@std@@V?$allocator@D@2@@std@@H@std@@@std@@@std@@@2@V?$_Tree_const_iterator@V?$_Tree_val@U?$_Tree_simple_types@U?$pair@$$CBV?$basic_string@DU?$char_traits@D@std@@V?$allocator@D@2@@std@@H@std@@@std@@@std@@@2@@Z 0000000180043920     AebellBusiThread.obj
 0002:0000c934       $chain$2$?erase@?$_Tree@V?$_Tmap_traits@V?$basic_string@DU?$char_traits@D@std@@V?$allocator@D@2@@std@@HU?$less@V?$basic_string@DU?$char_traits@D@std@@V?$allocator@D@2@@std@@@2@V?$allocator@U?$pair@$$CBV?$basic_string@DU?$char_traits@D@std@@V?$allocator@D@2@@std@@H@std@@@2@$0A@@std@@@std@@QEAA?AV?$_Tree_iterator@V?$_Tree_val@U?$_Tree_simple_types@U?$pair@$$CBV?$basic_string@DU?$char_traits@D@std@@V?$allocator@D@2@@std@@H@std@@@std@@@std@@@2@V?$_Tree_const_iterator@V?$_Tree_val@U?$_Tree_simple_types@U?$pair@$$CBV?$basic_string@DU?$char_traits@D@std@@V?$allocator@D@2@@std@@H@std@@@std@@@std@@@2@@Z 0000000180043934     AebellBusiThread.obj
 0002:0000c934       $chain$2$?erase@?$_Tree@V?$_Tmap_traits@V?$basic_string@DU?$char_traits@D@std@@V?$allocator@D@2@@std@@GU?$less@V?$basic_string@DU?$char_traits@D@std@@V?$allocator@D@2@@std@@@2@V?$allocator@U?$pair@$$CBV?$basic_string@DU?$char_traits@D@std@@V?$allocator@D@2@@std@@G@std@@@2@$0A@@std@@@std@@QEAA?AV?$_Tree_iterator@V?$_Tree_val@U?$_Tree_simple_types@U?$pair@$$CBV?$basic_string@DU?$char_traits@D@std@@V?$allocator@D@2@@std@@G@std@@@std@@@std@@@2@V?$_Tree_const_iterator@V?$_Tree_val@U?$_Tree_simple_types@U?$pair@$$CBV?$basic_string@DU?$char_traits@D@std@@V?$allocator@D@2@@std@@G@std@@@std@@@std@@@2@@Z 0000000180043934     AebellBusiThread.obj
 0002:0000c94c       $chain$3$?erase@?$_Tree@V?$_Tmap_traits@V?$basic_string@DU?$char_traits@D@std@@V?$allocator@D@2@@std@@GU?$less@V?$basic_string@DU?$char_traits@D@std@@V?$allocator@D@2@@std@@@2@V?$allocator@U?$pair@$$CBV?$basic_string@DU?$char_traits@D@std@@V?$allocator@D@2@@std@@G@std@@@2@$0A@@std@@@std@@QEAA?AV?$_Tree_iterator@V?$_Tree_val@U?$_Tree_simple_types@U?$pair@$$CBV?$basic_string@DU?$char_traits@D@std@@V?$allocator@D@2@@std@@G@std@@@std@@@std@@@2@V?$_Tree_const_iterator@V?$_Tree_val@U?$_Tree_simple_types@U?$pair@$$CBV?$basic_string@DU?$char_traits@D@std@@V?$allocator@D@2@@std@@G@std@@@std@@@std@@@2@@Z 000000018004394c     AebellBusiThread.obj
 0002:0000c94c       $chain$3$?erase@?$_Tree@V?$_Tmap_traits@V?$basic_string@DU?$char_traits@D@std@@V?$allocator@D@2@@std@@HU?$less@V?$basic_string@DU?$char_traits@D@std@@V?$allocator@D@2@@std@@@2@V?$allocator@U?$pair@$$CBV?$basic_string@DU?$char_traits@D@std@@V?$allocator@D@2@@std@@H@std@@@2@$0A@@std@@@std@@QEAA?AV?$_Tree_iterator@V?$_Tree_val@U?$_Tree_simple_types@U?$pair@$$CBV?$basic_string@DU?$char_traits@D@std@@V?$allocator@D@2@@std@@H@std@@@std@@@std@@@2@V?$_Tree_const_iterator@V?$_Tree_val@U?$_Tree_simple_types@U?$pair@$$CBV?$basic_string@DU?$char_traits@D@std@@V?$allocator@D@2@@std@@H@std@@@std@@@std@@@2@@Z 000000018004394c     AebellBusiThread.obj
 0002:0000c95c       $chain$4$?erase@?$_Tree@V?$_Tmap_traits@V?$basic_string@DU?$char_traits@D@std@@V?$allocator@D@2@@std@@GU?$less@V?$basic_string@DU?$char_traits@D@std@@V?$allocator@D@2@@std@@@2@V?$allocator@U?$pair@$$CBV?$basic_string@DU?$char_traits@D@std@@V?$allocator@D@2@@std@@G@std@@@2@$0A@@std@@@std@@QEAA?AV?$_Tree_iterator@V?$_Tree_val@U?$_Tree_simple_types@U?$pair@$$CBV?$basic_string@DU?$char_traits@D@std@@V?$allocator@D@2@@std@@G@std@@@std@@@std@@@2@V?$_Tree_const_iterator@V?$_Tree_val@U?$_Tree_simple_types@U?$pair@$$CBV?$basic_string@DU?$char_traits@D@std@@V?$allocator@D@2@@std@@G@std@@@std@@@std@@@2@@Z 000000018004395c     AebellBusiThread.obj
 0002:0000c95c       $chain$4$?erase@?$_Tree@V?$_Tmap_traits@V?$basic_string@DU?$char_traits@D@std@@V?$allocator@D@2@@std@@HU?$less@V?$basic_string@DU?$char_traits@D@std@@V?$allocator@D@2@@std@@@2@V?$allocator@U?$pair@$$CBV?$basic_string@DU?$char_traits@D@std@@V?$allocator@D@2@@std@@H@std@@@2@$0A@@std@@@std@@QEAA?AV?$_Tree_iterator@V?$_Tree_val@U?$_Tree_simple_types@U?$pair@$$CBV?$basic_string@DU?$char_traits@D@std@@V?$allocator@D@2@@std@@H@std@@@std@@@std@@@2@V?$_Tree_const_iterator@V?$_Tree_val@U?$_Tree_simple_types@U?$pair@$$CBV?$basic_string@DU?$char_traits@D@std@@V?$allocator@D@2@@std@@H@std@@@std@@@std@@@2@@Z 000000018004395c     AebellBusiThread.obj
 0002:0000c96c       $chain$2$?erase@?$_Tree@V?$_Tmap_traits@_KV?$shared_ptr@VCBroadcastTask@@@std@@U?$less@_K@2@V?$allocator@U?$pair@$$CB_KV?$shared_ptr@VCBroadcastTask@@@std@@@std@@@2@$0A@@std@@@std@@QEAA?AV?$_Tree_iterator@V?$_Tree_val@U?$_Tree_simple_types@U?$pair@$$CB_KV?$shared_ptr@VCBroadcastTask@@@std@@@std@@@std@@@std@@@2@V?$_Tree_const_iterator@V?$_Tree_val@U?$_Tree_simple_types@U?$pair@$$CB_KV?$shared_ptr@VCBroadcastTask@@@std@@@std@@@std@@@std@@@2@@Z 000000018004396c     AebellBusiThread.obj
 0002:0000c988       $chain$3$?erase@?$_Tree@V?$_Tmap_traits@_KV?$shared_ptr@VCBroadcastTask@@@std@@U?$less@_K@2@V?$allocator@U?$pair@$$CB_KV?$shared_ptr@VCBroadcastTask@@@std@@@std@@@2@$0A@@std@@@std@@QEAA?AV?$_Tree_iterator@V?$_Tree_val@U?$_Tree_simple_types@U?$pair@$$CB_KV?$shared_ptr@VCBroadcastTask@@@std@@@std@@@std@@@std@@@2@V?$_Tree_const_iterator@V?$_Tree_val@U?$_Tree_simple_types@U?$pair@$$CB_KV?$shared_ptr@VCBroadcastTask@@@std@@@std@@@std@@@std@@@2@@Z 0000000180043988     AebellBusiThread.obj
 0002:0000c998       $unwind$??A?$map@_KUResTaskInfo@@U?$less@_K@std@@V?$allocator@U?$pair@$$CB_KUResTaskInfo@@@std@@@3@@std@@QEAAAEAUResTaskInfo@@AEB_K@Z 0000000180043998     AebellBusiThread.obj
 0002:0000c9a8       $chain$1$??A?$map@_KUResTaskInfo@@U?$less@_K@std@@V?$allocator@U?$pair@$$CB_KUResTaskInfo@@@std@@@3@@std@@QEAAAEAUResTaskInfo@@AEB_K@Z 00000001800439a8     AebellBusiThread.obj
 0002:0000c9bc       $chain$2$??A?$map@_KUResTaskInfo@@U?$less@_K@std@@V?$allocator@U?$pair@$$CB_KUResTaskInfo@@@std@@@3@@std@@QEAAAEAUResTaskInfo@@AEB_K@Z 00000001800439bc     AebellBusiThread.obj
 0002:0000c9d0       $chain$3$??A?$map@_KUResTaskInfo@@U?$less@_K@std@@V?$allocator@U?$pair@$$CB_KUResTaskInfo@@@std@@@3@@std@@QEAAAEAUResTaskInfo@@AEB_K@Z 00000001800439d0     AebellBusiThread.obj
 0002:0000c9e0       $chain$4$??A?$map@_KUResTaskInfo@@U?$less@_K@std@@V?$allocator@U?$pair@$$CB_KUResTaskInfo@@@std@@@3@@std@@QEAAAEAUResTaskInfo@@AEB_K@Z 00000001800439e0     AebellBusiThread.obj
 0002:0000c9f0       $unwind$?erase@?$_Tree@V?$_Tmap_traits@_KUResTaskInfo@@U?$less@_K@std@@V?$allocator@U?$pair@$$CB_KUResTaskInfo@@@std@@@3@$0A@@std@@@std@@QEAA?AV?$_Tree_iterator@V?$_Tree_val@U?$_Tree_simple_types@U?$pair@$$CB_KUResTaskInfo@@@std@@@std@@@std@@@2@V?$_Tree_const_iterator@V?$_Tree_val@U?$_Tree_simple_types@U?$pair@$$CB_KUResTaskInfo@@@std@@@std@@@std@@@2@@Z 00000001800439f0     AebellBusiThread.obj
 0002:0000c9fc       $chain$3$?erase@?$_Tree@V?$_Tmap_traits@_KUResTaskInfo@@U?$less@_K@std@@V?$allocator@U?$pair@$$CB_KUResTaskInfo@@@std@@@3@$0A@@std@@@std@@QEAA?AV?$_Tree_iterator@V?$_Tree_val@U?$_Tree_simple_types@U?$pair@$$CB_KUResTaskInfo@@@std@@@std@@@std@@@2@V?$_Tree_const_iterator@V?$_Tree_val@U?$_Tree_simple_types@U?$pair@$$CB_KUResTaskInfo@@@std@@@std@@@std@@@2@@Z 00000001800439fc     AebellBusiThread.obj
 0002:0000ca1c       $chain$4$?erase@?$_Tree@V?$_Tmap_traits@_KUResTaskInfo@@U?$less@_K@std@@V?$allocator@U?$pair@$$CB_KUResTaskInfo@@@std@@@3@$0A@@std@@@std@@QEAA?AV?$_Tree_iterator@V?$_Tree_val@U?$_Tree_simple_types@U?$pair@$$CB_KUResTaskInfo@@@std@@@std@@@std@@@2@V?$_Tree_const_iterator@V?$_Tree_val@U?$_Tree_simple_types@U?$pair@$$CB_KUResTaskInfo@@@std@@@std@@@std@@@2@@Z 0000000180043a1c     AebellBusiThread.obj
 0002:0000ca30       $chain$5$?erase@?$_Tree@V?$_Tmap_traits@_KUResTaskInfo@@U?$less@_K@std@@V?$allocator@U?$pair@$$CB_KUResTaskInfo@@@std@@@3@$0A@@std@@@std@@QEAA?AV?$_Tree_iterator@V?$_Tree_val@U?$_Tree_simple_types@U?$pair@$$CB_KUResTaskInfo@@@std@@@std@@@std@@@2@V?$_Tree_const_iterator@V?$_Tree_val@U?$_Tree_simple_types@U?$pair@$$CB_KUResTaskInfo@@@std@@@std@@@std@@@2@@Z 0000000180043a30     AebellBusiThread.obj
 0002:0000ca40       $chain$6$?erase@?$_Tree@V?$_Tmap_traits@_KUResTaskInfo@@U?$less@_K@std@@V?$allocator@U?$pair@$$CB_KUResTaskInfo@@@std@@@3@$0A@@std@@@std@@QEAA?AV?$_Tree_iterator@V?$_Tree_val@U?$_Tree_simple_types@U?$pair@$$CB_KUResTaskInfo@@@std@@@std@@@std@@@2@V?$_Tree_const_iterator@V?$_Tree_val@U?$_Tree_simple_types@U?$pair@$$CB_KUResTaskInfo@@@std@@@std@@@std@@@2@@Z 0000000180043a40     AebellBusiThread.obj
 0002:0000ca50       $unwind$??A?$map@GGU?$less@G@std@@V?$allocator@U?$pair@$$CBGG@std@@@2@@std@@QEAAAEAGAEBG@Z 0000000180043a50     AebellBusiThread.obj
 0002:0000ca50       $unwind$??A?$map@GHU?$less@G@std@@V?$allocator@U?$pair@$$CBGH@std@@@2@@std@@QEAAAEAHAEBG@Z 0000000180043a50     AebellBusiThread.obj
 0002:0000ca60       $unwind$?erase@?$_Tree@V?$_Tmap_traits@V?$basic_string@DU?$char_traits@D@std@@V?$allocator@D@2@@std@@V12@U?$less@V?$basic_string@DU?$char_traits@D@std@@V?$allocator@D@2@@std@@@2@V?$allocator@U?$pair@$$CBV?$basic_string@DU?$char_traits@D@std@@V?$allocator@D@2@@std@@V12@@std@@@2@$0A@@std@@@std@@QEAA?AV?$_Tree_iterator@V?$_Tree_val@U?$_Tree_simple_types@U?$pair@$$CBV?$basic_string@DU?$char_traits@D@std@@V?$allocator@D@2@@std@@V12@@std@@@std@@@std@@@2@V?$_Tree_const_iterator@V?$_Tree_val@U?$_Tree_simple_types@U?$pair@$$CBV?$basic_string@DU?$char_traits@D@std@@V?$allocator@D@2@@std@@V12@@std@@@std@@@std@@@2@0@Z 0000000180043a60     AebellBusiThread.obj
 0002:0000ca60       $unwind$?erase@?$_Tree@V?$_Tmap_traits@GGU?$less@G@std@@V?$allocator@U?$pair@$$CBGG@std@@@2@$0A@@std@@@std@@QEAA?AV?$_Tree_iterator@V?$_Tree_val@U?$_Tree_simple_types@U?$pair@$$CBGG@std@@@std@@@std@@@2@V?$_Tree_const_iterator@V?$_Tree_val@U?$_Tree_simple_types@U?$pair@$$CBGG@std@@@std@@@std@@@2@0@Z 0000000180043a60     AebellBusiThread.obj
 0002:0000ca60       $unwind$?erase@?$_Tree@V?$_Tmap_traits@_KUResTaskInfo@@U?$less@_K@std@@V?$allocator@U?$pair@$$CB_KUResTaskInfo@@@std@@@3@$0A@@std@@@std@@QEAA?AV?$_Tree_iterator@V?$_Tree_val@U?$_Tree_simple_types@U?$pair@$$CB_KUResTaskInfo@@@std@@@std@@@std@@@2@V?$_Tree_const_iterator@V?$_Tree_val@U?$_Tree_simple_types@U?$pair@$$CB_KUResTaskInfo@@@std@@@std@@@std@@@2@0@Z 0000000180043a60     AebellBusiThread.obj
 0002:0000ca60       $unwind$?erase@?$_Tree@V?$_Tmap_traits@GV?$basic_string@DU?$char_traits@D@std@@V?$allocator@D@2@@std@@U?$less@G@2@V?$allocator@U?$pair@$$CBGV?$basic_string@DU?$char_traits@D@std@@V?$allocator@D@2@@std@@@std@@@2@$0A@@std@@@std@@QEAA?AV?$_Tree_iterator@V?$_Tree_val@U?$_Tree_simple_types@U?$pair@$$CBGV?$basic_string@DU?$char_traits@D@std@@V?$allocator@D@2@@std@@@std@@@std@@@std@@@2@V?$_Tree_const_iterator@V?$_Tree_val@U?$_Tree_simple_types@U?$pair@$$CBGV?$basic_string@DU?$char_traits@D@std@@V?$allocator@D@2@@std@@@std@@@std@@@std@@@2@0@Z 0000000180043a60     AebellBusiThread.obj
 0002:0000ca60       $unwind$?erase@?$_Tree@V?$_Tmap_traits@V?$basic_string@DU?$char_traits@D@std@@V?$allocator@D@2@@std@@GU?$less@V?$basic_string@DU?$char_traits@D@std@@V?$allocator@D@2@@std@@@2@V?$allocator@U?$pair@$$CBV?$basic_string@DU?$char_traits@D@std@@V?$allocator@D@2@@std@@G@std@@@2@$0A@@std@@@std@@QEAA?AV?$_Tree_iterator@V?$_Tree_val@U?$_Tree_simple_types@U?$pair@$$CBV?$basic_string@DU?$char_traits@D@std@@V?$allocator@D@2@@std@@G@std@@@std@@@std@@@2@V?$_Tree_const_iterator@V?$_Tree_val@U?$_Tree_simple_types@U?$pair@$$CBV?$basic_string@DU?$char_traits@D@std@@V?$allocator@D@2@@std@@G@std@@@std@@@std@@@2@0@Z 0000000180043a60     AebellBusiThread.obj
 0002:0000ca60       $unwind$?erase@?$_Tree@V?$_Tmap_traits@GHU?$less@G@std@@V?$allocator@U?$pair@$$CBGH@std@@@2@$0A@@std@@@std@@QEAA?AV?$_Tree_iterator@V?$_Tree_val@U?$_Tree_simple_types@U?$pair@$$CBGH@std@@@std@@@std@@@2@V?$_Tree_const_iterator@V?$_Tree_val@U?$_Tree_simple_types@U?$pair@$$CBGH@std@@@std@@@std@@@2@0@Z 0000000180043a60     AebellBusiThread.obj
 0002:0000ca60       $unwind$?erase@?$_Tree@V?$_Tmap_traits@HV?$basic_string@DU?$char_traits@D@std@@V?$allocator@D@2@@std@@U?$less@H@2@V?$allocator@U?$pair@$$CBHV?$basic_string@DU?$char_traits@D@std@@V?$allocator@D@2@@std@@@std@@@2@$0A@@std@@@std@@QEAA?AV?$_Tree_iterator@V?$_Tree_val@U?$_Tree_simple_types@U?$pair@$$CBHV?$basic_string@DU?$char_traits@D@std@@V?$allocator@D@2@@std@@@std@@@std@@@std@@@2@V?$_Tree_const_iterator@V?$_Tree_val@U?$_Tree_simple_types@U?$pair@$$CBHV?$basic_string@DU?$char_traits@D@std@@V?$allocator@D@2@@std@@@std@@@std@@@std@@@2@0@Z 0000000180043a60     AebellBusiThread.obj
 0002:0000ca60       $unwind$?erase@?$_Tree@V?$_Tmap_traits@V?$basic_string@DU?$char_traits@D@std@@V?$allocator@D@2@@std@@V?$map@V?$basic_string@DU?$char_traits@D@std@@V?$allocator@D@2@@std@@V12@U?$less@V?$basic_string@DU?$char_traits@D@std@@V?$allocator@D@2@@std@@@2@V?$allocator@U?$pair@$$CBV?$basic_string@DU?$char_traits@D@std@@V?$allocator@D@2@@std@@V12@@std@@@2@@2@U?$less@V?$basic_string@DU?$char_traits@D@std@@V?$allocator@D@2@@std@@@2@V?$allocator@U?$pair@$$CBV?$basic_string@DU?$char_traits@D@std@@V?$allocator@D@2@@std@@V?$map@V?$basic_string@DU?$char_traits@D@std@@V?$allocator@D@2@@std@@V12@U?$less@V?$basic_string@DU?$char_traits@D@std@@V?$allocator@D@2@@std@@@2@V?$allocator@U?$pair@$$CBV?$basic_string@DU?$char_traits@D@std@@V?$allocator@D@2@@std@@V12@@std@@@2@@2@@std@@@2@$0A@@std@@@std@@QEAA?AV?$_Tree_iterator@V?$_Tree_val@U?$_Tree_simple_types@U?$pair@$$CBV?$basic_string@DU?$char_traits@D@std@@V?$allocator@D@2@@std@@V?$map@V?$basic_string@DU?$char_traits@D@std@@V?$allocator@D@2@@std@@V12@U?$less@V?$basic_string@DU?$char_traits@D@std@@V?$allocator@D@2@@std@@@2@V?$allocator@U?$pair@$$CBV?$basic_string@DU?$char_traits@D@std@@V?$allocator@D@2@@std@@V12@@std@@@2@@2@@std@@@std@@@std@@@2@V?$_Tree_const_iterator@V?$_Tree_val@U?$_Tree_simple_types@U?$pair@$$CBV?$basic_string@DU?$char_traits@D@std@@V?$allocator@D@2@@std@@V?$map@V?$basic_string@DU?$char_traits@D@std@@V?$allocator@D@2@@std@@V12@U?$less@V?$basic_string@DU?$char_traits@D@std@@V?$allocator@D@2@@std@@@2@V?$allocator@U?$pair@$$CBV?$basic_string@DU?$char_traits@D@std@@V?$allocator@D@2@@std@@V12@@std@@@2@@2@@std@@@std@@@std@@@2@0@Z 0000000180043a60     AebellBusiThread.obj
 0002:0000ca60       $unwind$?erase@?$_Tree@V?$_Tmap_traits@V?$basic_string@DU?$char_traits@D@std@@V?$allocator@D@2@@std@@HU?$less@V?$basic_string@DU?$char_traits@D@std@@V?$allocator@D@2@@std@@@2@V?$allocator@U?$pair@$$CBV?$basic_string@DU?$char_traits@D@std@@V?$allocator@D@2@@std@@H@std@@@2@$0A@@std@@@std@@QEAA?AV?$_Tree_iterator@V?$_Tree_val@U?$_Tree_simple_types@U?$pair@$$CBV?$basic_string@DU?$char_traits@D@std@@V?$allocator@D@2@@std@@H@std@@@std@@@std@@@2@V?$_Tree_const_iterator@V?$_Tree_val@U?$_Tree_simple_types@U?$pair@$$CBV?$basic_string@DU?$char_traits@D@std@@V?$allocator@D@2@@std@@H@std@@@std@@@std@@@2@0@Z 0000000180043a60     AebellBusiThread.obj
 0002:0000ca60       $unwind$?erase@?$_Tree@V?$_Tmap_traits@_KV?$shared_ptr@VCBroadcastTask@@@std@@U?$less@_K@2@V?$allocator@U?$pair@$$CB_KV?$shared_ptr@VCBroadcastTask@@@std@@@std@@@2@$0A@@std@@@std@@QEAA?AV?$_Tree_iterator@V?$_Tree_val@U?$_Tree_simple_types@U?$pair@$$CB_KV?$shared_ptr@VCBroadcastTask@@@std@@@std@@@std@@@std@@@2@V?$_Tree_const_iterator@V?$_Tree_val@U?$_Tree_simple_types@U?$pair@$$CB_KV?$shared_ptr@VCBroadcastTask@@@std@@@std@@@std@@@std@@@2@0@Z 0000000180043a60     AebellBusiThread.obj
 0002:0000ca6c       $chain$0$?_Erase@?$_Tree@V?$_Tmap_traits@V?$basic_string@DU?$char_traits@D@std@@V?$allocator@D@2@@std@@V12@U?$less@V?$basic_string@DU?$char_traits@D@std@@V?$allocator@D@2@@std@@@2@V?$allocator@U?$pair@$$CBV?$basic_string@DU?$char_traits@D@std@@V?$allocator@D@2@@std@@V12@@std@@@2@$0A@@std@@@std@@IEAAXPEAU?$_Tree_node@U?$pair@$$CBV?$basic_string@DU?$char_traits@D@std@@V?$allocator@D@2@@std@@V12@@std@@PEAX@2@@Z 0000000180043a6c     AebellBusiThread.obj
 0002:0000ca80       $chain$1$?_Erase@?$_Tree@V?$_Tmap_traits@V?$basic_string@DU?$char_traits@D@std@@V?$allocator@D@2@@std@@V12@U?$less@V?$basic_string@DU?$char_traits@D@std@@V?$allocator@D@2@@std@@@2@V?$allocator@U?$pair@$$CBV?$basic_string@DU?$char_traits@D@std@@V?$allocator@D@2@@std@@V12@@std@@@2@$0A@@std@@@std@@IEAAXPEAU?$_Tree_node@U?$pair@$$CBV?$basic_string@DU?$char_traits@D@std@@V?$allocator@D@2@@std@@V12@@std@@PEAX@2@@Z 0000000180043a80     AebellBusiThread.obj
 0002:0000ca90       $chain$0$?_Erase@?$_Tree@V?$_Tmap_traits@V?$basic_string@DU?$char_traits@D@std@@V?$allocator@D@2@@std@@GU?$less@V?$basic_string@DU?$char_traits@D@std@@V?$allocator@D@2@@std@@@2@V?$allocator@U?$pair@$$CBV?$basic_string@DU?$char_traits@D@std@@V?$allocator@D@2@@std@@G@std@@@2@$0A@@std@@@std@@IEAAXPEAU?$_Tree_node@U?$pair@$$CBV?$basic_string@DU?$char_traits@D@std@@V?$allocator@D@2@@std@@G@std@@PEAX@2@@Z 0000000180043a90     AebellBusiThread.obj
 0002:0000ca90       $chain$0$?_Erase@?$_Tree@V?$_Tmap_traits@V?$basic_string@DU?$char_traits@D@std@@V?$allocator@D@2@@std@@HU?$less@V?$basic_string@DU?$char_traits@D@std@@V?$allocator@D@2@@std@@@2@V?$allocator@U?$pair@$$CBV?$basic_string@DU?$char_traits@D@std@@V?$allocator@D@2@@std@@H@std@@@2@$0A@@std@@@std@@IEAAXPEAU?$_Tree_node@U?$pair@$$CBV?$basic_string@DU?$char_traits@D@std@@V?$allocator@D@2@@std@@H@std@@PEAX@2@@Z 0000000180043a90     AebellBusiThread.obj
 0002:0000caa4       $chain$1$?_Erase@?$_Tree@V?$_Tmap_traits@V?$basic_string@DU?$char_traits@D@std@@V?$allocator@D@2@@std@@GU?$less@V?$basic_string@DU?$char_traits@D@std@@V?$allocator@D@2@@std@@@2@V?$allocator@U?$pair@$$CBV?$basic_string@DU?$char_traits@D@std@@V?$allocator@D@2@@std@@G@std@@@2@$0A@@std@@@std@@IEAAXPEAU?$_Tree_node@U?$pair@$$CBV?$basic_string@DU?$char_traits@D@std@@V?$allocator@D@2@@std@@G@std@@PEAX@2@@Z 0000000180043aa4     AebellBusiThread.obj
 0002:0000caa4       $chain$1$?_Erase@?$_Tree@V?$_Tmap_traits@V?$basic_string@DU?$char_traits@D@std@@V?$allocator@D@2@@std@@HU?$less@V?$basic_string@DU?$char_traits@D@std@@V?$allocator@D@2@@std@@@2@V?$allocator@U?$pair@$$CBV?$basic_string@DU?$char_traits@D@std@@V?$allocator@D@2@@std@@H@std@@@2@$0A@@std@@@std@@IEAAXPEAU?$_Tree_node@U?$pair@$$CBV?$basic_string@DU?$char_traits@D@std@@V?$allocator@D@2@@std@@H@std@@PEAX@2@@Z 0000000180043aa4     AebellBusiThread.obj
 0002:0000cab4       $chain$0$?_Erase@?$_Tree@V?$_Tmap_traits@HV?$basic_string@DU?$char_traits@D@std@@V?$allocator@D@2@@std@@U?$less@H@2@V?$allocator@U?$pair@$$CBHV?$basic_string@DU?$char_traits@D@std@@V?$allocator@D@2@@std@@@std@@@2@$0A@@std@@@std@@IEAAXPEAU?$_Tree_node@U?$pair@$$CBHV?$basic_string@DU?$char_traits@D@std@@V?$allocator@D@2@@std@@@std@@PEAX@2@@Z 0000000180043ab4     AebellBusiThread.obj
 0002:0000cab4       $chain$0$?_Erase@?$_Tree@V?$_Tmap_traits@GV?$basic_string@DU?$char_traits@D@std@@V?$allocator@D@2@@std@@U?$less@G@2@V?$allocator@U?$pair@$$CBGV?$basic_string@DU?$char_traits@D@std@@V?$allocator@D@2@@std@@@std@@@2@$0A@@std@@@std@@IEAAXPEAU?$_Tree_node@U?$pair@$$CBGV?$basic_string@DU?$char_traits@D@std@@V?$allocator@D@2@@std@@@std@@PEAX@2@@Z 0000000180043ab4     AebellBusiThread.obj
 0002:0000cac8       $chain$1$?_Erase@?$_Tree@V?$_Tmap_traits@GV?$basic_string@DU?$char_traits@D@std@@V?$allocator@D@2@@std@@U?$less@G@2@V?$allocator@U?$pair@$$CBGV?$basic_string@DU?$char_traits@D@std@@V?$allocator@D@2@@std@@@std@@@2@$0A@@std@@@std@@IEAAXPEAU?$_Tree_node@U?$pair@$$CBGV?$basic_string@DU?$char_traits@D@std@@V?$allocator@D@2@@std@@@std@@PEAX@2@@Z 0000000180043ac8     AebellBusiThread.obj
 0002:0000cac8       $chain$1$?_Erase@?$_Tree@V?$_Tmap_traits@HV?$basic_string@DU?$char_traits@D@std@@V?$allocator@D@2@@std@@U?$less@H@2@V?$allocator@U?$pair@$$CBHV?$basic_string@DU?$char_traits@D@std@@V?$allocator@D@2@@std@@@std@@@2@$0A@@std@@@std@@IEAAXPEAU?$_Tree_node@U?$pair@$$CBHV?$basic_string@DU?$char_traits@D@std@@V?$allocator@D@2@@std@@@std@@PEAX@2@@Z 0000000180043ac8     AebellBusiThread.obj
 0002:0000cad8       $unwind$?_Reallocate@?$vector@U_tagPlayTaskFile@@V?$allocator@U_tagPlayTaskFile@@@std@@@std@@IEAAX_K@Z 0000000180043ad8     AebellBusiThread.obj
 0002:0000cae4       $chain$2$?_Reallocate@?$vector@U_tagPlayTaskFile@@V?$allocator@U_tagPlayTaskFile@@@std@@@std@@IEAAX_K@Z 0000000180043ae4     AebellBusiThread.obj
 0002:0000cb00       $chain$3$?_Reallocate@?$vector@U_tagPlayTaskFile@@V?$allocator@U_tagPlayTaskFile@@@std@@@std@@IEAAX_K@Z 0000000180043b00     AebellBusiThread.obj
 0002:0000cb10       $unwind$?_Eqrange@?$_Tree@V?$_Tmap_traits@V?$basic_string@DU?$char_traits@D@std@@V?$allocator@D@2@@std@@V12@U?$less@V?$basic_string@DU?$char_traits@D@std@@V?$allocator@D@2@@std@@@2@V?$allocator@U?$pair@$$CBV?$basic_string@DU?$char_traits@D@std@@V?$allocator@D@2@@std@@V12@@std@@@2@$0A@@std@@@std@@IEAA?AU?$pair@V?$_Tree_iterator@V?$_Tree_val@U?$_Tree_simple_types@U?$pair@$$CBV?$basic_string@DU?$char_traits@D@std@@V?$allocator@D@2@@std@@V12@@std@@@std@@@std@@@std@@V12@@2@AEBV?$basic_string@DU?$char_traits@D@std@@V?$allocator@D@2@@2@@Z 0000000180043b10     AebellBusiThread.obj
 0002:0000cb10       $unwind$?wcstoxl@@YAKPEB_WPEAPEB_WHH@Z 0000000180043b10     LIBCMT:wcstol.obj
 0002:0000cb28       $unwind$?_Lbound@?$_Tree@V?$_Tmap_traits@V?$basic_string@DU?$char_traits@D@std@@V?$allocator@D@2@@std@@GU?$less@V?$basic_string@DU?$char_traits@D@std@@V?$allocator@D@2@@std@@@2@V?$allocator@U?$pair@$$CBV?$basic_string@DU?$char_traits@D@std@@V?$allocator@D@2@@std@@G@std@@@2@$0A@@std@@@std@@IEAAPEAU?$_Tree_node@U?$pair@$$CBV?$basic_string@DU?$char_traits@D@std@@V?$allocator@D@2@@std@@G@std@@PEAX@2@AEBV?$basic_string@DU?$char_traits@D@std@@V?$allocator@D@2@@2@@Z 0000000180043b28     AebellBusiThread.obj
 0002:0000cb28       $unwind$?_Lbound@?$_Tree@V?$_Tmap_traits@V?$basic_string@DU?$char_traits@D@std@@V?$allocator@D@2@@std@@V12@U?$less@V?$basic_string@DU?$char_traits@D@std@@V?$allocator@D@2@@std@@@2@V?$allocator@U?$pair@$$CBV?$basic_string@DU?$char_traits@D@std@@V?$allocator@D@2@@std@@V12@@std@@@2@$0A@@std@@@std@@IEAAPEAU?$_Tree_node@U?$pair@$$CBV?$basic_string@DU?$char_traits@D@std@@V?$allocator@D@2@@std@@V12@@std@@PEAX@2@AEBV?$basic_string@DU?$char_traits@D@std@@V?$allocator@D@2@@2@@Z 0000000180043b28     AebellBusiThread.obj
 0002:0000cb34       $chain$2$?_Lbound@?$_Tree@V?$_Tmap_traits@V?$basic_string@DU?$char_traits@D@std@@V?$allocator@D@2@@std@@GU?$less@V?$basic_string@DU?$char_traits@D@std@@V?$allocator@D@2@@std@@@2@V?$allocator@U?$pair@$$CBV?$basic_string@DU?$char_traits@D@std@@V?$allocator@D@2@@std@@G@std@@@2@$0A@@std@@@std@@IEAAPEAU?$_Tree_node@U?$pair@$$CBV?$basic_string@DU?$char_traits@D@std@@V?$allocator@D@2@@std@@G@std@@PEAX@2@AEBV?$basic_string@DU?$char_traits@D@std@@V?$allocator@D@2@@2@@Z 0000000180043b34     AebellBusiThread.obj
 0002:0000cb34       $chain$2$?_Lbound@?$_Tree@V?$_Tmap_traits@V?$basic_string@DU?$char_traits@D@std@@V?$allocator@D@2@@std@@V12@U?$less@V?$basic_string@DU?$char_traits@D@std@@V?$allocator@D@2@@std@@@2@V?$allocator@U?$pair@$$CBV?$basic_string@DU?$char_traits@D@std@@V?$allocator@D@2@@std@@V12@@std@@@2@$0A@@std@@@std@@IEAAPEAU?$_Tree_node@U?$pair@$$CBV?$basic_string@DU?$char_traits@D@std@@V?$allocator@D@2@@std@@V12@@std@@PEAX@2@AEBV?$basic_string@DU?$char_traits@D@std@@V?$allocator@D@2@@2@@Z 0000000180043b34     AebellBusiThread.obj
 0002:0000cb50       $chain$3$?_Lbound@?$_Tree@V?$_Tmap_traits@V?$basic_string@DU?$char_traits@D@std@@V?$allocator@D@2@@std@@V12@U?$less@V?$basic_string@DU?$char_traits@D@std@@V?$allocator@D@2@@std@@@2@V?$allocator@U?$pair@$$CBV?$basic_string@DU?$char_traits@D@std@@V?$allocator@D@2@@std@@V12@@std@@@2@$0A@@std@@@std@@IEAAPEAU?$_Tree_node@U?$pair@$$CBV?$basic_string@DU?$char_traits@D@std@@V?$allocator@D@2@@std@@V12@@std@@PEAX@2@AEBV?$basic_string@DU?$char_traits@D@std@@V?$allocator@D@2@@2@@Z 0000000180043b50     AebellBusiThread.obj
 0002:0000cb50       $chain$3$?_Lbound@?$_Tree@V?$_Tmap_traits@V?$basic_string@DU?$char_traits@D@std@@V?$allocator@D@2@@std@@GU?$less@V?$basic_string@DU?$char_traits@D@std@@V?$allocator@D@2@@std@@@2@V?$allocator@U?$pair@$$CBV?$basic_string@DU?$char_traits@D@std@@V?$allocator@D@2@@std@@G@std@@@2@$0A@@std@@@std@@IEAAPEAU?$_Tree_node@U?$pair@$$CBV?$basic_string@DU?$char_traits@D@std@@V?$allocator@D@2@@std@@G@std@@PEAX@2@AEBV?$basic_string@DU?$char_traits@D@std@@V?$allocator@D@2@@2@@Z 0000000180043b50     AebellBusiThread.obj
 0002:0000cb60       $chain$0$?erase@?$_Tree@V?$_Tmap_traits@GV?$basic_string@DU?$char_traits@D@std@@V?$allocator@D@2@@std@@U?$less@G@2@V?$allocator@U?$pair@$$CBGV?$basic_string@DU?$char_traits@D@std@@V?$allocator@D@2@@std@@@std@@@2@$0A@@std@@@std@@QEAA?AV?$_Tree_iterator@V?$_Tree_val@U?$_Tree_simple_types@U?$pair@$$CBGV?$basic_string@DU?$char_traits@D@std@@V?$allocator@D@2@@std@@@std@@@std@@@std@@@2@V?$_Tree_const_iterator@V?$_Tree_val@U?$_Tree_simple_types@U?$pair@$$CBGV?$basic_string@DU?$char_traits@D@std@@V?$allocator@D@2@@std@@@std@@@std@@@std@@@2@@Z 0000000180043b60     AebellBusiThread.obj
 0002:0000cb60       $chain$0$?erase@?$_Tree@V?$_Tmap_traits@HV?$basic_string@DU?$char_traits@D@std@@V?$allocator@D@2@@std@@U?$less@H@2@V?$allocator@U?$pair@$$CBHV?$basic_string@DU?$char_traits@D@std@@V?$allocator@D@2@@std@@@std@@@2@$0A@@std@@@std@@QEAA?AV?$_Tree_iterator@V?$_Tree_val@U?$_Tree_simple_types@U?$pair@$$CBHV?$basic_string@DU?$char_traits@D@std@@V?$allocator@D@2@@std@@@std@@@std@@@std@@@2@V?$_Tree_const_iterator@V?$_Tree_val@U?$_Tree_simple_types@U?$pair@$$CBHV?$basic_string@DU?$char_traits@D@std@@V?$allocator@D@2@@std@@@std@@@std@@@std@@@2@@Z 0000000180043b60     AebellBusiThread.obj
 0002:0000cb74       $chain$2$?erase@?$_Tree@V?$_Tmap_traits@HV?$basic_string@DU?$char_traits@D@std@@V?$allocator@D@2@@std@@U?$less@H@2@V?$allocator@U?$pair@$$CBHV?$basic_string@DU?$char_traits@D@std@@V?$allocator@D@2@@std@@@std@@@2@$0A@@std@@@std@@QEAA?AV?$_Tree_iterator@V?$_Tree_val@U?$_Tree_simple_types@U?$pair@$$CBHV?$basic_string@DU?$char_traits@D@std@@V?$allocator@D@2@@std@@@std@@@std@@@std@@@2@V?$_Tree_const_iterator@V?$_Tree_val@U?$_Tree_simple_types@U?$pair@$$CBHV?$basic_string@DU?$char_traits@D@std@@V?$allocator@D@2@@std@@@std@@@std@@@std@@@2@@Z 0000000180043b74     AebellBusiThread.obj
 0002:0000cb74       $chain$2$?erase@?$_Tree@V?$_Tmap_traits@GV?$basic_string@DU?$char_traits@D@std@@V?$allocator@D@2@@std@@U?$less@G@2@V?$allocator@U?$pair@$$CBGV?$basic_string@DU?$char_traits@D@std@@V?$allocator@D@2@@std@@@std@@@2@$0A@@std@@@std@@QEAA?AV?$_Tree_iterator@V?$_Tree_val@U?$_Tree_simple_types@U?$pair@$$CBGV?$basic_string@DU?$char_traits@D@std@@V?$allocator@D@2@@std@@@std@@@std@@@std@@@2@V?$_Tree_const_iterator@V?$_Tree_val@U?$_Tree_simple_types@U?$pair@$$CBGV?$basic_string@DU?$char_traits@D@std@@V?$allocator@D@2@@std@@@std@@@std@@@std@@@2@@Z 0000000180043b74     AebellBusiThread.obj
 0002:0000cb8c       $chain$3$?erase@?$_Tree@V?$_Tmap_traits@HV?$basic_string@DU?$char_traits@D@std@@V?$allocator@D@2@@std@@U?$less@H@2@V?$allocator@U?$pair@$$CBHV?$basic_string@DU?$char_traits@D@std@@V?$allocator@D@2@@std@@@std@@@2@$0A@@std@@@std@@QEAA?AV?$_Tree_iterator@V?$_Tree_val@U?$_Tree_simple_types@U?$pair@$$CBHV?$basic_string@DU?$char_traits@D@std@@V?$allocator@D@2@@std@@@std@@@std@@@std@@@2@V?$_Tree_const_iterator@V?$_Tree_val@U?$_Tree_simple_types@U?$pair@$$CBHV?$basic_string@DU?$char_traits@D@std@@V?$allocator@D@2@@std@@@std@@@std@@@std@@@2@@Z 0000000180043b8c     AebellBusiThread.obj
 0002:0000cb8c       $chain$3$?erase@?$_Tree@V?$_Tmap_traits@GV?$basic_string@DU?$char_traits@D@std@@V?$allocator@D@2@@std@@U?$less@G@2@V?$allocator@U?$pair@$$CBGV?$basic_string@DU?$char_traits@D@std@@V?$allocator@D@2@@std@@@std@@@2@$0A@@std@@@std@@QEAA?AV?$_Tree_iterator@V?$_Tree_val@U?$_Tree_simple_types@U?$pair@$$CBGV?$basic_string@DU?$char_traits@D@std@@V?$allocator@D@2@@std@@@std@@@std@@@std@@@2@V?$_Tree_const_iterator@V?$_Tree_val@U?$_Tree_simple_types@U?$pair@$$CBGV?$basic_string@DU?$char_traits@D@std@@V?$allocator@D@2@@std@@@std@@@std@@@std@@@2@@Z 0000000180043b8c     AebellBusiThread.obj
 0002:0000cb9c       $chain$4$?erase@?$_Tree@V?$_Tmap_traits@GV?$basic_string@DU?$char_traits@D@std@@V?$allocator@D@2@@std@@U?$less@G@2@V?$allocator@U?$pair@$$CBGV?$basic_string@DU?$char_traits@D@std@@V?$allocator@D@2@@std@@@std@@@2@$0A@@std@@@std@@QEAA?AV?$_Tree_iterator@V?$_Tree_val@U?$_Tree_simple_types@U?$pair@$$CBGV?$basic_string@DU?$char_traits@D@std@@V?$allocator@D@2@@std@@@std@@@std@@@std@@@2@V?$_Tree_const_iterator@V?$_Tree_val@U?$_Tree_simple_types@U?$pair@$$CBGV?$basic_string@DU?$char_traits@D@std@@V?$allocator@D@2@@std@@@std@@@std@@@std@@@2@@Z 0000000180043b9c     AebellBusiThread.obj
 0002:0000cb9c       $chain$4$?erase@?$_Tree@V?$_Tmap_traits@HV?$basic_string@DU?$char_traits@D@std@@V?$allocator@D@2@@std@@U?$less@H@2@V?$allocator@U?$pair@$$CBHV?$basic_string@DU?$char_traits@D@std@@V?$allocator@D@2@@std@@@std@@@2@$0A@@std@@@std@@QEAA?AV?$_Tree_iterator@V?$_Tree_val@U?$_Tree_simple_types@U?$pair@$$CBHV?$basic_string@DU?$char_traits@D@std@@V?$allocator@D@2@@std@@@std@@@std@@@std@@@2@V?$_Tree_const_iterator@V?$_Tree_val@U?$_Tree_simple_types@U?$pair@$$CBHV?$basic_string@DU?$char_traits@D@std@@V?$allocator@D@2@@std@@@std@@@std@@@std@@@2@@Z 0000000180043b9c     AebellBusiThread.obj
 0002:0000cbac       $chain$2$?erase@?$_Tree@V?$_Tmap_traits@V?$basic_string@DU?$char_traits@D@std@@V?$allocator@D@2@@std@@V?$map@V?$basic_string@DU?$char_traits@D@std@@V?$allocator@D@2@@std@@V12@U?$less@V?$basic_string@DU?$char_traits@D@std@@V?$allocator@D@2@@std@@@2@V?$allocator@U?$pair@$$CBV?$basic_string@DU?$char_traits@D@std@@V?$allocator@D@2@@std@@V12@@std@@@2@@2@U?$less@V?$basic_string@DU?$char_traits@D@std@@V?$allocator@D@2@@std@@@2@V?$allocator@U?$pair@$$CBV?$basic_string@DU?$char_traits@D@std@@V?$allocator@D@2@@std@@V?$map@V?$basic_string@DU?$char_traits@D@std@@V?$allocator@D@2@@std@@V12@U?$less@V?$basic_string@DU?$char_traits@D@std@@V?$allocator@D@2@@std@@@2@V?$allocator@U?$pair@$$CBV?$basic_string@DU?$char_traits@D@std@@V?$allocator@D@2@@std@@V12@@std@@@2@@2@@std@@@2@$0A@@std@@@std@@QEAA?AV?$_Tree_iterator@V?$_Tree_val@U?$_Tree_simple_types@U?$pair@$$CBV?$basic_string@DU?$char_traits@D@std@@V?$allocator@D@2@@std@@V?$map@V?$basic_string@DU?$char_traits@D@std@@V?$allocator@D@2@@std@@V12@U?$less@V?$basic_string@DU?$char_traits@D@std@@V?$allocator@D@2@@std@@@2@V?$allocator@U?$pair@$$CBV?$basic_string@DU?$char_traits@D@std@@V?$allocator@D@2@@std@@V12@@std@@@2@@2@@std@@@std@@@std@@@2@V?$_Tree_const_iterator@V?$_Tree_val@U?$_Tree_simple_types@U?$pair@$$CBV?$basic_string@DU?$char_traits@D@std@@V?$allocator@D@2@@std@@V?$map@V?$basic_string@DU?$char_traits@D@std@@V?$allocator@D@2@@std@@V12@U?$less@V?$basic_string@DU?$char_traits@D@std@@V?$allocator@D@2@@std@@@2@V?$allocator@U?$pair@$$CBV?$basic_string@DU?$char_traits@D@std@@V?$allocator@D@2@@std@@V12@@std@@@2@@2@@std@@@std@@@std@@@2@@Z 0000000180043bac     AebellBusiThread.obj
 0002:0000cbc8       $chain$3$?erase@?$_Tree@V?$_Tmap_traits@V?$basic_string@DU?$char_traits@D@std@@V?$allocator@D@2@@std@@V?$map@V?$basic_string@DU?$char_traits@D@std@@V?$allocator@D@2@@std@@V12@U?$less@V?$basic_string@DU?$char_traits@D@std@@V?$allocator@D@2@@std@@@2@V?$allocator@U?$pair@$$CBV?$basic_string@DU?$char_traits@D@std@@V?$allocator@D@2@@std@@V12@@std@@@2@@2@U?$less@V?$basic_string@DU?$char_traits@D@std@@V?$allocator@D@2@@std@@@2@V?$allocator@U?$pair@$$CBV?$basic_string@DU?$char_traits@D@std@@V?$allocator@D@2@@std@@V?$map@V?$basic_string@DU?$char_traits@D@std@@V?$allocator@D@2@@std@@V12@U?$less@V?$basic_string@DU?$char_traits@D@std@@V?$allocator@D@2@@std@@@2@V?$allocator@U?$pair@$$CBV?$basic_string@DU?$char_traits@D@std@@V?$allocator@D@2@@std@@V12@@std@@@2@@2@@std@@@2@$0A@@std@@@std@@QEAA?AV?$_Tree_iterator@V?$_Tree_val@U?$_Tree_simple_types@U?$pair@$$CBV?$basic_string@DU?$char_traits@D@std@@V?$allocator@D@2@@std@@V?$map@V?$basic_string@DU?$char_traits@D@std@@V?$allocator@D@2@@std@@V12@U?$less@V?$basic_string@DU?$char_traits@D@std@@V?$allocator@D@2@@std@@@2@V?$allocator@U?$pair@$$CBV?$basic_string@DU?$char_traits@D@std@@V?$allocator@D@2@@std@@V12@@std@@@2@@2@@std@@@std@@@std@@@2@V?$_Tree_const_iterator@V?$_Tree_val@U?$_Tree_simple_types@U?$pair@$$CBV?$basic_string@DU?$char_traits@D@std@@V?$allocator@D@2@@std@@V?$map@V?$basic_string@DU?$char_traits@D@std@@V?$allocator@D@2@@std@@V12@U?$less@V?$basic_string@DU?$char_traits@D@std@@V?$allocator@D@2@@std@@@2@V?$allocator@U?$pair@$$CBV?$basic_string@DU?$char_traits@D@std@@V?$allocator@D@2@@std@@V12@@std@@@2@@2@@std@@@std@@@std@@@2@@Z 0000000180043bc8     AebellBusiThread.obj
 0002:0000cbdc       $chain$4$?erase@?$_Tree@V?$_Tmap_traits@V?$basic_string@DU?$char_traits@D@std@@V?$allocator@D@2@@std@@V?$map@V?$basic_string@DU?$char_traits@D@std@@V?$allocator@D@2@@std@@V12@U?$less@V?$basic_string@DU?$char_traits@D@std@@V?$allocator@D@2@@std@@@2@V?$allocator@U?$pair@$$CBV?$basic_string@DU?$char_traits@D@std@@V?$allocator@D@2@@std@@V12@@std@@@2@@2@U?$less@V?$basic_string@DU?$char_traits@D@std@@V?$allocator@D@2@@std@@@2@V?$allocator@U?$pair@$$CBV?$basic_string@DU?$char_traits@D@std@@V?$allocator@D@2@@std@@V?$map@V?$basic_string@DU?$char_traits@D@std@@V?$allocator@D@2@@std@@V12@U?$less@V?$basic_string@DU?$char_traits@D@std@@V?$allocator@D@2@@std@@@2@V?$allocator@U?$pair@$$CBV?$basic_string@DU?$char_traits@D@std@@V?$allocator@D@2@@std@@V12@@std@@@2@@2@@std@@@2@$0A@@std@@@std@@QEAA?AV?$_Tree_iterator@V?$_Tree_val@U?$_Tree_simple_types@U?$pair@$$CBV?$basic_string@DU?$char_traits@D@std@@V?$allocator@D@2@@std@@V?$map@V?$basic_string@DU?$char_traits@D@std@@V?$allocator@D@2@@std@@V12@U?$less@V?$basic_string@DU?$char_traits@D@std@@V?$allocator@D@2@@std@@@2@V?$allocator@U?$pair@$$CBV?$basic_string@DU?$char_traits@D@std@@V?$allocator@D@2@@std@@V12@@std@@@2@@2@@std@@@std@@@std@@@2@V?$_Tree_const_iterator@V?$_Tree_val@U?$_Tree_simple_types@U?$pair@$$CBV?$basic_string@DU?$char_traits@D@std@@V?$allocator@D@2@@std@@V?$map@V?$basic_string@DU?$char_traits@D@std@@V?$allocator@D@2@@std@@V12@U?$less@V?$basic_string@DU?$char_traits@D@std@@V?$allocator@D@2@@std@@@2@V?$allocator@U?$pair@$$CBV?$basic_string@DU?$char_traits@D@std@@V?$allocator@D@2@@std@@V12@@std@@@2@@2@@std@@@std@@@std@@@2@@Z 0000000180043bdc     AebellBusiThread.obj
 0002:0000cbec       $unwind$?erase@?$_Tree@V?$_Tmap_traits@GHU?$less@G@std@@V?$allocator@U?$pair@$$CBGH@std@@@2@$0A@@std@@@std@@QEAA?AV?$_Tree_iterator@V?$_Tree_val@U?$_Tree_simple_types@U?$pair@$$CBGH@std@@@std@@@std@@@2@V?$_Tree_const_iterator@V?$_Tree_val@U?$_Tree_simple_types@U?$pair@$$CBGH@std@@@std@@@std@@@2@@Z 0000000180043bec     AebellBusiThread.obj
 0002:0000cbec       $unwind$?erase@?$_Tree@V?$_Tmap_traits@GGU?$less@G@std@@V?$allocator@U?$pair@$$CBGG@std@@@2@$0A@@std@@@std@@QEAA?AV?$_Tree_iterator@V?$_Tree_val@U?$_Tree_simple_types@U?$pair@$$CBGG@std@@@std@@@std@@@2@V?$_Tree_const_iterator@V?$_Tree_val@U?$_Tree_simple_types@U?$pair@$$CBGG@std@@@std@@@std@@@2@@Z 0000000180043bec     AebellBusiThread.obj
 0002:0000cbf8       $chain$2$?erase@?$_Tree@V?$_Tmap_traits@GHU?$less@G@std@@V?$allocator@U?$pair@$$CBGH@std@@@2@$0A@@std@@@std@@QEAA?AV?$_Tree_iterator@V?$_Tree_val@U?$_Tree_simple_types@U?$pair@$$CBGH@std@@@std@@@std@@@2@V?$_Tree_const_iterator@V?$_Tree_val@U?$_Tree_simple_types@U?$pair@$$CBGH@std@@@std@@@std@@@2@@Z 0000000180043bf8     AebellBusiThread.obj
 0002:0000cbf8       $chain$2$?erase@?$_Tree@V?$_Tmap_traits@GGU?$less@G@std@@V?$allocator@U?$pair@$$CBGG@std@@@2@$0A@@std@@@std@@QEAA?AV?$_Tree_iterator@V?$_Tree_val@U?$_Tree_simple_types@U?$pair@$$CBGG@std@@@std@@@std@@@2@V?$_Tree_const_iterator@V?$_Tree_val@U?$_Tree_simple_types@U?$pair@$$CBGG@std@@@std@@@std@@@2@@Z 0000000180043bf8     AebellBusiThread.obj
